 PhysX3CharacterKinematicCHECKED_x64

 Timestamp is 5f36ca7c (Sat Aug 15 01:31:40 2020)

 Preferred load address is 0000000180000000

 Start         Length     Name                   Class
 0001:00000000 00002820H .text$di                CODE
 0001:00002820 0002a790H .text$mn                CODE
 0001:0002cfb0 00001016H .text$mn$00             CODE
 0001:0002dfc6 000010a1H .text$x                 CODE
 0002:00000000 00000110H .CRT$XCA                DATA
 0002:00000110 00000140H .CRT$XCU                DATA
 0002:00000250 00000110H .CRT$XCZ                DATA
 0002:00000360 00000110H .CRT$XIA                DATA
 0002:00000470 00000110H .CRT$XIZ                DATA
 0002:00000580 00000110H .CRT$XPA                DATA
 0002:00000690 00000110H .CRT$XPZ                DATA
 0002:000007a0 00000110H .CRT$XTA                DATA
 0002:000008b0 00000110H .CRT$XTZ                DATA
 0002:000009c0 00001ee0H .rdata                  DATA
 0002:000028a0 00000188H .rdata$r                DATA
 0002:00002a28 000001c0H .rdata$zzzdbg           DATA
 0002:00002be8 00000110H .rtc$IAA                DATA
 0002:00002cf8 00000110H .rtc$IZZ                DATA
 0002:00002e08 00000110H .rtc$TAA                DATA
 0002:00002f18 00000110H .rtc$TZZ                DATA
 0002:00003028 000028c8H .xdata                  DATA
 0002:000058f0 00000b14H .edata                  DATA
 0003:00000000 000001d0H .data                   DATA
 0003:000001d0 000002a0H .data$r                 DATA
 0003:00000470 00000129H .bss                    DATA
 0004:00000000 000016d4H .pdata                  DATA
 0005:00000000 00000528H .idata$5                DATA
 0005:00000528 0000008cH .idata$2                DATA
 0005:000005b4 00000014H .idata$3                DATA
 0005:000005c8 00000528H .idata$4                DATA
 0005:00000af0 00001135H .idata$6                DATA
 0006:00000000 0000011bH .00cfg                  DATA
 0007:00000000 000001c0H .rsrc$01                DATA
 0007:000001c0 00000700H .rsrc$02                DATA

  Address         Publics by Value              Rva+Base               Lib:Object

 0000:00000000       __guard_iat_table          0000000000000000     <absolute>
 0000:00000000       __guard_longjmp_table      0000000000000000     <absolute>
 0000:00000000       __dynamic_value_reloc_table 0000000000000000     <absolute>
 0000:00000000       __hybrid_code_map_count    0000000000000000     <absolute>
 0000:00000000       __enclave_config           0000000000000000     <absolute>
 0000:00000000       ___safe_se_handler_count   0000000000000000     <absolute>
 0000:00000000       __guard_fids_table         0000000000000000     <absolute>
 0000:00000000       __guard_fids_count         0000000000000000     <absolute>
 0000:00000000       __guard_iat_count          0000000000000000     <absolute>
 0000:00000000       ___safe_se_handler_table   0000000000000000     <absolute>
 0000:00000000       __guard_longjmp_count      0000000000000000     <absolute>
 0000:00000000       __hybrid_auxiliary_iat     0000000000000000     <absolute>
 0000:00000000       __hybrid_code_map          0000000000000000     <absolute>
 0000:00000000       __volatile_metadata        0000000000000000     <absolute>
 0000:00000100       __guard_flags              0000000000000100     <absolute>
 0000:00000000       __ImageBase                0000000180000000     <linker-defined>
 0001:00002820       ??0BoxController@Cct@physx@@QEAA@AEBVPxControllerDesc@2@AEAVPxPhysics@2@PEAVPxScene@2@@Z 0000000180003820 f   CctBoxController.obj
 0001:00002910       ??1BoxController@Cct@physx@@UEAA@XZ 0000000180003910 f   CctBoxController.obj
 0001:00002950       ?getWorldBox@BoxController@Cct@physx@@UEBA_NAEAUPxExtendedBounds3@3@@Z 0000000180003950 f   CctBoxController.obj
 0001:00002a00       ?setFootPosition@BoxController@Cct@physx@@UEAA_NAEBUPxExtendedVec3@3@@Z 0000000180003a00 f   CctBoxController.obj
 0001:00002a80       ?getFootPosition@BoxController@Cct@physx@@UEBA?AUPxExtendedVec3@3@XZ 0000000180003a80 f   CctBoxController.obj
 0001:00002b00       ?invalidateCache@BoxController@Cct@physx@@UEAAXXZ 0000000180003b00 f   CctBoxController.obj
 0001:00002b60       ?resize@BoxController@Cct@physx@@UEAAXM@Z 0000000180003b60 f   CctBoxController.obj
 0001:00002c20       ?getHalfHeight@BoxController@Cct@physx@@UEBAMXZ 0000000180003c20 f   CctBoxController.obj
 0001:00002c30       ?getHalfSideExtent@BoxController@Cct@physx@@UEBAMXZ 0000000180003c30 f   CctBoxController.obj
 0001:00002c40       ?getHalfForwardExtent@BoxController@Cct@physx@@UEBAMXZ 0000000180003c40 f   CctBoxController.obj
 0001:00002c50       ?setHalfHeight@BoxController@Cct@physx@@UEAA_NM@Z 0000000180003c50 f   CctBoxController.obj
 0001:00002c70       ?setHalfSideExtent@BoxController@Cct@physx@@UEAA_NM@Z 0000000180003c70 f   CctBoxController.obj
 0001:00002c90       ?setHalfForwardExtent@BoxController@Cct@physx@@UEAA_NM@Z 0000000180003c90 f   CctBoxController.obj
 0001:00002cb0       ?updateKinematicProxy@BoxController@Cct@physx@@QEAA_NXZ 0000000180003cb0 f   CctBoxController.obj
 0001:00002d50       ?getOBB@BoxController@Cct@physx@@QEBAXAEAVPxExtendedBox@3@@Z 0000000180003d50 f   CctBoxController.obj
 0001:00002fd0       ??0Allocator@shdfnd@physx@@QEAA@PEBD@Z 0000000180003fd0 f i CctBoxController.obj
 0001:00002fe0       ??0PxControllerManager@physx@@IEAA@XZ 0000000180003fe0 f i CctBoxController.obj
 0001:00003000       ??0PxControllerManager@physx@@QEAA@AEBV01@@Z 0000000180004000 f i CctBoxController.obj
 0001:00003020       ??0PxFoundation@physx@@QEAA@AEBV01@@Z 0000000180004020 f i CctBoxController.obj
 0001:00003040       ??0PxFoundation@physx@@QEAA@XZ 0000000180004040 f i CctBoxController.obj
 0001:00003060       ??1PxBoxController@physx@@MEAA@XZ 0000000180004060 f i CctBoxController.obj
 0001:00003070       ??1PxController@physx@@MEAA@XZ 0000000180004070 f i CctBoxController.obj
 0001:00003080       ??1PxControllerManager@physx@@MEAA@XZ 0000000180004080 f i CctBoxController.obj
 0001:00003090       ??1PxFoundation@physx@@MEAA@XZ 0000000180004090 f i CctBoxController.obj
 0001:000030a0       ??4Allocator@shdfnd@physx@@QEAAAEAV012@$$QEAV012@@Z 00000001800040a0 f i CctBoxController.obj
 0001:000030b0       ??4Allocator@shdfnd@physx@@QEAAAEAV012@AEBV012@@Z 00000001800040b0 f i CctBoxController.obj
 0001:000030c0       ??4MutexImpl@shdfnd@physx@@QEAAAEAV012@AEBV012@@Z 00000001800040c0 f i CctBoxController.obj
 0001:000030d0       ??4PxControllerManager@physx@@QEAAAEAV01@AEBV01@@Z 00000001800040d0 f i CctBoxController.obj
 0001:000030e0       ??4PxFoundation@physx@@QEAAAEAV01@AEBV01@@Z 00000001800040e0 f i CctBoxController.obj
 0001:000030e4       ??_EBoxController@Cct@physx@@W7EAAPEAXI@Z 00000001800040e4 f i CctBoxController.obj
 0001:000030f0       ??_EPxControllerManager@physx@@MEAAPEAXI@Z 00000001800040f0 f i CctBoxController.obj
 0001:000031a0       ??_EPxFoundation@physx@@MEAAPEAXI@Z 00000001800041a0 f i CctBoxController.obj
 0001:00003250       ??_FAllocator@shdfnd@physx@@QEAAXXZ 0000000180004250 f i CctBoxController.obj
 0001:00003260       ??_FNamedAllocator@shdfnd@physx@@QEAAXXZ 0000000180004260 f i CctBoxController.obj
 0001:00003270       ??_EBoxController@Cct@physx@@UEAAPEAXI@Z 0000000180004270 f i CctBoxController.obj
 0001:00003270       ??_GBoxController@Cct@physx@@UEAAPEAXI@Z 0000000180004270 f i CctBoxController.obj
 0001:00003310       ??_EPxBoxController@physx@@MEAAPEAXI@Z 0000000180004310 f i CctBoxController.obj
 0001:00003310       ??_GPxBoxController@physx@@MEAAPEAXI@Z 0000000180004310 f i CctBoxController.obj
 0001:00003350       ??_GPxController@physx@@MEAAPEAXI@Z 0000000180004350 f i CctBoxController.obj
 0001:00003350       ??_EPxController@physx@@MEAAPEAXI@Z 0000000180004350 f i CctBoxController.obj
 0001:00003390       ??_GPxControllerManager@physx@@MEAAPEAXI@Z 0000000180004390 f i CctBoxController.obj
 0001:000033d0       ??_GPxFoundation@physx@@MEAAPEAXI@Z 00000001800043d0 f i CctBoxController.obj
 0001:00003410       ??_H@YAXPEAX_K1P6APEAX0@Z@Z 0000000180004410 f i CctBoxController.obj
 0001:00003470       ??_I@YAXPEAX_K1P6AX0@Z@Z   0000000180004470 f i CctBoxController.obj
 0001:000034e0       ?__empty_global_delete@@YAXPEAX@Z 00000001800044e0 f i CctBoxController.obj
 0001:000034f0       ?__empty_global_delete@@YAXPEAX_K@Z 00000001800044f0 f i CctBoxController.obj
 0001:000034f0       ?__global_delete@@YAXPEAX_K@Z 00000001800044f0 f i CctBoxController.obj
 0001:00003500       ?getActor@BoxController@Cct@physx@@UEBAPEAVPxRigidDynamic@3@XZ 0000000180004500 f i CctBoxController.obj
 0001:00003510       ?getContactOffset@BoxController@Cct@physx@@UEBAMXZ 0000000180004510 f i CctBoxController.obj
 0001:00003520       ?getHalfHeightInternal@BoxController@Cct@physx@@UEBAMXZ 0000000180004520 f i CctBoxController.obj
 0001:00003530       ?getNonWalkableMode@BoxController@Cct@physx@@UEBA?AW4Enum@PxControllerNonWalkableMode@3@XZ 0000000180004530 f i CctBoxController.obj
 0001:00003540       ?getPosition@BoxController@Cct@physx@@UEBAAEBUPxExtendedVec3@3@XZ 0000000180004540 f i CctBoxController.obj
 0001:00003550       ?getPxController@BoxController@Cct@physx@@UEAAPEAVPxController@3@XZ 0000000180004550 f i CctBoxController.obj
 0001:00003560       ?getScene@BoxController@Cct@physx@@UEAAPEAVPxScene@3@XZ 0000000180004560 f i CctBoxController.obj
 0001:00003570       ?getSlopeLimit@BoxController@Cct@physx@@UEBAMXZ 0000000180004570 f i CctBoxController.obj
 0001:00003580       ?getState@BoxController@Cct@physx@@UEBAXAEAUPxControllerState@3@@Z 0000000180004580 f i CctBoxController.obj
 0001:00003590       ?getStats@BoxController@Cct@physx@@UEBAXAEAUPxControllerStats@3@@Z 0000000180004590 f i CctBoxController.obj
 0001:000035a0       ?getStepOffset@BoxController@Cct@physx@@UEBAMXZ 00000001800045a0 f i CctBoxController.obj
 0001:000035b0       ?getType@BoxController@Cct@physx@@UEBA?AW4Enum@PxControllerShapeType@3@XZ 00000001800045b0 f i CctBoxController.obj
 0001:000035c0       ?getUpDirection@BoxController@Cct@physx@@UEBA?AVPxVec3@3@XZ 00000001800045c0 f i CctBoxController.obj
 0001:000035e0       ?getUserData@BoxController@Cct@physx@@UEBAPEAXXZ 00000001800045e0 f i CctBoxController.obj
 0001:000035f0       ?release@BoxController@Cct@physx@@UEAAXXZ 00000001800045f0 f i CctBoxController.obj
 0001:00003600       ?setContactOffset@BoxController@Cct@physx@@UEAAXM@Z 0000000180004600 f i CctBoxController.obj
 0001:00003620       ?setNonWalkableMode@BoxController@Cct@physx@@UEAAXW4Enum@PxControllerNonWalkableMode@3@@Z 0000000180004620 f i CctBoxController.obj
 0001:00003630       ?setPosition@BoxController@Cct@physx@@UEAA_NAEBUPxExtendedVec3@3@@Z 0000000180004630 f i CctBoxController.obj
 0001:00003640       ?setSlopeLimit@BoxController@Cct@physx@@UEAAXM@Z 0000000180004640 f i CctBoxController.obj
 0001:00003660       ?setStepOffset@BoxController@Cct@physx@@UEAAXM@Z 0000000180004660 f i CctBoxController.obj
 0001:00003680       ?setUpDirection@BoxController@Cct@physx@@UEAAXAEBVPxVec3@3@@Z 0000000180004680 f i CctBoxController.obj
 0001:00003690       ?setUserData@BoxController@Cct@physx@@UEAAXPEAX@Z 0000000180004690 f i CctBoxController.obj
 0001:000036a0       ??0CapsuleController@Cct@physx@@QEAA@AEBVPxControllerDesc@2@AEAVPxPhysics@2@PEAVPxScene@2@@Z 00000001800046a0 f   CctCapsuleController.obj
 0001:00003790       ??1CapsuleController@Cct@physx@@UEAA@XZ 0000000180004790 f   CctCapsuleController.obj
 0001:000037d0       ?getWorldBox@CapsuleController@Cct@physx@@UEBA_NAEAUPxExtendedBounds3@3@@Z 00000001800047d0 f   CctCapsuleController.obj
 0001:00003880       ?setFootPosition@CapsuleController@Cct@physx@@UEAA_NAEBUPxExtendedVec3@3@@Z 0000000180004880 f   CctCapsuleController.obj
 0001:00003910       ?getFootPosition@CapsuleController@Cct@physx@@UEBA?AUPxExtendedVec3@3@XZ 0000000180004910 f   CctCapsuleController.obj
 0001:000039a0       ?invalidateCache@CapsuleController@Cct@physx@@UEAAXXZ 00000001800049a0 f   CctCapsuleController.obj
 0001:00003a00       ?resize@CapsuleController@Cct@physx@@UEAAXM@Z 0000000180004a00 f   CctCapsuleController.obj
 0001:00003ad0       ?getClimbingMode@CapsuleController@Cct@physx@@UEBA?AW4Enum@PxCapsuleClimbingMode@3@XZ 0000000180004ad0 f   CctCapsuleController.obj
 0001:00003ae0       ?setRadius@CapsuleController@Cct@physx@@UEAA_NM@Z 0000000180004ae0 f   CctCapsuleController.obj
 0001:00003b70       ?setHeight@CapsuleController@Cct@physx@@UEAA_NM@Z 0000000180004b70 f   CctCapsuleController.obj
 0001:00003c10       ?setClimbingMode@CapsuleController@Cct@physx@@UEAA_NW4Enum@PxCapsuleClimbingMode@3@@Z 0000000180004c10 f   CctCapsuleController.obj
 0001:00003c30       ?getCapsule@CapsuleController@Cct@physx@@QEBAXAEAUPxExtendedCapsule@3@@Z 0000000180004c30 f   CctCapsuleController.obj
 0001:00003eb0       ??1PxCapsuleController@physx@@MEAA@XZ 0000000180004eb0 f i CctCapsuleController.obj
 0001:00003ec0       ??_ECapsuleController@Cct@physx@@W7EAAPEAXI@Z 0000000180004ec0 f i CctCapsuleController.obj
 0001:00003ed0       ??_ECapsuleController@Cct@physx@@UEAAPEAXI@Z 0000000180004ed0 f i CctCapsuleController.obj
 0001:00003ed0       ??_GCapsuleController@Cct@physx@@UEAAPEAXI@Z 0000000180004ed0 f i CctCapsuleController.obj
 0001:00003f70       ??_GPxCapsuleController@physx@@MEAAPEAXI@Z 0000000180004f70 f i CctCapsuleController.obj
 0001:00003f70       ??_EPxCapsuleController@physx@@MEAAPEAXI@Z 0000000180004f70 f i CctCapsuleController.obj
 0001:00003fb0       ?getActor@CapsuleController@Cct@physx@@UEBAPEAVPxRigidDynamic@3@XZ 0000000180004fb0 f i CctCapsuleController.obj
 0001:00003fc0       ?getContactOffset@CapsuleController@Cct@physx@@UEBAMXZ 0000000180004fc0 f i CctCapsuleController.obj
 0001:00003fd0       ?getHalfHeightInternal@CapsuleController@Cct@physx@@UEBAMXZ 0000000180004fd0 f i CctCapsuleController.obj
 0001:00003ff0       ?getHeight@CapsuleController@Cct@physx@@UEBAMXZ 0000000180004ff0 f i CctCapsuleController.obj
 0001:00004000       ?getNonWalkableMode@CapsuleController@Cct@physx@@UEBA?AW4Enum@PxControllerNonWalkableMode@3@XZ 0000000180005000 f i CctCapsuleController.obj
 0001:00004010       ?getPosition@CapsuleController@Cct@physx@@UEBAAEBUPxExtendedVec3@3@XZ 0000000180005010 f i CctCapsuleController.obj
 0001:00004020       ?getPxController@CapsuleController@Cct@physx@@UEAAPEAVPxController@3@XZ 0000000180005020 f i CctCapsuleController.obj
 0001:00004030       ?getRadius@CapsuleController@Cct@physx@@UEBAMXZ 0000000180005030 f i CctCapsuleController.obj
 0001:00004040       ?getScene@CapsuleController@Cct@physx@@UEAAPEAVPxScene@3@XZ 0000000180005040 f i CctCapsuleController.obj
 0001:00004050       ?getSlopeLimit@CapsuleController@Cct@physx@@UEBAMXZ 0000000180005050 f i CctCapsuleController.obj
 0001:00004060       ?getState@CapsuleController@Cct@physx@@UEBAXAEAUPxControllerState@3@@Z 0000000180005060 f i CctCapsuleController.obj
 0001:00004070       ?getStats@CapsuleController@Cct@physx@@UEBAXAEAUPxControllerStats@3@@Z 0000000180005070 f i CctCapsuleController.obj
 0001:00004080       ?getStepOffset@CapsuleController@Cct@physx@@UEBAMXZ 0000000180005080 f i CctCapsuleController.obj
 0001:00004090       ?getType@CapsuleController@Cct@physx@@UEBA?AW4Enum@PxControllerShapeType@3@XZ 0000000180005090 f i CctCapsuleController.obj
 0001:000040a0       ?getUpDirection@CapsuleController@Cct@physx@@UEBA?AVPxVec3@3@XZ 00000001800050a0 f i CctCapsuleController.obj
 0001:000040c0       ?getUserData@CapsuleController@Cct@physx@@UEBAPEAXXZ 00000001800050c0 f i CctCapsuleController.obj
 0001:000040d0       ?release@CapsuleController@Cct@physx@@UEAAXXZ 00000001800050d0 f i CctCapsuleController.obj
 0001:000040e0       ?setContactOffset@CapsuleController@Cct@physx@@UEAAXM@Z 00000001800050e0 f i CctCapsuleController.obj
 0001:00004100       ?setNonWalkableMode@CapsuleController@Cct@physx@@UEAAXW4Enum@PxControllerNonWalkableMode@3@@Z 0000000180005100 f i CctCapsuleController.obj
 0001:00004110       ?setPosition@CapsuleController@Cct@physx@@UEAA_NAEBUPxExtendedVec3@3@@Z 0000000180005110 f i CctCapsuleController.obj
 0001:00004120       ?setSlopeLimit@CapsuleController@Cct@physx@@UEAAXM@Z 0000000180005120 f i CctCapsuleController.obj
 0001:00004140       ?setStepOffset@CapsuleController@Cct@physx@@UEAAXM@Z 0000000180005140 f i CctCapsuleController.obj
 0001:00004160       ?setUpDirection@CapsuleController@Cct@physx@@UEAAXAEBVPxVec3@3@@Z 0000000180005160 f i CctCapsuleController.obj
 0001:00004170       ?setUserData@CapsuleController@Cct@physx@@UEAAXPEAX@Z 0000000180005170 f i CctCapsuleController.obj
 0001:00004180       ??0CCTParams@Cct@physx@@QEAA@XZ 0000000180005180 f   CctCharacterController.obj
 0001:000041c0       ??0SweepTest@Cct@physx@@QEAA@_N@Z 00000001800051c0 f   CctCharacterController.obj
 0001:000043d0       ??1SweepTest@Cct@physx@@QEAA@XZ 00000001800053d0 f   CctCharacterController.obj
 0001:000044b0       ?moveCharacter@SweepTest@Cct@physx@@QEAA?AV?$PxFlags@W4Enum@PxControllerCollisionFlag@physx@@E@3@PEBUInternalCBData_FindTouchedGeom@23@PEAUInternalCBData_OnHit@23@AEAVSweptVolume@23@AEBVPxVec3@3@AEBUUserObstacles@23@MAEBVPxControllerFilters@3@_N6AEAPEBVPxRigidActor@3@AEAPEBVPxShape@3@_K@Z 00000001800054b0 f   CctCharacterController.obj
 0001:00005040       ?doSweepTest@SweepTest@Cct@physx@@QEAA_NPEBUInternalCBData_FindTouchedGeom@23@PEAUInternalCBData_OnHit@23@AEBUUserObstacles@23@AEAVSweptVolume@23@AEBVPxVec3@3@4IPEAIMAEBVPxControllerFilters@3@W4SweepPass@23@AEAPEBVPxRigidActor@3@AEAPEBVPxShape@3@_K@Z 0000000180006040 f   CctCharacterController.obj
 0001:00005f10       ?findTouchedObstacles@SweepTest@Cct@physx@@QEAAXAEBUUserObstacles@23@AEBUPxExtendedBounds3@3@@Z 0000000180006f10 f   CctCharacterController.obj
 0001:00006640       ?voidTestCache@SweepTest@Cct@physx@@QEAAXXZ 0000000180007640 f   CctCharacterController.obj
 0001:000066f0       ?onRelease@SweepTest@Cct@physx@@QEAAXAEBVPxBase@3@@Z 00000001800076f0 f   CctCharacterController.obj
 0001:00006800       ?updateCachedShapesRegistration@SweepTest@Cct@physx@@QEAAXI_N@Z 0000000180007800 f   CctCharacterController.obj
 0001:000068b0       ?onObstacleRemoved@SweepTest@Cct@physx@@QEAAXI@Z 00000001800078b0 f   CctCharacterController.obj
 0001:000068d0       ?onObstacleUpdated@SweepTest@Cct@physx@@QEAAXIPEBVPxObstacleContext@3@AEBVPxVec3@3@1M@Z 00000001800078d0 f   CctCharacterController.obj
 0001:00006a00       ?onObstacleAdded@SweepTest@Cct@physx@@QEAAXIPEBVPxObstacleContext@3@AEBVPxVec3@3@1M@Z 0000000180007a00 f   CctCharacterController.obj
 0001:00006bb0       ?onOriginShift@SweepTest@Cct@physx@@QEAAXAEBVPxVec3@3@@Z 0000000180007bb0 f   CctCharacterController.obj
 0001:00006d50       ?updateTouchedGeoms@SweepTest@Cct@physx@@AEAAXPEBUInternalCBData_FindTouchedGeom@23@AEBUUserObstacles@23@AEBUPxExtendedBounds3@3@AEBVPxControllerFilters@3@AEBVPxVec3@3@@Z 0000000180007d50 f   CctCharacterController.obj
 0001:000076c0       ?findTouchedObject@Controller@Cct@physx@@IEAAXAEBVPxControllerFilters@3@PEBVPxObstacleContext@3@AEBVPxVec3@3@@Z 00000001800086c0 f   CctCharacterController.obj
 0001:00007d10       ?rideOnTouchedObject@Controller@Cct@physx@@IEAA_NAEAVSweptVolume@23@AEBVPxVec3@3@AEAV53@PEBVPxObstacleContext@3@@Z 0000000180008d10 f   CctCharacterController.obj
 0001:000082a0       ?move@Controller@Cct@physx@@IEAA?AV?$PxFlags@W4Enum@PxControllerCollisionFlag@physx@@E@3@AEAVSweptVolume@23@AEBVPxVec3@3@MMAEBVPxControllerFilters@3@PEBVPxObstacleContext@3@_N@Z 00000001800092a0 f   CctCharacterController.obj
 0001:00009480       ?filterTouchedShape@Controller@Cct@physx@@IEAA_NAEBVPxControllerFilters@3@@Z 000000018000a480 f   CctCharacterController.obj
 0001:0000ad60       ?move@BoxController@Cct@physx@@UEAA?AV?$PxFlags@W4Enum@PxControllerCollisionFlag@physx@@E@3@AEBVPxVec3@3@MMAEBVPxControllerFilters@3@PEBVPxObstacleContext@3@@Z 000000018000bd60 f   CctCharacterController.obj
 0001:0000af20       ?move@CapsuleController@Cct@physx@@UEAA?AV?$PxFlags@W4Enum@PxControllerCollisionFlag@physx@@E@3@AEBVPxVec3@3@MMAEBVPxControllerFilters@3@PEBVPxObstacleContext@3@@Z 000000018000bf20 f   CctCharacterController.obj
 0001:0000cd20       ??0PxMat33@physx@@QEAA@AEBV01@@Z 000000018000dd20 f i CctCharacterController.obj
 0001:0000cd70       ??0PxVec3@physx@@QEAA@XZ   000000018000dd70 f i CctCharacterController.obj
 0001:0000cd80       ??1?$PxHitBuffer@UPxRaycastHit@physx@@@physx@@UEAA@XZ 000000018000dd80 f i CctCharacterController.obj
 0001:0000cd90       ??1?$PxHitCallback@UPxRaycastHit@physx@@@physx@@UEAA@XZ 000000018000dd90 f i CctCharacterController.obj
 0001:0000cda0       ??1PxQueryFilterCallback@physx@@UEAA@XZ 000000018000dda0 f i CctCharacterController.obj
 0001:0000cdb0       ??4FPUGuard@shdfnd@physx@@QEAAAEAV012@AEBV012@@Z 000000018000ddb0 f i CctCharacterController.obj
 0001:0000cdd0       ??DPxQuat@physx@@QEBA?AV01@AEBV01@@Z 000000018000ddd0 f i CctCharacterController.obj
 0001:0000cf50       ??_G?$PxHitBuffer@UPxRaycastHit@physx@@@physx@@UEAAPEAXI@Z 000000018000df50 f i CctCharacterController.obj
 0001:0000cf50       ??_E?$PxHitBuffer@UPxRaycastHit@physx@@@physx@@UEAAPEAXI@Z 000000018000df50 f i CctCharacterController.obj
 0001:0000cf90       ??_E?$PxHitCallback@UPxRaycastHit@physx@@@physx@@UEAAPEAXI@Z 000000018000df90 f i CctCharacterController.obj
 0001:0000cf90       ??_G?$PxHitCallback@UPxRaycastHit@physx@@@physx@@UEAAPEAXI@Z 000000018000df90 f i CctCharacterController.obj
 0001:0000cfd0       ??_GControllerFilter@@UEAAPEAXI@Z 000000018000dfd0 f i CctCharacterController.obj
 0001:0000cfd0       ??_EControllerFilter@@UEAAPEAXI@Z 000000018000dfd0 f i CctCharacterController.obj
 0001:0000d010       ??_EPxQueryFilterCallback@physx@@UEAAPEAXI@Z 000000018000e010 f i CctCharacterController.obj
 0001:0000d010       ??_GPxQueryFilterCallback@physx@@UEAAPEAXI@Z 000000018000e010 f i CctCharacterController.obj
 0001:0000d9d0       ?finalizeQuery@?$PxHitCallback@UPxRaycastHit@physx@@@physx@@UEAAXXZ 000000018000e9d0 f i CctCharacterController.obj
 0001:0000d9e0       ?getShapeGlobalPose@physx@@YA?AVPxTransform@1@AEBVPxShape@1@AEBVPxRigidActor@1@@Z 000000018000e9e0 f i CctCharacterController.obj
 0001:0000dc30       ?growAndPushBack@?$Array@PEBXVNamedAllocator@shdfnd@physx@@@shdfnd@physx@@IEAAAEAPEBXAEBQEBX@Z 000000018000ec30 f i CctCharacterController.obj
 0001:0000dd60       ?growAndPushBack@?$Array@UPxExtendedCapsule@physx@@VNamedAllocator@shdfnd@2@@shdfnd@physx@@IEAAAEAUPxExtendedCapsule@3@AEBU43@@Z 000000018000ed60 f i CctCharacterController.obj
 0001:0000dec0       ?growAndPushBack@?$Array@VPxExtendedBox@physx@@VNamedAllocator@shdfnd@2@@shdfnd@physx@@IEAAAEAVPxExtendedBox@3@AEBV43@@Z 000000018000eec0 f i CctCharacterController.obj
 0001:0000e2b0       ?postFilter@ControllerFilter@@UEAA?AW4Enum@PxQueryHitType@physx@@AEBUPxFilterData@4@AEBUPxQueryHit@4@@Z 000000018000f2b0 f i CctCharacterController.obj
 0001:0000e2d0       ?preFilter@ControllerFilter@@UEAA?AW4Enum@PxQueryHitType@physx@@AEBUPxFilterData@4@PEBVPxShape@4@PEBVPxRigidActor@4@AEAV?$PxFlags@W4Enum@PxHitFlag@physx@@G@4@@Z 000000018000f2d0 f i CctCharacterController.obj
 0001:0000e440       ?processTouches@?$PxHitBuffer@UPxRaycastHit@physx@@@physx@@MEAA_NPEBUPxRaycastHit@2@I@Z 000000018000f440 f i CctCharacterController.obj
 0001:0000e450       ?recreate@?$Array@IVNamedAllocator@shdfnd@physx@@@shdfnd@physx@@IEAAXI@Z 000000018000f450 f i CctCharacterController.obj
 0001:0000e960       ?getSceneTimestamp@Cct@physx@@YAIPEBUInternalCBData_FindTouchedGeom@12@@Z 000000018000f960 f   CctCharacterControllerCallbacks.obj
 0001:0000e980       ?findTouchedGeometry@Cct@physx@@YAXPEBUInternalCBData_FindTouchedGeom@12@AEBUPxExtendedBounds3@2@AEAVTriArray@12@AEAV?$Array@IVNamedAllocator@shdfnd@physx@@@shdfnd@2@3AEBVCCTFilter@12@AEBUCCTParams@12@AEAG@Z 000000018000f980 f   CctCharacterControllerCallbacks.obj
 0001:0000f9a0       ?shapeHitCallback@Cct@physx@@YAIPEBUInternalCBData_OnHit@12@AEBUSweptContact@12@AEBVPxVec3@2@M@Z 00000001800109a0 f   CctCharacterControllerCallbacks.obj
 0001:0000fab0       ?userHitCallback@Cct@physx@@YAIPEBUInternalCBData_OnHit@12@AEBUSweptContact@12@AEBVPxVec3@2@M@Z 0000000180010ab0 f   CctCharacterControllerCallbacks.obj
 0001:00010220       ??0PxOverlapHit@physx@@QEAA@XZ 0000000180011220 f i CctCharacterControllerCallbacks.obj
 0001:00010240       ??1?$PxHitBuffer@UPxOverlapHit@physx@@@physx@@UEAA@XZ 0000000180011240 f i CctCharacterControllerCallbacks.obj
 0001:00010250       ??1?$PxHitCallback@UPxOverlapHit@physx@@@physx@@UEAA@XZ 0000000180011250 f i CctCharacterControllerCallbacks.obj
 0001:00010260       ??_G?$PxHitBuffer@UPxOverlapHit@physx@@@physx@@UEAAPEAXI@Z 0000000180011260 f i CctCharacterControllerCallbacks.obj
 0001:00010260       ??_E?$PxHitBuffer@UPxOverlapHit@physx@@@physx@@UEAAPEAXI@Z 0000000180011260 f i CctCharacterControllerCallbacks.obj
 0001:000102a0       ??_E?$PxHitCallback@UPxOverlapHit@physx@@@physx@@UEAAPEAXI@Z 00000001800112a0 f i CctCharacterControllerCallbacks.obj
 0001:000102a0       ??_G?$PxHitCallback@UPxOverlapHit@physx@@@physx@@UEAAPEAXI@Z 00000001800112a0 f i CctCharacterControllerCallbacks.obj
 0001:00010b30       ?finalizeQuery@?$PxHitCallback@UPxOverlapHit@physx@@@physx@@UEAAXXZ 0000000180011b30 f i CctCharacterControllerCallbacks.obj
 0001:00010b40       ?growAndPushBack@?$Array@IVNamedAllocator@shdfnd@physx@@@shdfnd@physx@@IEAAAEAIAEBI@Z 0000000180011b40 f i CctCharacterControllerCallbacks.obj
 0001:00015130       ?processTouches@?$PxHitBuffer@UPxOverlapHit@physx@@@physx@@MEAA_NPEBUPxOverlapHit@2@I@Z 0000000180016130 f i CctCharacterControllerCallbacks.obj
 0001:00015140       ?recreate@?$Array@VPxTriangle@physx@@VNamedAllocator@shdfnd@2@@shdfnd@physx@@IEAAXI@Z 0000000180016140 f i CctCharacterControllerCallbacks.obj
 0001:00015940       PxCreateControllerManager  0000000180016940 f   CctCharacterControllerManager.obj
 0001:000159f0       ??0CharacterControllerManager@Cct@physx@@QEAA@AEAVPxScene@2@_N@Z 00000001800169f0 f   CctCharacterControllerManager.obj
 0001:00015c80       ??1CharacterControllerManager@Cct@physx@@UEAA@XZ 0000000180016c80 f   CctCharacterControllerManager.obj
 0001:00015e30       ?release@CharacterControllerManager@Cct@physx@@UEAAXXZ 0000000180016e30 f   CctCharacterControllerManager.obj
 0001:00016090       ?getScene@CharacterControllerManager@Cct@physx@@UEBAAEAVPxScene@3@XZ 0000000180017090 f   CctCharacterControllerManager.obj
 0001:000160a0       ?getNbControllers@CharacterControllerManager@Cct@physx@@UEBAIXZ 00000001800170a0 f   CctCharacterControllerManager.obj
 0001:000160b0       ?getController@CharacterControllerManager@Cct@physx@@UEAAPEAVPxController@3@I@Z 00000001800170b0 f   CctCharacterControllerManager.obj
 0001:00016110       ?createController@CharacterControllerManager@Cct@physx@@UEAAPEAVPxController@3@AEBVPxControllerDesc@3@@Z 0000000180017110 f   CctCharacterControllerManager.obj
 0001:00016330       ?purgeControllers@CharacterControllerManager@Cct@physx@@UEAAXXZ 0000000180017330 f   CctCharacterControllerManager.obj
 0001:00016530       ?getRenderBuffer@CharacterControllerManager@Cct@physx@@UEAAAEAVPxRenderBuffer@3@XZ 0000000180017530 f   CctCharacterControllerManager.obj
 0001:00016700       ?setDebugRenderingFlags@CharacterControllerManager@Cct@physx@@UEAAXV?$PxFlags@W4Enum@PxControllerDebugRenderFlag@physx@@I@3@@Z 0000000180017700 f   CctCharacterControllerManager.obj
 0001:00016740       ?getNbObstacleContexts@CharacterControllerManager@Cct@physx@@UEBAIXZ 0000000180017740 f   CctCharacterControllerManager.obj
 0001:00016750       ?getObstacleContext@CharacterControllerManager@Cct@physx@@UEAAPEAVPxObstacleContext@3@I@Z 0000000180017750 f   CctCharacterControllerManager.obj
 0001:000167b0       ?createObstacleContext@CharacterControllerManager@Cct@physx@@UEAAPEAVPxObstacleContext@3@XZ 00000001800177b0 f   CctCharacterControllerManager.obj
 0001:00016890       ?computeInteractions@CharacterControllerManager@Cct@physx@@UEAAXMPEAVPxControllerFilterCallback@3@@Z 0000000180017890 f   CctCharacterControllerManager.obj
 0001:00016ad0       ?setTessellation@CharacterControllerManager@Cct@physx@@UEAAX_NM@Z 0000000180017ad0 f   CctCharacterControllerManager.obj
 0001:00016af0       ?setOverlapRecoveryModule@CharacterControllerManager@Cct@physx@@UEAAX_N@Z 0000000180017af0 f   CctCharacterControllerManager.obj
 0001:00016b00       ?setPreciseSweeps@CharacterControllerManager@Cct@physx@@UEAAX_N@Z 0000000180017b00 f   CctCharacterControllerManager.obj
 0001:00016b10       ?setPreventVerticalSlidingAgainstCeiling@CharacterControllerManager@Cct@physx@@UEAAX_N@Z 0000000180017b10 f   CctCharacterControllerManager.obj
 0001:00016b20       ?shiftOrigin@CharacterControllerManager@Cct@physx@@UEAAXAEBVPxVec3@3@@Z 0000000180017b20 f   CctCharacterControllerManager.obj
 0001:00016bf0       ?onRelease@CharacterControllerManager@Cct@physx@@UEAAXPEBVPxBase@3@PEAXW4Enum@PxDeletionEventFlag@3@@Z 0000000180017bf0 f   CctCharacterControllerManager.obj
 0001:00016d80       ?registerObservedObject@CharacterControllerManager@Cct@physx@@QEAAXPEBVPxBase@3@@Z 0000000180017d80 f   CctCharacterControllerManager.obj
 0001:00016e00       ?unregisterObservedObject@CharacterControllerManager@Cct@physx@@QEAAXPEBVPxBase@3@@Z 0000000180017e00 f   CctCharacterControllerManager.obj
 0001:00016ea0       ?onObstacleRemoved@CharacterControllerManager@Cct@physx@@QEBAXI@Z 0000000180017ea0 f   CctCharacterControllerManager.obj
 0001:00016ef0       ?onObstacleUpdated@CharacterControllerManager@Cct@physx@@QEBAXIPEBVPxObstacleContext@3@@Z 0000000180017ef0 f   CctCharacterControllerManager.obj
 0001:00017010       ?onObstacleAdded@CharacterControllerManager@Cct@physx@@QEBAXIPEBVPxObstacleContext@3@@Z 0000000180018010 f   CctCharacterControllerManager.obj
 0001:00017130       ?releaseController@CharacterControllerManager@Cct@physx@@QEAAXAEAVPxController@3@@Z 0000000180018130 f   CctCharacterControllerManager.obj
 0001:000172f0       ?getControllers@CharacterControllerManager@Cct@physx@@QEAAPEAPEAVController@23@XZ 00000001800182f0 f   CctCharacterControllerManager.obj
 0001:00017300       ?releaseObstacleContext@CharacterControllerManager@Cct@physx@@QEAAXAEAVObstacleContext@23@@Z 0000000180018300 f   CctCharacterControllerManager.obj
 0001:00017370       ?resetObstaclesBuffers@CharacterControllerManager@Cct@physx@@QEAAXXZ 0000000180018370 f   CctCharacterControllerManager.obj
 0001:00017b80       ??$resetOrClear@V?$Array@PEBXVNamedAllocator@shdfnd@physx@@@shdfnd@physx@@@@YAXAEAV?$Array@PEBXVNamedAllocator@shdfnd@physx@@@shdfnd@physx@@@Z 0000000180018b80 f i CctCharacterControllerManager.obj
 0001:00017bf0       ??$resetOrClear@V?$Array@UPxExtendedCapsule@physx@@VNamedAllocator@shdfnd@2@@shdfnd@physx@@@@YAXAEAV?$Array@UPxExtendedCapsule@physx@@VNamedAllocator@shdfnd@2@@shdfnd@physx@@@Z 0000000180018bf0 f i CctCharacterControllerManager.obj
 0001:00017c80       ??$resetOrClear@V?$Array@VPxExtendedBox@physx@@VNamedAllocator@shdfnd@2@@shdfnd@physx@@@@YAXAEAV?$Array@VPxExtendedBox@physx@@VNamedAllocator@shdfnd@2@@shdfnd@physx@@@Z 0000000180018c80 f i CctCharacterControllerManager.obj
 0001:00017ce0       ??1PxDeletionListener@physx@@MEAA@XZ 0000000180018ce0 f i CctCharacterControllerManager.obj
 0001:00017cf0       ??1PxRenderBuffer@physx@@UEAA@XZ 0000000180018cf0 f i CctCharacterControllerManager.obj
 0001:00017d00       ??_ECharacterControllerManager@Cct@physx@@W7EAAPEAXI@Z 0000000180018d00 f i CctCharacterControllerManager.obj
 0001:00017d10       ??_ECharacterControllerManager@Cct@physx@@UEAAPEAXI@Z 0000000180018d10 f i CctCharacterControllerManager.obj
 0001:00017d10       ??_GCharacterControllerManager@Cct@physx@@UEAAPEAXI@Z 0000000180018d10 f i CctCharacterControllerManager.obj
 0001:00017d90       ??_EPxDeletionListener@physx@@MEAAPEAXI@Z 0000000180018d90 f i CctCharacterControllerManager.obj
 0001:00017d90       ??_GPxDeletionListener@physx@@MEAAPEAXI@Z 0000000180018d90 f i CctCharacterControllerManager.obj
 0001:00017dd0       ??_GPxRenderBuffer@physx@@UEAAPEAXI@Z 0000000180018dd0 f i CctCharacterControllerManager.obj
 0001:00017dd0       ??_EPxRenderBuffer@physx@@UEAAPEAXI@Z 0000000180018dd0 f i CctCharacterControllerManager.obj
 0001:00017e10       ??_GRenderBuffer@Cm@physx@@UEAAPEAXI@Z 0000000180018e10 f i CctCharacterControllerManager.obj
 0001:00017e10       ??_ERenderBuffer@Cm@physx@@UEAAPEAXI@Z 0000000180018e10 f i CctCharacterControllerManager.obj
 0001:00018d80       ?append@RenderBuffer@Cm@physx@@UEAAXAEBVPxRenderBuffer@3@@Z 0000000180019d80 f i CctCharacterControllerManager.obj
 0001:00019110       ?clear@RenderBuffer@Cm@physx@@UEAAXXZ 000000018001a110 f i CctCharacterControllerManager.obj
 0001:00019770       ?copy@?$Array@UPxDebugLine@physx@@VNamedAllocator@shdfnd@2@@shdfnd@physx@@KAXPEAUPxDebugLine@3@0PEBU43@@Z 000000018001a770 f i CctCharacterControllerManager.obj
 0001:00019990       ?copy@?$Array@UPxDebugPoint@physx@@VNamedAllocator@shdfnd@2@@shdfnd@physx@@KAXPEAUPxDebugPoint@3@0PEBU43@@Z 000000018001a990 f i CctCharacterControllerManager.obj
 0001:00019ad0       ?copy@?$Array@UPxDebugText@physx@@VNamedAllocator@shdfnd@2@@shdfnd@physx@@KAXPEAUPxDebugText@3@0PEBU43@@Z 000000018001aad0 f i CctCharacterControllerManager.obj
 0001:00019ca0       ?copy@?$Array@UPxDebugTriangle@physx@@VNamedAllocator@shdfnd@2@@shdfnd@physx@@KAXPEAUPxDebugTriangle@3@0PEBU43@@Z 000000018001aca0 f i CctCharacterControllerManager.obj
 0001:00019f20       ?create@?$HashBase@PEAVPxShape@physx@@PEAV12@U?$Hash@PEAVPxShape@physx@@@shdfnd@2@UGetKey@?$HashSetBase@PEAVPxShape@physx@@U?$Hash@PEAVPxShape@physx@@@shdfnd@2@VNonTrackingAllocator@42@$0A@@internal@42@VNonTrackingAllocator@42@$0A@@internal@shdfnd@physx@@QEAAPEAPEAVPxShape@4@AEBQEAV54@AEA_N@Z 000000018001af20 f i CctCharacterControllerManager.obj
 0001:0001a130       ?create@?$HashBase@V?$Pair@QEBVPxBase@physx@@UObservedRefCounter@Cct@2@@shdfnd@physx@@PEBVPxBase@3@U?$Hash@PEBVPxBase@physx@@@23@UGetKey@?$HashMapBase@PEBVPxBase@physx@@UObservedRefCounter@Cct@2@U?$Hash@PEBVPxBase@physx@@@shdfnd@2@VNonTrackingAllocator@62@@internal@23@VNonTrackingAllocator@23@$00@internal@shdfnd@physx@@QEAAPEAV?$Pair@QEBVPxBase@physx@@UObservedRefCounter@Cct@2@@34@AEBQEBVPxBase@4@AEA_N@Z 000000018001b130 f i CctCharacterControllerManager.obj
 0001:0001a330       ?erase@?$HashBase@V?$Pair@QEBVPxBase@physx@@UObservedRefCounter@Cct@2@@shdfnd@physx@@PEBVPxBase@3@U?$Hash@PEBVPxBase@physx@@@23@UGetKey@?$HashMapBase@PEBVPxBase@physx@@UObservedRefCounter@Cct@2@U?$Hash@PEBVPxBase@physx@@@shdfnd@2@VNonTrackingAllocator@62@@internal@23@VNonTrackingAllocator@23@$00@internal@shdfnd@physx@@QEAA_NAEBQEBVPxBase@4@@Z 000000018001b330 f i CctCharacterControllerManager.obj
 0001:0001a550       ?getAllocator@Foundation@shdfnd@physx@@QEAAAEAVPxAllocatorCallback@3@XZ 000000018001b550 f i CctCharacterControllerManager.obj
 0001:0001a560       ?getAllocatorCallback@Foundation@shdfnd@physx@@UEAAAEAVPxAllocatorCallback@3@XZ 000000018001b560 f i CctCharacterControllerManager.obj
 0001:0001a570       ?getErrorCallback@Foundation@shdfnd@physx@@UEAAAEAVPxErrorCallback@3@XZ 000000018001b570 f i CctCharacterControllerManager.obj
 0001:0001a580       ?getErrorLevel@Foundation@shdfnd@physx@@UEBA?AW4Enum@PxErrorCode@3@XZ 000000018001b580 f i CctCharacterControllerManager.obj
 0001:0001a590       ?getInternalErrorCallback@Foundation@shdfnd@physx@@QEAAAEAVPxErrorCallback@3@XZ 000000018001b590 f i CctCharacterControllerManager.obj
 0001:0001a5a0       ?getLines@RenderBuffer@Cm@physx@@UEBAPEBUPxDebugLine@3@XZ 000000018001b5a0 f i CctCharacterControllerManager.obj
 0001:0001a5b0       ?getNamedAllocMap@Foundation@shdfnd@physx@@QEAAAEAV?$HashMap@PEBVNamedAllocator@shdfnd@physx@@PEBDU?$Hash@PEBVNamedAllocator@shdfnd@physx@@@23@VNonTrackingAllocator@23@@23@XZ 000000018001b5b0 f i CctCharacterControllerManager.obj
 0001:0001a5c0       ?getNamedAllocMutex@Foundation@shdfnd@physx@@QEAAAEAV?$MutexT@VAllocator@shdfnd@physx@@@23@XZ 000000018001b5c0 f i CctCharacterControllerManager.obj
 0001:0001a5d0       ?getNbLines@RenderBuffer@Cm@physx@@UEBAIXZ 000000018001b5d0 f i CctCharacterControllerManager.obj
 0001:0001a5e0       ?getNbPoints@RenderBuffer@Cm@physx@@UEBAIXZ 000000018001b5e0 f i CctCharacterControllerManager.obj
 0001:0001a5f0       ?getNbTexts@RenderBuffer@Cm@physx@@UEBAIXZ 000000018001b5f0 f i CctCharacterControllerManager.obj
 0001:0001a600       ?getNbTriangles@RenderBuffer@Cm@physx@@UEBAIXZ 000000018001b600 f i CctCharacterControllerManager.obj
 0001:0001a610       ?getPoints@RenderBuffer@Cm@physx@@UEBAPEBUPxDebugPoint@3@XZ 000000018001b610 f i CctCharacterControllerManager.obj
 0001:0001a620       ?getReportAllocationNames@Foundation@shdfnd@physx@@UEBA_NXZ 000000018001b620 f i CctCharacterControllerManager.obj
 0001:0001a630       ?getTempAllocFreeTable@Foundation@shdfnd@physx@@QEAAAEAV?$Array@PEATTempAllocatorChunk@shdfnd@physx@@VAllocator@23@@23@XZ 000000018001b630 f i CctCharacterControllerManager.obj
 0001:0001a640       ?getTempAllocMutex@Foundation@shdfnd@physx@@QEAAAEAV?$MutexT@VAllocator@shdfnd@physx@@@23@XZ 000000018001b640 f i CctCharacterControllerManager.obj
 0001:0001a650       ?getTexts@RenderBuffer@Cm@physx@@UEBAPEBUPxDebugText@3@XZ 000000018001b650 f i CctCharacterControllerManager.obj
 0001:0001a660       ?getTriangles@RenderBuffer@Cm@physx@@UEBAPEBUPxDebugTriangle@3@XZ 000000018001b660 f i CctCharacterControllerManager.obj
 0001:0001a670       ?growAndPushBack@?$Array@PEAVController@Cct@physx@@VNamedAllocator@shdfnd@3@@shdfnd@physx@@IEAAAEAPEAVController@Cct@3@AEBQEAV453@@Z 000000018001b670 f i CctCharacterControllerManager.obj
 0001:0001a7a0       ?growAndPushBack@?$Array@PEAVObstacleContext@Cct@physx@@VNamedAllocator@shdfnd@3@@shdfnd@physx@@IEAAAEAPEAVObstacleContext@Cct@3@AEBQEAV453@@Z 000000018001b7a0 f i CctCharacterControllerManager.obj
 0001:0001a8d0       ?growAndPushBack@?$Array@UPxDebugLine@physx@@VNamedAllocator@shdfnd@2@@shdfnd@physx@@IEAAAEAUPxDebugLine@3@AEBU43@@Z 000000018001b8d0 f i CctCharacterControllerManager.obj
 0001:0001aa10       ?growAndPushBack@?$Array@UPxDebugPoint@physx@@VNamedAllocator@shdfnd@2@@shdfnd@physx@@IEAAAEAUPxDebugPoint@3@AEBU43@@Z 000000018001ba10 f i CctCharacterControllerManager.obj
 0001:0001ab20       ?growAndPushBack@?$Array@UPxDebugText@physx@@VNamedAllocator@shdfnd@2@@shdfnd@physx@@IEAAAEAUPxDebugText@3@AEBU43@@Z 000000018001bb20 f i CctCharacterControllerManager.obj
 0001:0001ac50       ?growAndPushBack@?$Array@UPxDebugTriangle@physx@@VNamedAllocator@shdfnd@2@@shdfnd@physx@@IEAAAEAUPxDebugTriangle@3@AEBU43@@Z 000000018001bc50 f i CctCharacterControllerManager.obj
 0001:0001adc0       ?recreate@?$Array@PEBXVNamedAllocator@shdfnd@physx@@@shdfnd@physx@@IEAAXI@Z 000000018001bdc0 f i CctCharacterControllerManager.obj
 0001:0001aed0       ?recreate@?$Array@UPxDebugLine@physx@@VNamedAllocator@shdfnd@2@@shdfnd@physx@@IEAAXI@Z 000000018001bed0 f i CctCharacterControllerManager.obj
 0001:0001af90       ?recreate@?$Array@UPxDebugPoint@physx@@VNamedAllocator@shdfnd@2@@shdfnd@physx@@IEAAXI@Z 000000018001bf90 f i CctCharacterControllerManager.obj
 0001:0001b050       ?recreate@?$Array@UPxDebugText@physx@@VNamedAllocator@shdfnd@2@@shdfnd@physx@@IEAAXI@Z 000000018001c050 f i CctCharacterControllerManager.obj
 0001:0001b110       ?recreate@?$Array@UPxDebugTriangle@physx@@VNamedAllocator@shdfnd@2@@shdfnd@physx@@IEAAXI@Z 000000018001c110 f i CctCharacterControllerManager.obj
 0001:0001b1e0       ?recreate@?$Array@UPxExtendedCapsule@physx@@VNamedAllocator@shdfnd@2@@shdfnd@physx@@IEAAXI@Z 000000018001c1e0 f i CctCharacterControllerManager.obj
 0001:0001b300       ?recreate@?$Array@VPxExtendedBox@physx@@VNamedAllocator@shdfnd@2@@shdfnd@physx@@IEAAXI@Z 000000018001c300 f i CctCharacterControllerManager.obj
 0001:0001b660       ?reserveInternal@?$HashBase@PEAVPxShape@physx@@PEAV12@U?$Hash@PEAVPxShape@physx@@@shdfnd@2@UGetKey@?$HashSetBase@PEAVPxShape@physx@@U?$Hash@PEAVPxShape@physx@@@shdfnd@2@VNonTrackingAllocator@42@$0A@@internal@42@VNonTrackingAllocator@42@$0A@@internal@shdfnd@physx@@AEAAXI@Z 000000018001c660 f i CctCharacterControllerManager.obj
 0001:0001bb20       ?reserveInternal@?$HashBase@V?$Pair@QEBVPxBase@physx@@UObservedRefCounter@Cct@2@@shdfnd@physx@@PEBVPxBase@3@U?$Hash@PEBVPxBase@physx@@@23@UGetKey@?$HashMapBase@PEBVPxBase@physx@@UObservedRefCounter@Cct@2@U?$Hash@PEBVPxBase@physx@@@shdfnd@2@VNonTrackingAllocator@62@@internal@23@VNonTrackingAllocator@23@$00@internal@shdfnd@physx@@AEAAXI@Z 000000018001cb20 f i CctCharacterControllerManager.obj
 0001:0001bd80       ?resize@?$Array@PEBXVNamedAllocator@shdfnd@physx@@@shdfnd@physx@@QEAAXIAEBQEBX@Z 000000018001cd80 f i CctCharacterControllerManager.obj
 0001:0001be90       ?resize@?$Array@UPxExtendedCapsule@physx@@VNamedAllocator@shdfnd@2@@shdfnd@physx@@QEAAXIAEBUPxExtendedCapsule@3@@Z 000000018001ce90 f i CctCharacterControllerManager.obj
 0001:0001bf30       ?resize@?$Array@VPxExtendedBox@physx@@VNamedAllocator@shdfnd@2@@shdfnd@physx@@QEAAXIAEBVPxExtendedBox@3@@Z 000000018001cf30 f i CctCharacterControllerManager.obj
 0001:0001c1e0       ?setErrorLevel@Foundation@shdfnd@physx@@UEAAXW4Enum@PxErrorCode@3@@Z 000000018001d1e0 f i CctCharacterControllerManager.obj
 0001:0001c1f0       ?setReportAllocationNames@Foundation@shdfnd@physx@@UEAAX_N@Z 000000018001d1f0 f i CctCharacterControllerManager.obj
 0001:0001c200       ?shift@RenderBuffer@Cm@physx@@QEAAXAEBVPxVec3@3@@Z 000000018001d200 f i CctCharacterControllerManager.obj
 0001:0001c470       ??0Controller@Cct@physx@@QEAA@AEBVPxControllerDesc@2@PEAVPxScene@2@@Z 000000018001d470 f   CctController.obj
 0001:0001c740       ??1Controller@Cct@physx@@UEAA@XZ 000000018001d740 f   CctController.obj
 0001:0001c7c0       ?releaseInternal@Controller@Cct@physx@@QEAAXXZ 000000018001d7c0 f   CctController.obj
 0001:0001c7f0       ?getInternalState@Controller@Cct@physx@@QEBAXAEAUPxControllerState@3@@Z 000000018001d7f0 f   CctController.obj
 0001:0001c8c0       ?getInternalStats@Controller@Cct@physx@@QEBAXAEAUPxControllerStats@3@@Z 000000018001d8c0 f   CctController.obj
 0001:0001c900       ?onOriginShift@Controller@Cct@physx@@QEAAXAEBVPxVec3@3@@Z 000000018001d900 f   CctController.obj
 0001:0001c9d0       ?onRelease@Controller@Cct@physx@@QEAAXAEBVPxBase@3@@Z 000000018001d9d0 f   CctController.obj
 0001:0001c9e0       ?setUpDirectionInternal@Controller@Cct@physx@@IEAAXAEBVPxVec3@3@@Z 000000018001d9e0 f   CctController.obj
 0001:0001cb10       ?getKineShape@Controller@Cct@physx@@IEBAPEAVPxShape@3@XZ 000000018001db10 f   CctController.obj
 0001:0001cb50       ?createProxyActor@Controller@Cct@physx@@IEAA_NAEAVPxPhysics@3@AEBVPxGeometry@3@AEBVPxMaterial@3@@Z 000000018001db50 f   CctController.obj
 0001:0001cc90       ?setPos@Controller@Cct@physx@@IEAA_NAEBUPxExtendedVec3@3@@Z 000000018001dc90 f   CctController.obj
 0001:0001cf60       ??_EController@Cct@physx@@UEAAPEAXI@Z 000000018001df60 f i CctController.obj
 0001:0001cf60       ??_GController@Cct@physx@@UEAAPEAXI@Z 000000018001df60 f i CctController.obj
 0001:0001d050       ??0HandleManager@Cct@physx@@QEAA@XZ 000000018001e050 f   CctObstacleContext.obj
 0001:0001d1b0       ??1HandleManager@Cct@physx@@QEAA@XZ 000000018001e1b0 f   CctObstacleContext.obj
 0001:0001d1e0       ?Add@HandleManager@Cct@physx@@QEAAIPEAX@Z 000000018001e1e0 f   CctObstacleContext.obj
 0001:0001d490       ?Remove@HandleManager@Cct@physx@@QEAAXI@Z 000000018001e490 f   CctObstacleContext.obj
 0001:0001d570       ?GetObject@HandleManager@Cct@physx@@QEBAPEAXI@Z 000000018001e570 f   CctObstacleContext.obj
 0001:0001d5d0       ?UpdateObject@HandleManager@Cct@physx@@QEAA_NIPEAX@Z 000000018001e5d0 f   CctObstacleContext.obj
 0001:0001d630       ?SetupLists@HandleManager@Cct@physx@@AEAA_NPEAPEAXPEAG11@Z 000000018001e630 f   CctObstacleContext.obj
 0001:0001d710       ??0ObstacleContext@Cct@physx@@QEAA@AEAVCharacterControllerManager@12@@Z 000000018001e710 f   CctObstacleContext.obj
 0001:0001d8e0       ??1ObstacleContext@Cct@physx@@UEAA@XZ 000000018001e8e0 f   CctObstacleContext.obj
 0001:0001d980       ?release@ObstacleContext@Cct@physx@@UEAAXXZ 000000018001e980 f   CctObstacleContext.obj
 0001:0001d9a0       ?getControllerManager@ObstacleContext@Cct@physx@@UEBAAEAVPxControllerManager@3@XZ 000000018001e9a0 f   CctObstacleContext.obj
 0001:0001d9b0       ?addObstacle@ObstacleContext@Cct@physx@@UEAAIAEBVPxObstacle@3@@Z 000000018001e9b0 f   CctObstacleContext.obj
 0001:0001dc10       ?removeObstacle@ObstacleContext@Cct@physx@@UEAA_NI@Z 000000018001ec10 f   CctObstacleContext.obj
 0001:0001ded0       ?updateObstacle@ObstacleContext@Cct@physx@@UEAA_NIAEBVPxObstacle@3@@Z 000000018001eed0 f   CctObstacleContext.obj
 0001:0001e060       ?getNbObstacles@ObstacleContext@Cct@physx@@UEBAIXZ 000000018001f060 f   CctObstacleContext.obj
 0001:0001e070       ?getObstacle@ObstacleContext@Cct@physx@@UEBAPEBVPxObstacle@3@I@Z 000000018001f070 f   CctObstacleContext.obj
 0001:0001e0c0       ?getObstacleByHandle@ObstacleContext@Cct@physx@@UEBAPEBVPxObstacle@3@I@Z 000000018001f0c0 f   CctObstacleContext.obj
 0001:0001e160       ?raycastSingle@ObstacleContext@Cct@physx@@QEBAPEBVPxObstacle@3@AEAUPxRaycastHit@3@AEBVPxVec3@3@1MAEAI@Z 000000018001f160 f   CctObstacleContext.obj
 0001:0001e480       ?raycastSingle@ObstacleContext@Cct@physx@@QEBAPEBVPxObstacle@3@AEAUPxRaycastHit@3@AEBIAEBVPxVec3@3@2M@Z 000000018001f480 f   CctObstacleContext.obj
 0001:0001e690       ?onOriginShift@ObstacleContext@Cct@physx@@QEAAXAEBVPxVec3@3@@Z 000000018001f690 f   CctObstacleContext.obj
 0001:0001ed30       ??1PxObstacleContext@physx@@UEAA@XZ 000000018001fd30 f i CctObstacleContext.obj
 0001:0001ed40       ??_EObstacleContext@Cct@physx@@UEAAPEAXI@Z 000000018001fd40 f i CctObstacleContext.obj
 0001:0001ed40       ??_GObstacleContext@Cct@physx@@UEAAPEAXI@Z 000000018001fd40 f i CctObstacleContext.obj
 0001:0001ee60       ??_EPxObstacleContext@physx@@UEAAPEAXI@Z 000000018001fe60 f i CctObstacleContext.obj
 0001:0001ee60       ??_GPxObstacleContext@physx@@UEAAPEAXI@Z 000000018001fe60 f i CctObstacleContext.obj
 0001:0001eea0       ?growAndPushBack@?$Array@UInternalBoxObstacle@ObstacleContext@Cct@physx@@VNamedAllocator@shdfnd@4@@shdfnd@physx@@IEAAAEAUInternalBoxObstacle@ObstacleContext@Cct@3@AEBU4563@@Z 000000018001fea0 f i CctObstacleContext.obj
 0001:0001f300       ?growAndPushBack@?$Array@UInternalCapsuleObstacle@ObstacleContext@Cct@physx@@VNamedAllocator@shdfnd@4@@shdfnd@physx@@IEAAAEAUInternalCapsuleObstacle@ObstacleContext@Cct@3@AEBU4563@@Z 0000000180020300 f i CctObstacleContext.obj
 0001:0001f720       ??0SweptBox@Cct@physx@@QEAA@XZ 0000000180020720 f   CctSweptBox.obj
 0001:0001f750       ??1SweptBox@Cct@physx@@UEAA@XZ 0000000180020750 f   CctSweptBox.obj
 0001:0001f770       ?computeTemporalBox@SweptBox@Cct@physx@@UEBAXAEBVSweepTest@23@AEAUPxExtendedBounds3@3@AEBUPxExtendedVec3@3@AEBVPxVec3@3@@Z 0000000180020770 f   CctSweptBox.obj
 0001:0001f7f0       ??_ESweptBox@Cct@physx@@UEAAPEAXI@Z 00000001800207f0 f i CctSweptBox.obj
 0001:0001f7f0       ??_GSweptBox@Cct@physx@@UEAAPEAXI@Z 00000001800207f0 f i CctSweptBox.obj
 0001:0001f840       ??0SweptCapsule@Cct@physx@@QEAA@XZ 0000000180020840 f   CctSweptCapsule.obj
 0001:0001f870       ??1SweptCapsule@Cct@physx@@UEAA@XZ 0000000180020870 f   CctSweptCapsule.obj
 0001:0001f890       ?computeTemporalBox@SweptCapsule@Cct@physx@@UEBAXAEBVSweepTest@23@AEAUPxExtendedBounds3@3@AEBUPxExtendedVec3@3@AEBVPxVec3@3@@Z 0000000180020890 f   CctSweptCapsule.obj
 0001:0001f910       ??_GSweptCapsule@Cct@physx@@UEAAPEAXI@Z 0000000180020910 f i CctSweptCapsule.obj
 0001:0001f910       ??_ESweptCapsule@Cct@physx@@UEAAPEAXI@Z 0000000180020910 f i CctSweptCapsule.obj
 0001:0001f960       ??0SweptVolume@Cct@physx@@QEAA@XZ 0000000180020960 f   CctSweptVolume.obj
 0001:0001f980       ??1SweptVolume@Cct@physx@@UEAA@XZ 0000000180020980 f   CctSweptVolume.obj
 0001:0001f9a0       ?computeTemporalBox@Cct@physx@@YAXAEAUPxExtendedBounds3@2@MMMMAEBVPxVec3@2@AEBUPxExtendedVec3@2@1@Z 00000001800209a0 f   CctSweptVolume.obj
 0001:0001fdb0       ??_GSweptVolume@Cct@physx@@UEAAPEAXI@Z 0000000180020db0 f i CctSweptVolume.obj
 0001:0001fdb0       ??_ESweptVolume@Cct@physx@@UEAAPEAXI@Z 0000000180020db0 f i CctSweptVolume.obj
 0001:0001fdf0       ??0PxMeshOverlapUtil@physx@@QEAA@XZ 0000000180020df0 f   PhysX3ExtensionsCHECKED:ExtTriangleMeshExt.obj
 0001:0001fe20       ??1PxMeshOverlapUtil@physx@@QEAA@XZ 0000000180020e20 f   PhysX3ExtensionsCHECKED:ExtTriangleMeshExt.obj
 0001:0001fe60       ?findOverlap@PxMeshOverlapUtil@physx@@QEAAIAEBVPxGeometry@2@AEBVPxTransform@2@AEBVPxTriangleMeshGeometry@2@1@Z 0000000180020e60 f   PhysX3ExtensionsCHECKED:ExtTriangleMeshExt.obj
 0001:0001ffc0       ?findOverlap@PxMeshOverlapUtil@physx@@QEAAIAEBVPxGeometry@2@AEBVPxTransform@2@AEBVPxHeightFieldGeometry@2@1@Z 0000000180020fc0 f   PhysX3ExtensionsCHECKED:ExtTriangleMeshExt.obj
 0001:00020100       ?PxComputeMeshPenetration@physx@@YA?AVPxVec3@1@IAEBVPxGeometry@1@AEBVPxTransform@1@AEBVPxTriangleMeshGeometry@1@1AEAI@Z 0000000180021100 f   PhysX3ExtensionsCHECKED:ExtTriangleMeshExt.obj
 0001:00020190       ?PxComputeTriangleMeshPenetration@physx@@YA_NAEAVPxVec3@1@AEAMAEBVPxGeometry@1@AEBVPxTransform@1@AEBVPxTriangleMeshGeometry@1@3IPEAI@Z 0000000180021190 f   PhysX3ExtensionsCHECKED:ExtTriangleMeshExt.obj
 0001:000201a0       ?PxComputeHeightFieldPenetration@physx@@YA?AVPxVec3@1@IAEBVPxGeometry@1@AEBVPxTransform@1@AEBVPxHeightFieldGeometry@1@1AEAI@Z 00000001800211a0 f   PhysX3ExtensionsCHECKED:ExtTriangleMeshExt.obj
 0001:00020230       ?PxComputeHeightFieldPenetration@physx@@YA_NAEAVPxVec3@1@AEAMAEBVPxGeometry@1@AEBVPxTransform@1@AEBVPxHeightFieldGeometry@1@3IPEAI@Z 0000000180021230 f   PhysX3ExtensionsCHECKED:ExtTriangleMeshExt.obj
 0001:000207d0       ?updateMassAndInertia@PxRigidBodyExt@physx@@SA_NAEAVPxRigidBody@2@PEBMIPEBVPxVec3@2@_N@Z 00000001800217d0 f   PhysX3ExtensionsCHECKED:ExtRigidBodyExt.obj
 0001:00020800       ?updateMassAndInertia@PxRigidBodyExt@physx@@SA_NAEAVPxRigidBody@2@MPEBVPxVec3@2@_N@Z 0000000180021800 f   PhysX3ExtensionsCHECKED:ExtRigidBodyExt.obj
 0001:00020840       ?setMassAndUpdateInertia@PxRigidBodyExt@physx@@SA_NAEAVPxRigidBody@2@PEBMIPEBVPxVec3@2@_N@Z 0000000180021840 f   PhysX3ExtensionsCHECKED:ExtRigidBodyExt.obj
 0001:00020870       ?setMassAndUpdateInertia@PxRigidBodyExt@physx@@SA_NAEAVPxRigidBody@2@MPEBVPxVec3@2@_N@Z 0000000180021870 f   PhysX3ExtensionsCHECKED:ExtRigidBodyExt.obj
 0001:000208b0       ?computeMassPropertiesFromShapes@PxRigidBodyExt@physx@@SA?AVPxMassProperties@2@PEBQEBVPxShape@2@I@Z 00000001800218b0 f   PhysX3ExtensionsCHECKED:ExtRigidBodyExt.obj
 0001:00020cd0       ?addForceAtPos@PxRigidBodyExt@physx@@SAXAEAVPxRigidBody@2@AEBVPxVec3@2@1W4Enum@PxForceMode@2@_N@Z 0000000180021cd0 f   PhysX3ExtensionsCHECKED:ExtRigidBodyExt.obj
 0001:00020cf0       ?addForceAtLocalPos@PxRigidBodyExt@physx@@SAXAEAVPxRigidBody@2@AEBVPxVec3@2@1W4Enum@PxForceMode@2@_N@Z 0000000180021cf0 f   PhysX3ExtensionsCHECKED:ExtRigidBodyExt.obj
 0001:00020ec0       ?addLocalForceAtPos@PxRigidBodyExt@physx@@SAXAEAVPxRigidBody@2@AEBVPxVec3@2@1W4Enum@PxForceMode@2@_N@Z 0000000180021ec0 f   PhysX3ExtensionsCHECKED:ExtRigidBodyExt.obj
 0001:00021080       ?addLocalForceAtLocalPos@PxRigidBodyExt@physx@@SAXAEAVPxRigidBody@2@AEBVPxVec3@2@1W4Enum@PxForceMode@2@_N@Z 0000000180022080 f   PhysX3ExtensionsCHECKED:ExtRigidBodyExt.obj
 0001:00021330       ?getVelocityAtPos@PxRigidBodyExt@physx@@SA?AVPxVec3@2@AEBVPxRigidBody@2@AEBV32@@Z 0000000180022330 f   PhysX3ExtensionsCHECKED:ExtRigidBodyExt.obj
 0001:00021520       ?getLocalVelocityAtLocalPos@PxRigidBodyExt@physx@@SA?AVPxVec3@2@AEBVPxRigidBody@2@AEBV32@@Z 0000000180022520 f   PhysX3ExtensionsCHECKED:ExtRigidBodyExt.obj
 0001:00021820       ?getVelocityAtOffset@PxRigidBodyExt@physx@@SA?AVPxVec3@2@AEBVPxRigidBody@2@AEBV32@@Z 0000000180022820 f   PhysX3ExtensionsCHECKED:ExtRigidBodyExt.obj
 0001:00021a00       ?linearSweepSingle@PxRigidBodyExt@physx@@SA_NAEAVPxRigidBody@2@AEAVPxScene@2@AEBVPxVec3@2@MV?$PxFlags@W4Enum@PxHitFlag@physx@@G@2@AEAUPxSweepHit@2@AEAIAEBUPxQueryFilterData@2@PEAVPxQueryFilterCallback@2@PEBUPxQueryCache@2@M@Z 0000000180022a00 f   PhysX3ExtensionsCHECKED:ExtRigidBodyExt.obj
 0001:00021e90       ?linearSweepMultiple@PxRigidBodyExt@physx@@SAIAEAVPxRigidBody@2@AEAVPxScene@2@AEBVPxVec3@2@MV?$PxFlags@W4Enum@PxHitFlag@physx@@G@2@PEAUPxSweepHit@2@PEAIIAEAU72@AEAHAEA_NAEBUPxQueryFilterData@2@PEAVPxQueryFilterCallback@2@PEBUPxQueryCache@2@M@Z 0000000180022e90 f   PhysX3ExtensionsCHECKED:ExtRigidBodyExt.obj
 0001:000226f0       ?computeVelocityDeltaFromImpulse@PxRigidBodyExt@physx@@SAXAEBVPxRigidBody@2@AEBVPxVec3@2@1AEAV42@2@Z 00000001800236f0 f   PhysX3ExtensionsCHECKED:ExtRigidBodyExt.obj
 0001:00022b00       ?computeVelocityDeltaFromImpulse@PxRigidBodyExt@physx@@SAXAEBVPxRigidBody@2@AEBVPxTransform@2@AEBVPxVec3@2@2MMAEAV52@3@Z 0000000180023b00 f   PhysX3ExtensionsCHECKED:ExtRigidBodyExt.obj
 0001:00023030       ?computeLinearAngularImpulse@PxRigidBodyExt@physx@@SAXAEBVPxRigidBody@2@AEBVPxTransform@2@AEBVPxVec3@2@2MMAEAV52@3@Z 0000000180024030 f   PhysX3ExtensionsCHECKED:ExtRigidBodyExt.obj
 0001:000232d0       ??0InertiaTensorComputer@Ext@physx@@QEAA@_N@Z 00000001800242d0 f   PhysX3ExtensionsCHECKED:ExtRigidBodyExt.obj
 0001:00023300       ??0InertiaTensorComputer@Ext@physx@@QEAA@AEBVPxMat33@2@AEBVPxVec3@2@M@Z 0000000180024300 f   PhysX3ExtensionsCHECKED:ExtRigidBodyExt.obj
 0001:00023360       ??1InertiaTensorComputer@Ext@physx@@QEAA@XZ 0000000180024360 f   PhysX3ExtensionsCHECKED:ExtRigidBodyExt.obj
 0001:00023370       ?translate@InertiaTensorComputer@Ext@physx@@QEAAXAEBVPxVec3@3@@Z 0000000180024370 f   PhysX3ExtensionsCHECKED:ExtRigidBodyExt.obj
 0001:00023790       ?setBox@InertiaTensorComputer@Ext@physx@@QEAAXAEBVPxVec3@3@@Z 0000000180024790 f   PhysX3ExtensionsCHECKED:ExtRigidBodyExt.obj
 0001:00023830       ?setSphere@InertiaTensorComputer@Ext@physx@@QEAAXM@Z 0000000180024830 f   PhysX3ExtensionsCHECKED:ExtRigidBodyExt.obj
 0001:00023890       ?setCylinder@InertiaTensorComputer@Ext@physx@@QEAAXHMM@Z 0000000180024890 f   PhysX3ExtensionsCHECKED:ExtRigidBodyExt.obj
 0001:00023960       ?setCapsule@InertiaTensorComputer@Ext@physx@@QEAAXHMM@Z 0000000180024960 f   PhysX3ExtensionsCHECKED:ExtRigidBodyExt.obj
 0001:00023a70       ?setEllipsoid@InertiaTensorComputer@Ext@physx@@QEAAXMMM@Z 0000000180024a70 f   PhysX3ExtensionsCHECKED:ExtRigidBodyExt.obj
 0001:00023b00       ?computeSphereMass@Ext@physx@@YAMMM@Z 0000000180024b00 f   PhysX3ExtensionsCHECKED:ExtRigidBodyExt.obj
 0001:00023b30       ?computeSphereDensity@Ext@physx@@YAMMM@Z 0000000180024b30 f   PhysX3ExtensionsCHECKED:ExtRigidBodyExt.obj
 0001:00023b60       ?computeBoxMass@Ext@physx@@YAMAEBVPxVec3@2@M@Z 0000000180024b60 f   PhysX3ExtensionsCHECKED:ExtRigidBodyExt.obj
 0001:00023bb0       ?computeBoxDensity@Ext@physx@@YAMAEBVPxVec3@2@M@Z 0000000180024bb0 f   PhysX3ExtensionsCHECKED:ExtRigidBodyExt.obj
 0001:00023c00       ?computeEllipsoidMass@Ext@physx@@YAMAEBVPxVec3@2@M@Z 0000000180024c00 f   PhysX3ExtensionsCHECKED:ExtRigidBodyExt.obj
 0001:00023c50       ?computeEllipsoidDensity@Ext@physx@@YAMAEBVPxVec3@2@M@Z 0000000180024c50 f   PhysX3ExtensionsCHECKED:ExtRigidBodyExt.obj
 0001:00023ca0       ?computeCylinderMass@Ext@physx@@YAMMMM@Z 0000000180024ca0 f   PhysX3ExtensionsCHECKED:ExtRigidBodyExt.obj
 0001:00023cc0       ?computeCylinderDensity@Ext@physx@@YAMMMM@Z 0000000180024cc0 f   PhysX3ExtensionsCHECKED:ExtRigidBodyExt.obj
 0001:00023ce0       ?computeCapsuleMass@Ext@physx@@YAMMMM@Z 0000000180024ce0 f   PhysX3ExtensionsCHECKED:ExtRigidBodyExt.obj
 0001:00023d10       ?computeCapsuleDensity@Ext@physx@@YAMMMM@Z 0000000180024d10 f   PhysX3ExtensionsCHECKED:ExtRigidBodyExt.obj
 0001:00023d40       ?computeConeMass@Ext@physx@@YAMMMM@Z 0000000180024d40 f   PhysX3ExtensionsCHECKED:ExtRigidBodyExt.obj
 0001:00023d70       ?computeConeDensity@Ext@physx@@YAMMMM@Z 0000000180024d70 f   PhysX3ExtensionsCHECKED:ExtRigidBodyExt.obj
 0001:00023da0       ?computeBoxInertiaTensor@Ext@physx@@YAXAEAVPxVec3@2@MMMM@Z 0000000180024da0 f   PhysX3ExtensionsCHECKED:ExtRigidBodyExt.obj
 0001:00023df0       ?computeSphereInertiaTensor@Ext@physx@@YAXAEAVPxVec3@2@MM_N@Z 0000000180024df0 f   PhysX3ExtensionsCHECKED:ExtRigidBodyExt.obj
 0001:00024bd0       ??0PxMassProperties@physx@@QEAA@AEBVPxGeometry@1@@Z 0000000180025bd0 f i PhysX3ExtensionsCHECKED:ExtRigidBodyExt.obj
 0001:000253b0       ??1?$PxHitBuffer@UPxSweepHit@physx@@@physx@@UEAA@XZ 00000001800263b0 f i PhysX3ExtensionsCHECKED:ExtRigidBodyExt.obj
 0001:000253c0       ??1?$PxHitCallback@UPxSweepHit@physx@@@physx@@UEAA@XZ 00000001800263c0 f i PhysX3ExtensionsCHECKED:ExtRigidBodyExt.obj
 0001:000253d0       ??_G?$PxHitBuffer@UPxSweepHit@physx@@@physx@@UEAAPEAXI@Z 00000001800263d0 f i PhysX3ExtensionsCHECKED:ExtRigidBodyExt.obj
 0001:000253d0       ??_E?$PxHitBuffer@UPxSweepHit@physx@@@physx@@UEAAPEAXI@Z 00000001800263d0 f i PhysX3ExtensionsCHECKED:ExtRigidBodyExt.obj
 0001:00025410       ??_E?$PxHitCallback@UPxSweepHit@physx@@@physx@@UEAAPEAXI@Z 0000000180026410 f i PhysX3ExtensionsCHECKED:ExtRigidBodyExt.obj
 0001:00025410       ??_G?$PxHitCallback@UPxSweepHit@physx@@@physx@@UEAAPEAXI@Z 0000000180026410 f i PhysX3ExtensionsCHECKED:ExtRigidBodyExt.obj
 0001:00025450       ?addForceAtPosInternal@@YAXAEAVPxRigidBody@physx@@AEBVPxVec3@2@1W4Enum@PxForceMode@2@_N@Z 0000000180026450 f i PhysX3ExtensionsCHECKED:ExtRigidBodyExt.obj
 0001:000257d0       ?allocate@?$Array@PEAVPxShape@physx@@V?$InlineAllocator@$0IA@VNamedAllocator@shdfnd@physx@@@shdfnd@2@@shdfnd@physx@@IEAAPEAPEAVPxShape@3@I@Z 00000001800267d0 f i PhysX3ExtensionsCHECKED:ExtRigidBodyExt.obj
 0001:00025870       ?allocate@?$Array@VPxMassProperties@physx@@V?$InlineAllocator@$0DEA@VNamedAllocator@shdfnd@physx@@@shdfnd@2@@shdfnd@physx@@IEAAPEAVPxMassProperties@3@I@Z 0000000180026870 f i PhysX3ExtensionsCHECKED:ExtRigidBodyExt.obj
 0001:00025900       ?allocate@?$Array@VPxTransform@physx@@V?$InlineAllocator@$0BMA@VNamedAllocator@shdfnd@physx@@@shdfnd@2@@shdfnd@physx@@IEAAPEAVPxTransform@3@I@Z 0000000180026900 f i PhysX3ExtensionsCHECKED:ExtRigidBodyExt.obj
 0001:000270b0       ?copy@?$Array@VPxMassProperties@physx@@V?$InlineAllocator@$0DEA@VNamedAllocator@shdfnd@physx@@@shdfnd@2@@shdfnd@physx@@KAXPEAVPxMassProperties@3@0PEBV43@@Z 00000001800280b0 f i PhysX3ExtensionsCHECKED:ExtRigidBodyExt.obj
 0001:00027350       ?copy@?$Array@VPxTransform@physx@@V?$InlineAllocator@$0BMA@VNamedAllocator@shdfnd@physx@@@shdfnd@2@@shdfnd@physx@@KAXPEAVPxTransform@3@0PEBV43@@Z 0000000180028350 f i PhysX3ExtensionsCHECKED:ExtRigidBodyExt.obj
 0001:00027500       ?finalizeQuery@?$PxHitCallback@UPxSweepHit@physx@@@physx@@UEAAXXZ 0000000180028500 f i PhysX3ExtensionsCHECKED:ExtRigidBodyExt.obj
 0001:00027510       ?getVelocityAtPosInternal@@YA?AVPxVec3@physx@@AEBVPxRigidBody@2@AEBV12@@Z 0000000180028510 f i PhysX3ExtensionsCHECKED:ExtRigidBodyExt.obj
 0001:00027620       ?growAndPushBack@?$Array@VPxMassProperties@physx@@V?$InlineAllocator@$0DEA@VNamedAllocator@shdfnd@physx@@@shdfnd@2@@shdfnd@physx@@IEAAAEAVPxMassProperties@3@AEBV43@@Z 0000000180028620 f i PhysX3ExtensionsCHECKED:ExtRigidBodyExt.obj
 0001:00027770       ?growAndPushBack@?$Array@VPxTransform@physx@@V?$InlineAllocator@$0BMA@VNamedAllocator@shdfnd@physx@@@shdfnd@2@@shdfnd@physx@@IEAAAEAVPxTransform@3@AEBV43@@Z 0000000180028770 f i PhysX3ExtensionsCHECKED:ExtRigidBodyExt.obj
 0001:000278a0       ?processTouches@?$PxHitBuffer@UPxSweepHit@physx@@@physx@@MEAA_NPEBUPxSweepHit@2@I@Z 00000001800288a0 f i PhysX3ExtensionsCHECKED:ExtRigidBodyExt.obj
 0001:000278b0       ?recreate@?$Array@PEAVPxShape@physx@@V?$InlineAllocator@$0IA@VNamedAllocator@shdfnd@physx@@@shdfnd@2@@shdfnd@physx@@IEAAXI@Z 00000001800288b0 f i PhysX3ExtensionsCHECKED:ExtRigidBodyExt.obj
 0001:000279a0       ?recreate@?$Array@VPxMassProperties@physx@@V?$InlineAllocator@$0DEA@VNamedAllocator@shdfnd@physx@@@shdfnd@2@@shdfnd@physx@@IEAAXI@Z 00000001800289a0 f i PhysX3ExtensionsCHECKED:ExtRigidBodyExt.obj
 0001:00027a40       ?recreate@?$Array@VPxTransform@physx@@V?$InlineAllocator@$0BMA@VNamedAllocator@shdfnd@physx@@@shdfnd@2@@shdfnd@physx@@IEAAXI@Z 0000000180028a40 f i PhysX3ExtensionsCHECKED:ExtRigidBodyExt.obj
 0001:00027ae0       ?resize@?$Array@PEAVPxShape@physx@@V?$InlineAllocator@$0IA@VNamedAllocator@shdfnd@physx@@@shdfnd@2@@shdfnd@physx@@QEAAXIAEBQEAVPxShape@3@@Z 0000000180028ae0 f i PhysX3ExtensionsCHECKED:ExtRigidBodyExt.obj
 0001:00027c00       ?rotate@InertiaTensorComputer@Ext@physx@@QEAAXAEBVPxMat33@3@@Z 0000000180028c00 f i PhysX3ExtensionsCHECKED:ExtRigidBodyExt.obj
 0001:000281f0       ?scaleInertia@PxMassProperties@physx@@SA?AVPxMat33@2@AEBV32@AEBVPxQuat@2@AEBVPxVec3@2@@Z 00000001800291f0 f i PhysX3ExtensionsCHECKED:ExtRigidBodyExt.obj
 0001:00029100       ?sum@PxMassProperties@physx@@SA?AV12@PEBV12@PEBVPxTransform@2@I@Z 000000018002a100 f i PhysX3ExtensionsCHECKED:ExtRigidBodyExt.obj
 0001:00029e40       ?transform@InertiaTensorComputer@Ext@physx@@QEAAXAEBVPxTransform@3@@Z 000000018002ae40 f i PhysX3ExtensionsCHECKED:ExtRigidBodyExt.obj
 0001:0002a020       ?transformFast@PxBounds3@physx@@SA?AV12@AEBVPxTransform@2@AEBV12@@Z 000000018002b020 f i PhysX3ExtensionsCHECKED:ExtRigidBodyExt.obj
 0001:0002a7b3       ?getAllocator@shdfnd@physx@@YAAEAVPxAllocatorCallback@2@XZ 000000018002b7b3 f   PxFoundationCHECKED_x64:PxFoundationCHECKED_x64.dll
 0001:0002a7b9       ??0NamedAllocator@shdfnd@physx@@QEAA@PEBD@Z 000000018002b7b9 f   PxFoundationCHECKED_x64:PxFoundationCHECKED_x64.dll
 0001:0002a7bf       ?lock@MutexImpl@shdfnd@physx@@QEAAXXZ 000000018002b7bf f   PxFoundationCHECKED_x64:PxFoundationCHECKED_x64.dll
 0001:0002a7c5       ?unlock@MutexImpl@shdfnd@physx@@QEAAXXZ 000000018002b7c5 f   PxFoundationCHECKED_x64:PxFoundationCHECKED_x64.dll
 0001:0002a7cb       PxGetProfilerCallback      000000018002b7cb f   PxFoundationCHECKED_x64:PxFoundationCHECKED_x64.dll
 0001:0002a7d1       ??0NamedAllocator@shdfnd@physx@@QEAA@AEBV012@@Z 000000018002b7d1 f   PxFoundationCHECKED_x64:PxFoundationCHECKED_x64.dll
 0001:0002a7d7       ??1NamedAllocator@shdfnd@physx@@QEAA@XZ 000000018002b7d7 f   PxFoundationCHECKED_x64:PxFoundationCHECKED_x64.dll
 0001:0002a7dd       ?allocate@NamedAllocator@shdfnd@physx@@QEAAPEAX_KPEBDH@Z 000000018002b7dd f   PxFoundationCHECKED_x64:PxFoundationCHECKED_x64.dll
 0001:0002a7e3       ?deallocate@NamedAllocator@shdfnd@physx@@QEAAXPEAX@Z 000000018002b7e3 f   PxFoundationCHECKED_x64:PxFoundationCHECKED_x64.dll
 0001:0002a7e9       PxGetFoundation            000000018002b7e9 f   PxFoundationCHECKED_x64:PxFoundationCHECKED_x64.dll
 0001:0002a7ef       ??0MutexImpl@shdfnd@physx@@QEAA@XZ 000000018002b7ef f   PxFoundationCHECKED_x64:PxFoundationCHECKED_x64.dll
 0001:0002a7f5       ??1MutexImpl@shdfnd@physx@@QEAA@XZ 000000018002b7f5 f   PxFoundationCHECKED_x64:PxFoundationCHECKED_x64.dll
 0001:0002a7fb       ?getSize@MutexImpl@shdfnd@physx@@SAIXZ 000000018002b7fb f   PxFoundationCHECKED_x64:PxFoundationCHECKED_x64.dll
 0001:0002a801       ?getInstance@Foundation@shdfnd@physx@@SAAEAV123@XZ 000000018002b801 f   PxFoundationCHECKED_x64:PxFoundationCHECKED_x64.dll
 0001:0002a807       ?incRefCount@Foundation@shdfnd@physx@@SAXXZ 000000018002b807 f   PxFoundationCHECKED_x64:PxFoundationCHECKED_x64.dll
 0001:0002a80d       ?decRefCount@Foundation@shdfnd@physx@@SAXXZ 000000018002b80d f   PxFoundationCHECKED_x64:PxFoundationCHECKED_x64.dll
 0001:0002a813       ?error@Foundation@shdfnd@physx@@QEAAXW4Enum@PxErrorCode@3@PEBDH1ZZ 000000018002b813 f   PxFoundationCHECKED_x64:PxFoundationCHECKED_x64.dll
 0001:0002a819       ?PxShortestRotation@physx@@YA?AVPxQuat@1@AEBVPxVec3@1@0@Z 000000018002b819 f   PxFoundationCHECKED_x64:PxFoundationCHECKED_x64.dll
 0001:0002a81f       ?PxDiagonalize@physx@@YA?AVPxVec3@1@AEBVPxMat33@1@AEAVPxQuat@1@@Z 000000018002b81f f   PxFoundationCHECKED_x64:PxFoundationCHECKED_x64.dll
 0001:0002a825       ?sweep@PxMeshQuery@physx@@SA_NAEBVPxVec3@2@MAEBVPxGeometry@2@AEBVPxTransform@2@IPEBVPxTriangle@2@AEAUPxSweepHit@2@V?$PxFlags@W4Enum@PxHitFlag@physx@@G@2@PEBIM_N@Z 000000018002b825 f   PhysX3CommonCHECKED_x64:PhysX3CommonCHECKED_x64.dll
 0001:0002a82b       ??0RenderOutput@Cm@physx@@QEAA@AEAVRenderBuffer@12@@Z 000000018002b82b f   PhysX3CommonCHECKED_x64:PhysX3CommonCHECKED_x64.dll
 0001:0002a831       ??6RenderOutput@Cm@physx@@QEAAAEAV012@I@Z 000000018002b831 f   PhysX3CommonCHECKED_x64:PhysX3CommonCHECKED_x64.dll
 0001:0002a837       ??6RenderOutput@Cm@physx@@QEAAAEAV012@AEBVPxTransform@2@@Z 000000018002b837 f   PhysX3CommonCHECKED_x64:PhysX3CommonCHECKED_x64.dll
 0001:0002a83d       ?outputCapsule@RenderOutput@Cm@physx@@QEAAAEAV123@MMAEBVPxMat44@3@@Z 000000018002b83d f   PhysX3CommonCHECKED_x64:PhysX3CommonCHECKED_x64.dll
 0001:0002a843       ??6Cm@physx@@YAAEAVRenderOutput@01@AEAV201@AEBUDebugBox@01@@Z 000000018002b843 f   PhysX3CommonCHECKED_x64:PhysX3CommonCHECKED_x64.dll
 0001:0002a849       ?PxTransformFromSegment@physx@@YA?AVPxTransform@1@AEBVPxVec3@1@0PEAM@Z 000000018002b849 f   PhysX3CommonCHECKED_x64:PhysX3CommonCHECKED_x64.dll
 0001:0002a84f       ?sweep@PxGeometryQuery@physx@@SA_NAEBVPxVec3@2@MAEBVPxGeometry@2@AEBVPxTransform@2@12AEAUPxSweepHit@2@V?$PxFlags@W4Enum@PxHitFlag@physx@@G@2@M@Z 000000018002b84f f   PhysX3CommonCHECKED_x64:PhysX3CommonCHECKED_x64.dll
 0001:0002a855       ?computePenetration@PxGeometryQuery@physx@@SA_NAEAVPxVec3@2@AEAMAEBVPxGeometry@2@AEBVPxTransform@2@23@Z 000000018002b855 f   PhysX3CommonCHECKED_x64:PhysX3CommonCHECKED_x64.dll
 0001:0002a85b       ?intersectOBBOBB@Gu@physx@@YA_NAEBVPxVec3@2@0AEBVPxMat33@2@001_N@Z 000000018002b85b f   PhysX3CommonCHECKED_x64:PhysX3CommonCHECKED_x64.dll
 0001:0002a861       ?distanceSegmentBoxSquared@Gu@physx@@YAMAEBVPxVec3@2@000AEBVPxMat33@2@PEAMPEAV32@@Z 000000018002b861 f   PhysX3CommonCHECKED_x64:PhysX3CommonCHECKED_x64.dll
 0001:0002a867       ?getTriangle@PxMeshQuery@physx@@SAXAEBVPxTriangleMeshGeometry@2@AEBVPxTransform@2@IAEAVPxTriangle@2@PEAI3@Z 000000018002b867 f   PhysX3CommonCHECKED_x64:PhysX3CommonCHECKED_x64.dll
 0001:0002a86d       ?getTriangle@PxMeshQuery@physx@@SAXAEBVPxHeightFieldGeometry@2@AEBVPxTransform@2@IAEAVPxTriangle@2@PEAI3@Z 000000018002b86d f   PhysX3CommonCHECKED_x64:PhysX3CommonCHECKED_x64.dll
 0001:0002a873       ??6RenderOutput@Cm@physx@@QEAAAEAV012@W4Primitive@012@@Z 000000018002b873 f   PhysX3CommonCHECKED_x64:PhysX3CommonCHECKED_x64.dll
 0001:0002a879       ??6RenderOutput@Cm@physx@@QEAAAEAV012@VPxVec3@2@@Z 000000018002b879 f   PhysX3CommonCHECKED_x64:PhysX3CommonCHECKED_x64.dll
 0001:0002a87f       ?intersectTriangleBox_Unsafe@Gu@physx@@YAHAEBVPxVec3@2@0000@Z 000000018002b87f f   PhysX3CommonCHECKED_x64:PhysX3CommonCHECKED_x64.dll
 0001:0002a885       ?CompleteBoxPruning@Cm@physx@@YA_NPEBVPxBounds3@2@IAEAV?$Array@IVNamedAllocator@shdfnd@physx@@@shdfnd@2@AEBVAxes@Gu@2@@Z 000000018002b885 f   PhysX3CommonCHECKED_x64:PhysX3CommonCHECKED_x64.dll
 0001:0002a88b       ?distanceSegmentSegmentSquared@Gu@physx@@YAMAEBVPxVec3@2@000PEAM1@Z 000000018002b88b f   PhysX3CommonCHECKED_x64:PhysX3CommonCHECKED_x64.dll
 0001:0002a891       ?getRaycastFuncTable@Gu@physx@@YAAEAY06Q6AIAEBVPxGeometry@2@AEBVPxTransform@2@AEBVPxVec3@2@2MV?$PxFlags@W4Enum@PxHitFlag@physx@@G@2@IPEIAUPxRaycastHit@2@@ZXZ 000000018002b891 f   PhysX3CommonCHECKED_x64:PhysX3CommonCHECKED_x64.dll
 0001:0002a897       ?findOverlapTriangleMesh@PxMeshQuery@physx@@SAIAEBVPxGeometry@2@AEBVPxTransform@2@AEBVPxTriangleMeshGeometry@2@1PEAIIIAEA_N@Z 000000018002b897 f   PhysX3CommonCHECKED_x64:PhysX3CommonCHECKED_x64.dll
 0001:0002a89d       ?findOverlapHeightField@PxMeshQuery@physx@@SAIAEBVPxGeometry@2@AEBVPxTransform@2@AEBVPxHeightFieldGeometry@2@1PEAIIIAEA_N@Z 000000018002b89d f   PhysX3CommonCHECKED_x64:PhysX3CommonCHECKED_x64.dll
 0001:0002a8a4       ??3@YAXPEAX_K@Z            000000018002b8a4 f   MSVCRT:delete_scalar_size.obj
 0001:0002a8ac       ??_V@YAXPEAX_K@Z           000000018002b8ac f   MSVCRT:delete_array_size.obj
 0001:0002a8d0       __chkstk                   000000018002b8d0 f   MSVCRT:chkstk.obj
 0001:0002a8d0       _alloca_probe              000000018002b8d0 f   MSVCRT:chkstk.obj
 0001:0002a93c       ?__scrt_initialize_type_info@@YAXXZ 000000018002b93c f   MSVCRT:tncleanup.obj
 0001:0002a950       ?__scrt_uninitialize_type_info@@YAXXZ 000000018002b950 f   MSVCRT:tncleanup.obj
 0001:0002a960       ??1type_info@@UEAA@XZ      000000018002b960 f   MSVCRT:std_type_info_static.obj
 0001:0002a970       ??_Gtype_info@@UEAAPEAXI@Z 000000018002b970 f i MSVCRT:std_type_info_static.obj
 0001:0002a970       ??_Etype_info@@UEAAPEAXI@Z 000000018002b970 f i MSVCRT:std_type_info_static.obj
 0001:0002adc0       _CRT_INIT                  000000018002bdc0 f   MSVCRT:dll_dllmain.obj
 0001:0002adc8       _DllMainCRTStartup         000000018002bdc8 f   MSVCRT:dll_dllmain.obj
 0001:0002ae14       ??3@YAXPEAX@Z              000000018002be14 f   MSVCRT:delete_scalar.obj
 0001:0002ae1c       ??_V@YAXPEAX@Z             000000018002be1c f   MSVCRT:delete_array.obj
 0001:0002aeac       __security_init_cookie     000000018002beac f   MSVCRT:gs_support.obj
 0001:0002af84       DllMain                    000000018002bf84 f   MSVCRT:dll_dllmain_stub.obj
 0001:0002afb0       __local_stdio_printf_options 000000018002bfb0 f i MSVCRT:default_local_stdio_options.obj
 0001:0002afbc       __local_stdio_scanf_options 000000018002bfbc f i MSVCRT:default_local_stdio_options.obj
 0001:0002afc8       __scrt_initialize_default_local_stdio_options 000000018002bfc8 f   MSVCRT:default_local_stdio_options.obj
 0001:0002afec       ??$__crt_fast_decode_pointer@PEAP6AXXZ@@YAPEAP6AXXZQEAP6AXXZ@Z 000000018002bfec f i MSVCRT:utility.obj
 0001:0002b008       ??$__crt_fast_encode_pointer@PEAP6AXXZ@@YAPEAP6AXXZQEAP6AXXZ@Z 000000018002c008 f i MSVCRT:utility.obj
 0001:0002b030       ?__crt_rotate_pointer_value@@YA_K_KH@Z 000000018002c030 f i MSVCRT:utility.obj
 0001:0002b03c       ?configure_argv@__scrt_narrow_argv_policy@@SAHXZ 000000018002c03c f i MSVCRT:utility.obj
 0001:0002b0b4       ?initialize_environment@__scrt_narrow_environment_policy@@SAHXZ 000000018002c0b4 f i MSVCRT:utility.obj
 0001:0002b0f8       NtCurrentTeb               000000018002c0f8 f i MSVCRT:utility.obj
 0001:0002b104       __scrt_acquire_startup_lock 000000018002c104 f   MSVCRT:utility.obj
 0001:0002b14c       __scrt_dllmain_after_initialize_c 000000018002c14c f   MSVCRT:utility.obj
 0001:0002b190       __scrt_dllmain_before_initialize_c 000000018002c190 f   MSVCRT:utility.obj
 0001:0002b1ac       __scrt_dllmain_crt_thread_attach 000000018002c1ac f   MSVCRT:utility.obj
 0001:0002b1e0       __scrt_dllmain_crt_thread_detach 000000018002c1e0 f   MSVCRT:utility.obj
 0001:0002b1fc       __scrt_dllmain_exception_filter 000000018002c1fc f   MSVCRT:utility.obj
 0001:0002b274       __scrt_dllmain_uninitialize_c 000000018002c274 f   MSVCRT:utility.obj
 0001:0002b2b0       __scrt_dllmain_uninitialize_critical 000000018002c2b0 f   MSVCRT:utility.obj
 0001:0002b2cc       __scrt_initialize_crt      000000018002c2cc f   MSVCRT:utility.obj
 0001:0002b328       __scrt_initialize_onexit_tables 000000018002c328 f   MSVCRT:utility.obj
 0001:0002b438       __scrt_is_nonwritable_in_current_image 000000018002c438 f   MSVCRT:utility.obj
 0001:0002b4f8       __scrt_release_startup_lock 000000018002c4f8 f   MSVCRT:utility.obj
 0001:0002b528       __scrt_uninitialize_crt    000000018002c528 f   MSVCRT:utility.obj
 0001:0002b560       _onexit                    000000018002c560 f   MSVCRT:utility.obj
 0001:0002b5c4       at_quick_exit              000000018002c5c4 f   MSVCRT:utility.obj
 0001:0002b608       atexit                     000000018002c608 f   MSVCRT:utility.obj
 0001:0002b624       __scrt_get_dyn_tls_init_callback 000000018002c624 f   MSVCRT:dyn_tls_init.obj
 0001:0002b630       __crt_debugger_hook        000000018002c630 f   MSVCRT:utility_desktop.obj
 0001:0002b63c       __scrt_fastfail            000000018002c63c f   MSVCRT:utility_desktop.obj
 0001:0002b7d8       __scrt_get_show_window_mode 000000018002c7d8 f   MSVCRT:utility_desktop.obj
 0001:0002b820       __scrt_initialize_mta      000000018002c820 f   MSVCRT:utility_desktop.obj
 0001:0002b828       __scrt_initialize_winrt    000000018002c828 f   MSVCRT:utility_desktop.obj
 0001:0002b82c       __scrt_is_managed_app      000000018002c82c f   MSVCRT:utility_desktop.obj
 0001:0002b894       __scrt_set_unhandled_exception_filter 000000018002c894 f   MSVCRT:utility_desktop.obj
 0001:0002b8a8       __scrt_stub_for_initialize_mta 000000018002c8a8 f   MSVCRT:utility_desktop.obj
 0001:0002b8a8       __scrt_exe_initialize_mta  000000018002c8a8 f   MSVCRT:utility_desktop.obj
 0001:0002b8ac       __scrt_unhandled_exception_filter 000000018002c8ac f   MSVCRT:utility_desktop.obj
 0001:0002b8f4       _RTC_Initialize            000000018002c8f4 f   MSVCRT:initsect.obj
 0001:0002b940       _RTC_Terminate             000000018002c940 f   MSVCRT:initsect.obj
 0001:0002b98c       _guard_check_icall_nop     000000018002c98c f i MSVCRT:guard_support.obj
 0001:0002b990       ReadNoFence64              000000018002c990 f i MSVCRT:guard_support.obj
 0001:0002b994       ReadPointerNoFence         000000018002c994 f i MSVCRT:guard_support.obj
 0001:0002b998       _guard_icall_checks_enforced 000000018002c998 f i MSVCRT:guard_support.obj
 0001:0002b9b4       _guard_rf_checks_enforced  000000018002c9b4 f i MSVCRT:guard_support.obj
 0001:0002b9b8       __isa_available_init       000000018002c9b8 f   MSVCRT:cpu_disp.obj
 0001:0002bb94       _get_startup_argv_mode     000000018002cb94 f   MSVCRT:argv_mode.obj
 0001:0002bb9c       __scrt_is_ucrt_dll_in_use  000000018002cb9c f   MSVCRT:ucrt_detection.obj
 0001:0002bbb0       _purecall                  000000018002cbb0 f   vcruntime:VCRUNTIME140.dll
 0001:0002bbb6       __std_type_info_name       000000018002cbb6 f   vcruntime:VCRUNTIME140.dll
 0001:0002bbbc       memcpy                     000000018002cbbc f   vcruntime:VCRUNTIME140.dll
 0001:0002bbc2       memset                     000000018002cbc2 f   vcruntime:VCRUNTIME140.dll
 0001:0002bbc8       __std_type_info_destroy_list 000000018002cbc8 f   vcruntime:VCRUNTIME140.dll
 0001:0002bbce       __C_specific_handler       000000018002cbce f   vcruntime:VCRUNTIME140.dll
 0001:0002bbd4       _fpclass                   000000018002cbd4 f   ucrt:api-ms-win-crt-math-l1-1-0.dll
 0001:0002bbda       _initterm                  000000018002cbda f   ucrt:api-ms-win-crt-runtime-l1-1-0.dll
 0001:0002bbe0       _initterm_e                000000018002cbe0 f   ucrt:api-ms-win-crt-runtime-l1-1-0.dll
 0001:0002bbe6       free                       000000018002cbe6 f   ucrt:api-ms-win-crt-heap-l1-1-0.dll
 0001:0002bbec       _seh_filter_dll            000000018002cbec f   ucrt:api-ms-win-crt-runtime-l1-1-0.dll
 0001:0002bbf2       _configure_narrow_argv     000000018002cbf2 f   ucrt:api-ms-win-crt-runtime-l1-1-0.dll
 0001:0002bbf8       _initialize_narrow_environment 000000018002cbf8 f   ucrt:api-ms-win-crt-runtime-l1-1-0.dll
 0001:0002bbfe       _initialize_onexit_table   000000018002cbfe f   ucrt:api-ms-win-crt-runtime-l1-1-0.dll
 0001:0002bc04       _register_onexit_function  000000018002cc04 f   ucrt:api-ms-win-crt-runtime-l1-1-0.dll
 0001:0002bc0a       _execute_onexit_table      000000018002cc0a f   ucrt:api-ms-win-crt-runtime-l1-1-0.dll
 0001:0002bc10       _crt_atexit                000000018002cc10 f   ucrt:api-ms-win-crt-runtime-l1-1-0.dll
 0001:0002bc16       _crt_at_quick_exit         000000018002cc16 f   ucrt:api-ms-win-crt-runtime-l1-1-0.dll
 0001:0002bc1c       _cexit                     000000018002cc1c f   ucrt:api-ms-win-crt-runtime-l1-1-0.dll
 0001:0002bc22       terminate                  000000018002cc22 f   ucrt:api-ms-win-crt-runtime-l1-1-0.dll
 0001:0002bc28       InitializeSListHead        000000018002cc28 f   kernel32:KERNEL32.dll
 0001:0002bc2e       QueryPerformanceCounter    000000018002cc2e f   kernel32:KERNEL32.dll
 0001:0002bc34       GetCurrentProcessId        000000018002cc34 f   kernel32:KERNEL32.dll
 0001:0002bc3a       GetCurrentThreadId         000000018002cc3a f   kernel32:KERNEL32.dll
 0001:0002bc40       GetSystemTimeAsFileTime    000000018002cc40 f   kernel32:KERNEL32.dll
 0001:0002bc46       DisableThreadLibraryCalls  000000018002cc46 f   kernel32:KERNEL32.dll
 0001:0002bc4c       RtlCaptureContext          000000018002cc4c f   kernel32:KERNEL32.dll
 0001:0002bc52       RtlLookupFunctionEntry     000000018002cc52 f   kernel32:KERNEL32.dll
 0001:0002bc58       RtlVirtualUnwind           000000018002cc58 f   kernel32:KERNEL32.dll
 0001:0002bc5e       IsDebuggerPresent          000000018002cc5e f   kernel32:KERNEL32.dll
 0001:0002bc64       UnhandledExceptionFilter   000000018002cc64 f   kernel32:KERNEL32.dll
 0001:0002bc6a       SetUnhandledExceptionFilter 000000018002cc6a f   kernel32:KERNEL32.dll
 0001:0002bc70       GetStartupInfoW            000000018002cc70 f   kernel32:KERNEL32.dll
 0001:0002bc76       IsProcessorFeaturePresent  000000018002cc76 f   kernel32:KERNEL32.dll
 0001:0002bc7c       GetModuleHandleW           000000018002cc7c f   kernel32:KERNEL32.dll
 0001:0002bc84       __scrt_stub_for_acrt_initialize 000000018002cc84 f   MSVCRT:ucrt_stubs.obj
 0001:0002bc84       __acrt_initialize          000000018002cc84 f   MSVCRT:ucrt_stubs.obj
 0001:0002bc84       __vcrt_initialize          000000018002cc84 f   MSVCRT:ucrt_stubs.obj
 0001:0002bc88       __scrt_stub_for_acrt_thread_attach 000000018002cc88 f   MSVCRT:ucrt_stubs.obj
 0001:0002bc88       __vcrt_thread_attach       000000018002cc88 f   MSVCRT:ucrt_stubs.obj
 0001:0002bc88       __acrt_thread_attach       000000018002cc88 f   MSVCRT:ucrt_stubs.obj
 0001:0002bc8c       __scrt_stub_for_acrt_thread_detach 000000018002cc8c f   MSVCRT:ucrt_stubs.obj
 0001:0002bc8c       __vcrt_thread_detach       000000018002cc8c f   MSVCRT:ucrt_stubs.obj
 0001:0002bc8c       __acrt_thread_detach       000000018002cc8c f   MSVCRT:ucrt_stubs.obj
 0001:0002bc90       __acrt_uninitialize        000000018002cc90 f   MSVCRT:ucrt_stubs.obj
 0001:0002bc90       __scrt_stub_for_acrt_uninitialize 000000018002cc90 f   MSVCRT:ucrt_stubs.obj
 0001:0002bc90       __vcrt_uninitialize        000000018002cc90 f   MSVCRT:ucrt_stubs.obj
 0001:0002bc94       __scrt_stub_for_acrt_uninitialize_critical 000000018002cc94 f   MSVCRT:ucrt_stubs.obj
 0001:0002bc94       __vcrt_uninitialize_critical 000000018002cc94 f   MSVCRT:ucrt_stubs.obj
 0001:0002bc94       __acrt_uninitialize_critical 000000018002cc94 f   MSVCRT:ucrt_stubs.obj
 0001:0002bc98       _is_c_termination_complete 000000018002cc98 f   MSVCRT:ucrt_stubs.obj
 0001:0002bc98       __scrt_stub_for_is_c_termination_complete 000000018002cc98 f   MSVCRT:ucrt_stubs.obj
 0001:0002cfc0       _guard_dispatch_icall_nop  000000018002dfc0 f   MSVCRT:guard_dispatch.obj
 0002:00000000       __xc_a                     0000000180031000     MSVCRT:initializers.obj
 0002:00000250       __xc_z                     0000000180031250     MSVCRT:initializers.obj
 0002:00000360       __xi_a                     0000000180031360     MSVCRT:initializers.obj
 0002:00000470       __xi_z                     0000000180031470     MSVCRT:initializers.obj
 0002:00000580       __xp_a                     0000000180031580     MSVCRT:initializers.obj
 0002:00000690       __xp_z                     0000000180031690     MSVCRT:initializers.obj
 0002:000007a0       __xt_a                     00000001800317a0     MSVCRT:initializers.obj
 0002:000008b0       __xt_z                     00000001800318b0     MSVCRT:initializers.obj
 0002:000009c0       ??_7PxController@physx@@6B@ 00000001800319c0     CctBoxController.obj
 0002:00000ac0       ??_7PxControllerManager@physx@@6B@ 0000000180031ac0     CctBoxController.obj
 0002:00000b70       ??_7PxFoundation@physx@@6B@ 0000000180031b70     CctBoxController.obj
 0002:00000bc0       ??_7PxBoxController@physx@@6B@ 0000000180031bc0     CctBoxController.obj
 0002:00000cf8       ??_7BoxController@Cct@physx@@6BPxBoxController@2@@ 0000000180031cf8     CctBoxController.obj
 0002:00000e30       ??_7BoxController@Cct@physx@@6BController@12@@ 0000000180031e30     CctBoxController.obj
 0002:00000e58       __real@3f000000            0000000180031e58     CctBoxController.obj
 0002:00000e60       __xmm@3fe00000000000003fe0000000000000 0000000180031e60     CctBoxController.obj
 0002:00000e78       ??_7PxCapsuleController@physx@@6B@ 0000000180031e78     CctCapsuleController.obj
 0002:00000fb0       ??_7CapsuleController@Cct@physx@@6BPxCapsuleController@2@@ 0000000180031fb0     CctCapsuleController.obj
 0002:000010e8       ??_7CapsuleController@Cct@physx@@6BController@12@@ 00000001800320e8     CctCapsuleController.obj
 0002:00001110       ??_7?$PxHitCallback@UPxRaycastHit@physx@@@physx@@6B@ 0000000180032110     CctCharacterController.obj
 0002:00001130       ??_7?$PxHitBuffer@UPxRaycastHit@physx@@@physx@@6B@ 0000000180032130     CctCharacterController.obj
 0002:00001150       ??_7PxQueryFilterCallback@physx@@6B@ 0000000180032150     CctCharacterController.obj
 0002:00001190       ??_C@_0BJ@ONMIBLA@sweepTestTriangleIndices@ 0000000180032190     CctCharacterController.obj
 0002:000011b0       ??_C@_0BA@MNOANCHM@sweepTestStream@ 00000001800321b0     CctCharacterController.obj
 0002:000011c8       ??_C@_0CA@CFKKDOLG@CharacterController?4doSweepTest@ 00000001800321c8     CctCharacterController.obj
 0002:000011f0       ??_C@_0CC@KMLEHBGF@CharacterController?4moveCharact@ 00000001800321f0     CctCharacterController.obj
 0002:00001218       ??_7ControllerFilter@@6B@  0000000180032218     CctCharacterController.obj
 0002:00001238       ??_C@_0CP@PMDHKMKE@CharacterController?4filterCandi@ 0000000180032238     CctCharacterController.obj
 0002:00001270       ??_C@_0BJ@FHANBDIB@CharacterController?4move@ 0000000180032270     CctCharacterController.obj
 0002:00001290       ??_C@_0FL@LPEHMGCG@c?3?2users?2bestr?2documents?2librar@ 0000000180032290     CctCharacterController.obj
 0002:00001300       __real@34000000            0000000180032300     CctCharacterController.obj
 0002:00001304       __real@358637bd            0000000180032304     CctCharacterController.obj
 0002:00001308       __real@3dcccccd            0000000180032308     CctCharacterController.obj
 0002:0000130c       __real@3ee66666            000000018003230c     CctCharacterController.obj
 0002:00001310       __real@3f800000            0000000180032310     CctCharacterController.obj
 0002:00001318       __real@3fe0000000000000    0000000180032318     CctCharacterController.obj
 0002:00001324       __real@7f7fffff            0000000180032324     CctCharacterController.obj
 0002:00001330       __xmm@0000000000000000000000003f800000 0000000180032330     CctCharacterController.obj
 0002:00001350       __xmm@00000000000000007f7fffff00000000 0000000180032350     CctCharacterController.obj
 0002:00001370       __xmm@3f800000000000000000000000000000 0000000180032370     CctCharacterController.obj
 0002:00001390       __xmm@7fffffff7fffffff7fffffff7fffffff 0000000180032390     CctCharacterController.obj
 0002:000013b0       __xmm@80000000800000008000000080000000 00000001800323b0     CctCharacterController.obj
 0002:000013d0       ?g_PXSinCoefficients0@aos@shdfnd@physx@@3UPX_VECTORF32@123@B 00000001800323d0     CctCharacterControllerCallbacks.obj
 0002:000013f0       ?g_PXSinCoefficients1@aos@shdfnd@physx@@3UPX_VECTORF32@123@B 00000001800323f0     CctCharacterControllerCallbacks.obj
 0002:00001410       ?g_PXSinCoefficients2@aos@shdfnd@physx@@3UPX_VECTORF32@123@B 0000000180032410     CctCharacterControllerCallbacks.obj
 0002:00001430       ?g_PXCosCoefficients0@aos@shdfnd@physx@@3UPX_VECTORF32@123@B 0000000180032430     CctCharacterControllerCallbacks.obj
 0002:00001450       ?g_PXCosCoefficients1@aos@shdfnd@physx@@3UPX_VECTORF32@123@B 0000000180032450     CctCharacterControllerCallbacks.obj
 0002:00001470       ?g_PXCosCoefficients2@aos@shdfnd@physx@@3UPX_VECTORF32@123@B 0000000180032470     CctCharacterControllerCallbacks.obj
 0002:00001490       ?g_PXTanCoefficients0@aos@shdfnd@physx@@3UPX_VECTORF32@123@B 0000000180032490     CctCharacterControllerCallbacks.obj
 0002:000014b0       ?g_PXTanCoefficients1@aos@shdfnd@physx@@3UPX_VECTORF32@123@B 00000001800324b0     CctCharacterControllerCallbacks.obj
 0002:000014d0       ?g_PXTanCoefficients2@aos@shdfnd@physx@@3UPX_VECTORF32@123@B 00000001800324d0     CctCharacterControllerCallbacks.obj
 0002:000014f0       ?g_PXASinCoefficients0@aos@shdfnd@physx@@3UPX_VECTORF32@123@B 00000001800324f0     CctCharacterControllerCallbacks.obj
 0002:00001510       ?g_PXASinCoefficients1@aos@shdfnd@physx@@3UPX_VECTORF32@123@B 0000000180032510     CctCharacterControllerCallbacks.obj
 0002:00001530       ?g_PXASinCoefficients2@aos@shdfnd@physx@@3UPX_VECTORF32@123@B 0000000180032530     CctCharacterControllerCallbacks.obj
 0002:00001550       ?g_PXATanCoefficients0@aos@shdfnd@physx@@3UPX_VECTORF32@123@B 0000000180032550     CctCharacterControllerCallbacks.obj
 0002:00001570       ?g_PXATanCoefficients1@aos@shdfnd@physx@@3UPX_VECTORF32@123@B 0000000180032570     CctCharacterControllerCallbacks.obj
 0002:00001590       ?g_PXATanCoefficients2@aos@shdfnd@physx@@3UPX_VECTORF32@123@B 0000000180032590     CctCharacterControllerCallbacks.obj
 0002:000015b0       ?g_PXSinEstCoefficients@aos@shdfnd@physx@@3UPX_VECTORF32@123@B 00000001800325b0     CctCharacterControllerCallbacks.obj
 0002:000015d0       ?g_PXCosEstCoefficients@aos@shdfnd@physx@@3UPX_VECTORF32@123@B 00000001800325d0     CctCharacterControllerCallbacks.obj
 0002:000015f0       ?g_PXTanEstCoefficients@aos@shdfnd@physx@@3UPX_VECTORF32@123@B 00000001800325f0     CctCharacterControllerCallbacks.obj
 0002:00001610       ?g_PXATanEstCoefficients@aos@shdfnd@physx@@3UPX_VECTORF32@123@B 0000000180032610     CctCharacterControllerCallbacks.obj
 0002:00001630       ?g_PXASinEstCoefficients@aos@shdfnd@physx@@3UPX_VECTORF32@123@B 0000000180032630     CctCharacterControllerCallbacks.obj
 0002:00001650       ?g_PXASinEstConstants@aos@shdfnd@physx@@3UPX_VECTORF32@123@B 0000000180032650     CctCharacterControllerCallbacks.obj
 0002:00001670       ?g_PXPiConstants0@aos@shdfnd@physx@@3UPX_VECTORF32@123@B 0000000180032670     CctCharacterControllerCallbacks.obj
 0002:00001690       ?g_PXReciprocalTwoPi@aos@shdfnd@physx@@3UPX_VECTORF32@123@B 0000000180032690     CctCharacterControllerCallbacks.obj
 0002:000016b0       ?g_PXTwoPi@aos@shdfnd@physx@@3UPX_VECTORF32@123@B 00000001800326b0     CctCharacterControllerCallbacks.obj
 0002:000016f8       ??_7?$PxHitCallback@UPxOverlapHit@physx@@@physx@@6B@ 00000001800326f8     CctCharacterControllerCallbacks.obj
 0002:00001718       ??_7?$PxHitBuffer@UPxOverlapHit@physx@@@physx@@6B@ 0000000180032718     CctCharacterControllerCallbacks.obj
 0002:00001738       ??_C@_0CI@EALPEGI@CharacterController?4findTouched@ 0000000180032738     CctCharacterControllerCallbacks.obj
 0002:00001768       __real@3a83126f            0000000180032768     CctCharacterControllerCallbacks.obj
 0002:0000176c       __real@3c23d70a            000000018003276c     CctCharacterControllerCallbacks.obj
 0002:00001770       __real@3f7ff972            0000000180032770     CctCharacterControllerCallbacks.obj
 0002:00001774       __real@7f7fc99e            0000000180032774     CctCharacterControllerCallbacks.obj
 0002:00001778       __real@ba83126f            0000000180032778     CctCharacterControllerCallbacks.obj
 0002:00001780       __xmm@000000003a83126f3a83126f3a83126f 0000000180032780     CctCharacterControllerCallbacks.obj
 0002:000017a0       __xmm@000000003f8000003f8000003f800000 00000001800327a0     CctCharacterControllerCallbacks.obj
 0002:000017c0       __xmm@00000000ba83126fba83126fba83126f 00000001800327c0     CctCharacterControllerCallbacks.obj
 0002:000017e0       __xmm@80000000000000008000000000000000 00000001800327e0     CctCharacterControllerCallbacks.obj
 0002:000017f8       ??_7PxRenderBuffer@physx@@6B@ 00000001800327f8     CctCharacterControllerManager.obj
 0002:00001868       ??_7PxDeletionListener@physx@@6B@ 0000000180032868     CctCharacterControllerManager.obj
 0002:00001880       ??_C@_0BA@DLCJDKDM@NonTrackedAlloc@ 0000000180032880     CctCharacterControllerManager.obj
 0002:00001898       ??_7RenderBuffer@Cm@physx@@6B@ 0000000180032898     CctCharacterControllerManager.obj
 0002:00001908       ??_C@_0BD@LANCFJDL@renderBufferPoints@ 0000000180032908     CctCharacterControllerManager.obj
 0002:00001920       ??_C@_0BC@OOFKEPCD@renderBufferLines@ 0000000180032920     CctCharacterControllerManager.obj
 0002:00001938       ??_C@_0BG@IFGFFBGL@renderBufferTriangles@ 0000000180032938     CctCharacterControllerManager.obj
 0002:00001958       ??_C@_0BC@KMLJODNA@renderBufferTexts@ 0000000180032958     CctCharacterControllerManager.obj
 0002:00001970       ??_C@_0BE@CNABNMDL@renderBufferCharBuf@ 0000000180032970     CctCharacterControllerManager.obj
 0002:00001988       ??_7CharacterControllerManager@Cct@physx@@6BPxControllerManager@2@@ 0000000180032988     CctCharacterControllerManager.obj
 0002:00001a38       ??_7CharacterControllerManager@Cct@physx@@6BPxDeletionListener@2@@ 0000000180032a38     CctCharacterControllerManager.obj
 0002:00001a50       ??_C@_0IA@HGHJICMG@c?3?2users?2bestr?2documents?2librar@ 0000000180032a50     CctCharacterControllerManager.obj
 0002:00001af0       ??_C@_0DJ@FJGFFNLM@PxControllerManager?3?3getControl@ 0000000180032af0     CctCharacterControllerManager.obj
 0002:00001b38       ??_C@_0DO@NLBEEDJJ@PxControllerManager?3?3getObstacl@ 0000000180032b38     CctCharacterControllerManager.obj
 0002:00001b88       ??_C@_0DA@EMJKANDJ@CharacterControllerManager?3?3com@ 0000000180032b88     CctCharacterControllerManager.obj
 0002:00001bd0       ??_C@_0FL@LGCKMPFP@c?3?2users?2bestr?2documents?2librar@ 0000000180032bd0     CctCharacterControllerManager.obj
 0002:00001c40       ??_C@_0BM@OIFKLHDN@?$DMallocation?5names?5disabled?$DO@ 0000000180032c40     CctCharacterControllerManager.obj
 0002:00001c70       ??_C@_0GD@DPDNEHEI@c?3?2users?2bestr?2documents?2librar@ 0000000180032c70     CctCharacterControllerManager.obj
 0002:00001ce8       __real@40800000            0000000180032ce8     CctCharacterControllerManager.obj
 0002:00001cf0       __xmm@00000001000000010000000100000001 0000000180032cf0     CctCharacterControllerManager.obj
 0002:00001d10       __xmm@00000003000000020000000100000000 0000000180032d10     CctCharacterControllerManager.obj
 0002:00001d28       ??_7Controller@Cct@physx@@6B@ 0000000180032d28     CctController.obj
 0002:00001d50       ??_C@_0CF@LJAGPAMD@CCT?3?5up?5direction?5must?5be?5norma@ 0000000180032d50     CctController.obj
 0002:00001d80       ??_C@_0HA@ELHPJKBP@c?3?2users?2bestr?2documents?2librar@ 0000000180032d80     CctController.obj
 0002:00001e08       __real@38d1b717            0000000180032e08     CctController.obj
 0002:00001e10       ??_7PxObstacleContext@physx@@6B@ 0000000180032e10     CctObstacleContext.obj
 0002:00001e68       ??_7ObstacleContext@Cct@physx@@6B@ 0000000180032e68     CctObstacleContext.obj
 0002:00001ec0       ??_C@_0O@IPJBGLCC@HandleManager@ 0000000180032ec0     CctObstacleContext.obj
 0002:00001ed0       ??_C@_0HF@CPBIENJC@c?3?2users?2bestr?2documents?2librar@ 0000000180032ed0     CctObstacleContext.obj
 0002:00001f60       ??_7SweptBox@Cct@physx@@6B@ 0000000180032f60     CctSweptBox.obj
 0002:00001f78       ??_7SweptCapsule@Cct@physx@@6B@ 0000000180032f78     CctSweptCapsule.obj
 0002:00001f90       ??_7SweptVolume@Cct@physx@@6B@ 0000000180032f90     CctSweptVolume.obj
 0002:00001fa8       ??_C@_0BP@LLBHALBD@PxMeshOverlapUtil?3?3findOverlap@ 0000000180032fa8     PhysX3ExtensionsCHECKED:ExtTriangleMeshExt.obj
 0002:00001fd0       ??_C@_0GN@CAAFPKBN@c?3?2users?2bestr?2documents?2librar@ 0000000180032fd0     PhysX3ExtensionsCHECKED:ExtTriangleMeshExt.obj
 0002:00002058       ??_7?$PxHitCallback@UPxSweepHit@physx@@@physx@@6B@ 0000000180033058     PhysX3ExtensionsCHECKED:ExtRigidBodyExt.obj
 0002:00002078       ??_7?$PxHitBuffer@UPxSweepHit@physx@@@physx@@6B@ 0000000180033078     PhysX3ExtensionsCHECKED:ExtRigidBodyExt.obj
 0002:000020a0       ??_C@_0IE@PMLMABKM@?$CFs?3?5inertia?5tensor?5has?5negative@ 00000001800330a0     PhysX3ExtensionsCHECKED:ExtRigidBodyExt.obj
 0002:00002140       ??_C@_0GK@PNKCJEGC@c?3?2users?2bestr?2documents?2librar@ 0000000180033140     PhysX3ExtensionsCHECKED:ExtRigidBodyExt.obj
 0002:000021c0       ??_C@_08MJBGFJN@PxShape?$CK@ 00000001800331c0     PhysX3ExtensionsCHECKED:ExtRigidBodyExt.obj
 0002:000021d0       ??_C@_0ED@GFJAKEFC@computeMassAndInertia?3?5Provided@ 00000001800331d0     PhysX3ExtensionsCHECKED:ExtRigidBodyExt.obj
 0002:00002220       ??_C@_0FL@MGPHIFPL@computeMassAndInertia?3?5Not?5enou@ 0000000180033220     PhysX3ExtensionsCHECKED:ExtRigidBodyExt.obj
 0002:00002290       ??_C@_0ED@IINBLCPB@computeMassAndInertia?3?5Dynamic?5@ 0000000180033290     PhysX3ExtensionsCHECKED:ExtRigidBodyExt.obj
 0002:000022e0       ??_C@_0CF@NFENOJIA@PxRigidBodyExt?3?3updateMassAndIn@ 00000001800332e0     PhysX3ExtensionsCHECKED:ExtRigidBodyExt.obj
 0002:00002310       ??_C@_0FC@JIKFFKAL@?$CFs?3?5Mass?5and?5inertia?5computatio@ 0000000180033310     PhysX3ExtensionsCHECKED:ExtRigidBodyExt.obj
 0002:00002380       ??_C@_0ED@BHIJHOEP@?$CFs?3?5No?5density?5specified?0?5setti@ 0000000180033380     PhysX3ExtensionsCHECKED:ExtRigidBodyExt.obj
 0002:000023d0       ??_C@_0CI@NNBNKKJG@PxRigidBodyExt?3?3setMassAndUpdat@ 00000001800333d0     PhysX3ExtensionsCHECKED:ExtRigidBodyExt.obj
 0002:00002400       ??_C@_0EA@JNKKHEHF@?$CFs?3?5No?5mass?5specified?0?5setting?5@ 0000000180033400     PhysX3ExtensionsCHECKED:ExtRigidBodyExt.obj
 0002:00002450       ??_C@_0FI@DKLFOMEB@PxRigidBodyExt?3?3addForce?5method@ 0000000180033450     PhysX3ExtensionsCHECKED:ExtRigidBodyExt.obj
 0002:000024bc       __real@3daaaaab            00000001800334bc     PhysX3ExtensionsCHECKED:ExtRigidBodyExt.obj
 0002:000024c0       __real@3e747645            00000001800334c0     PhysX3ExtensionsCHECKED:ExtRigidBodyExt.obj
 0002:000024c4       __real@3e800000            00000001800334c4     PhysX3ExtensionsCHECKED:ExtRigidBodyExt.obj
 0002:000024c8       __real@3eaaaaab            00000001800334c8     PhysX3ExtensionsCHECKED:ExtRigidBodyExt.obj
 0002:000024cc       __real@3ecccccd            00000001800334cc     PhysX3ExtensionsCHECKED:ExtRigidBodyExt.obj
 0002:000024d0       __real@3f088889            00000001800334d0     PhysX3ExtensionsCHECKED:ExtRigidBodyExt.obj
 0002:000024d4       __real@3f2aaaab            00000001800334d4     PhysX3ExtensionsCHECKED:ExtRigidBodyExt.obj
 0002:000024d8       __real@3f8147ae            00000001800334d8     PhysX3ExtensionsCHECKED:ExtRigidBodyExt.obj
 0002:000024dc       __real@3f860a92            00000001800334dc     PhysX3ExtensionsCHECKED:ExtRigidBodyExt.obj
 0002:000024e0       __real@3faaaaab            00000001800334e0     PhysX3ExtensionsCHECKED:ExtRigidBodyExt.obj
 0002:000024e4       __real@3fc00000            00000001800334e4     PhysX3ExtensionsCHECKED:ExtRigidBodyExt.obj
 0002:000024e8       __real@40000000            00000001800334e8     PhysX3ExtensionsCHECKED:ExtRigidBodyExt.obj
 0002:000024ec       __real@40490fdb            00000001800334ec     PhysX3ExtensionsCHECKED:ExtRigidBodyExt.obj
 0002:000024f0       __real@40860a92            00000001800334f0     PhysX3ExtensionsCHECKED:ExtRigidBodyExt.obj
 0002:000024f4       __real@40c90fdb            00000001800334f4     PhysX3ExtensionsCHECKED:ExtRigidBodyExt.obj
 0002:000024f8       __real@41000000            00000001800334f8     PhysX3ExtensionsCHECKED:ExtRigidBodyExt.obj
 0002:00002500       __xmm@7f7fffff000000000000000000000000 0000000180033500     PhysX3ExtensionsCHECKED:ExtRigidBodyExt.obj
 0002:00002520       ??_7type_info@@6B@         0000000180033520     MSVCRT:std_type_info_static.obj
 0002:00002530       _pRawDllMain               0000000180033530     MSVCRT:dll_dllmain.obj
 0002:00002530       _pDefaultRawDllMain        0000000180033530     MSVCRT:dll_dllmain.obj
 0002:00002580       _load_config_used          0000000180033580     MSVCRT:loadcfg.obj
 0002:000028a0       ??_R4type_info@@6B@        00000001800338a0     MSVCRT:std_type_info_static.obj
 0002:000028d0       ??_R3type_info@@8          00000001800338d0     MSVCRT:std_type_info_static.obj
 0002:000028e8       ??_R2type_info@@8          00000001800338e8     MSVCRT:std_type_info_static.obj
 0002:000028f8       ??_R1A@?0A@EA@type_info@@8 00000001800338f8     MSVCRT:std_type_info_static.obj
 0002:00002be8       __rtc_iaa                  0000000180033be8     MSVCRT:initsect.obj
 0002:00002cf8       __rtc_izz                  0000000180033cf8     MSVCRT:initsect.obj
 0002:00002e08       __rtc_taa                  0000000180033e08     MSVCRT:initsect.obj
 0002:00002f18       __rtc_tzz                  0000000180033f18     MSVCRT:initsect.obj
 0003:00000074       _fltused                   0000000180038074     MSVCRT:fltused.obj
 0003:00000080       __scrt_native_dllmain_reason 0000000180038080     MSVCRT:utility.obj
 0003:00000088       __security_cookie_complement 0000000180038088     MSVCRT:gs_cookie.obj
 0003:00000090       __security_cookie          0000000180038090     MSVCRT:gs_cookie.obj
 0003:000000a0       __isa_available            00000001800380a0     MSVCRT:cpu_disp.obj
 0003:000000a4       __isa_enabled              00000001800380a4     MSVCRT:cpu_disp.obj
 0003:000000a8       __memcpy_nt_iters          00000001800380a8     MSVCRT:cpu_disp.obj
 0003:000000c0       __scrt_ucrt_dll_is_in_use  00000001800380c0     MSVCRT:ucrt_stubs.obj
 0003:000001d0       ??_R0?AVMutexImpl@shdfnd@physx@@@8 00000001800381d0     CctCharacterControllerManager.obj
 0003:00000208       ??_R0?AVCharacterControllerManager@Cct@physx@@@8 0000000180038208     CctCharacterControllerManager.obj
 0003:00000250       ??_R0?AVObstacleContext@Cct@physx@@@8 0000000180038250     CctCharacterControllerManager.obj
 0003:00000290       ??_R0?AVCapsuleController@Cct@physx@@@8 0000000180038290     CctCharacterControllerManager.obj
 0003:000002d0       ??_R0?AVBoxController@Cct@physx@@@8 00000001800382d0     CctCharacterControllerManager.obj
 0003:00000308       ??_R0?AVRenderBuffer@Cm@physx@@@8 0000000180038308     CctCharacterControllerManager.obj
 0003:00000340       ??_R0?AVtype_info@@@8      0000000180038340     MSVCRT:std_type_info_static.obj
 0003:000004f0       ?__type_info_root_node@@3U__type_info_node@@A 00000001800384f0     MSVCRT:tncleanup.obj
 0003:00000508       ?_OptionsStorage@?1??__local_stdio_printf_options@@9@4_KA 0000000180038508     MSVCRT:default_local_stdio_options.obj
 0003:00000518       ?_OptionsStorage@?1??__local_stdio_scanf_options@@9@4_KA 0000000180038518     MSVCRT:default_local_stdio_options.obj
 0003:00000528       __scrt_current_native_startup_state 0000000180038528     MSVCRT:utility.obj
 0003:00000530       __scrt_native_startup_lock 0000000180038530     MSVCRT:utility.obj
 0003:00000580       __scrt_debugger_hook_flag  0000000180038580     MSVCRT:utility_desktop.obj
 0003:00000584       __favor                    0000000180038584     MSVCRT:cpu_disp.obj
 0003:00000588       __dyn_tls_init_callback    0000000180038588     <common>
 0005:00000000       __imp_RtlLookupFunctionEntry 000000018003b000     kernel32:KERNEL32.dll
 0005:00000008       __imp_GetModuleHandleW     000000018003b008     kernel32:KERNEL32.dll
 0005:00000010       __imp_IsProcessorFeaturePresent 000000018003b010     kernel32:KERNEL32.dll
 0005:00000018       __imp_GetStartupInfoW      000000018003b018     kernel32:KERNEL32.dll
 0005:00000020       __imp_SetUnhandledExceptionFilter 000000018003b020     kernel32:KERNEL32.dll
 0005:00000028       __imp_UnhandledExceptionFilter 000000018003b028     kernel32:KERNEL32.dll
 0005:00000030       __imp_IsDebuggerPresent    000000018003b030     kernel32:KERNEL32.dll
 0005:00000038       __imp_RtlVirtualUnwind     000000018003b038     kernel32:KERNEL32.dll
 0005:00000040       __imp_InitializeSListHead  000000018003b040     kernel32:KERNEL32.dll
 0005:00000048       __imp_RtlCaptureContext    000000018003b048     kernel32:KERNEL32.dll
 0005:00000050       __imp_DisableThreadLibraryCalls 000000018003b050     kernel32:KERNEL32.dll
 0005:00000058       __imp_GetSystemTimeAsFileTime 000000018003b058     kernel32:KERNEL32.dll
 0005:00000060       __imp_GetCurrentThreadId   000000018003b060     kernel32:KERNEL32.dll
 0005:00000068       __imp_GetCurrentProcessId  000000018003b068     kernel32:KERNEL32.dll
 0005:00000070       __imp_QueryPerformanceCounter 000000018003b070     kernel32:KERNEL32.dll
 0005:00000078       \177KERNEL32_NULL_THUNK_DATA 000000018003b078     kernel32:KERNEL32.dll
 0005:000000e8       __imp_?CompleteBoxPruning@Cm@physx@@YA_NPEBVPxBounds3@2@IAEAV?$Array@IVNamedAllocator@shdfnd@physx@@@shdfnd@2@AEBVAxes@Gu@2@@Z 000000018003b0e8     PhysX3CommonCHECKED_x64:PhysX3CommonCHECKED_x64.dll
 0005:000000f0       __imp_?findOverlapHeightField@PxMeshQuery@physx@@SAIAEBVPxGeometry@2@AEBVPxTransform@2@AEBVPxHeightFieldGeometry@2@1PEAIIIAEA_N@Z 000000018003b0f0     PhysX3CommonCHECKED_x64:PhysX3CommonCHECKED_x64.dll
 0005:000000f8       __imp_?findOverlapTriangleMesh@PxMeshQuery@physx@@SAIAEBVPxGeometry@2@AEBVPxTransform@2@AEBVPxTriangleMeshGeometry@2@1PEAIIIAEA_N@Z 000000018003b0f8     PhysX3CommonCHECKED_x64:PhysX3CommonCHECKED_x64.dll
 0005:00000100       __imp_?getRaycastFuncTable@Gu@physx@@YAAEAY06Q6AIAEBVPxGeometry@2@AEBVPxTransform@2@AEBVPxVec3@2@2MV?$PxFlags@W4Enum@PxHitFlag@physx@@G@2@IPEIAUPxRaycastHit@2@@ZXZ 000000018003b100     PhysX3CommonCHECKED_x64:PhysX3CommonCHECKED_x64.dll
 0005:00000108       __imp_?sweep@PxMeshQuery@physx@@SA_NAEBVPxVec3@2@MAEBVPxGeometry@2@AEBVPxTransform@2@IPEBVPxTriangle@2@AEAUPxSweepHit@2@V?$PxFlags@W4Enum@PxHitFlag@physx@@G@2@PEBIM_N@Z 000000018003b108     PhysX3CommonCHECKED_x64:PhysX3CommonCHECKED_x64.dll
 0005:00000110       __imp_??0RenderOutput@Cm@physx@@QEAA@AEAVRenderBuffer@12@@Z 000000018003b110     PhysX3CommonCHECKED_x64:PhysX3CommonCHECKED_x64.dll
 0005:00000118       __imp_??6RenderOutput@Cm@physx@@QEAAAEAV012@I@Z 000000018003b118     PhysX3CommonCHECKED_x64:PhysX3CommonCHECKED_x64.dll
 0005:00000120       __imp_??6RenderOutput@Cm@physx@@QEAAAEAV012@AEBVPxTransform@2@@Z 000000018003b120     PhysX3CommonCHECKED_x64:PhysX3CommonCHECKED_x64.dll
 0005:00000128       __imp_?outputCapsule@RenderOutput@Cm@physx@@QEAAAEAV123@MMAEBVPxMat44@3@@Z 000000018003b128     PhysX3CommonCHECKED_x64:PhysX3CommonCHECKED_x64.dll
 0005:00000130       __imp_??6Cm@physx@@YAAEAVRenderOutput@01@AEAV201@AEBUDebugBox@01@@Z 000000018003b130     PhysX3CommonCHECKED_x64:PhysX3CommonCHECKED_x64.dll
 0005:00000138       __imp_?PxTransformFromSegment@physx@@YA?AVPxTransform@1@AEBVPxVec3@1@0PEAM@Z 000000018003b138     PhysX3CommonCHECKED_x64:PhysX3CommonCHECKED_x64.dll
 0005:00000140       __imp_?sweep@PxGeometryQuery@physx@@SA_NAEBVPxVec3@2@MAEBVPxGeometry@2@AEBVPxTransform@2@12AEAUPxSweepHit@2@V?$PxFlags@W4Enum@PxHitFlag@physx@@G@2@M@Z 000000018003b140     PhysX3CommonCHECKED_x64:PhysX3CommonCHECKED_x64.dll
 0005:00000148       __imp_?computePenetration@PxGeometryQuery@physx@@SA_NAEAVPxVec3@2@AEAMAEBVPxGeometry@2@AEBVPxTransform@2@23@Z 000000018003b148     PhysX3CommonCHECKED_x64:PhysX3CommonCHECKED_x64.dll
 0005:00000150       __imp_?intersectOBBOBB@Gu@physx@@YA_NAEBVPxVec3@2@0AEBVPxMat33@2@001_N@Z 000000018003b150     PhysX3CommonCHECKED_x64:PhysX3CommonCHECKED_x64.dll
 0005:00000158       __imp_?distanceSegmentBoxSquared@Gu@physx@@YAMAEBVPxVec3@2@000AEBVPxMat33@2@PEAMPEAV32@@Z 000000018003b158     PhysX3CommonCHECKED_x64:PhysX3CommonCHECKED_x64.dll
 0005:00000160       __imp_?getTriangle@PxMeshQuery@physx@@SAXAEBVPxTriangleMeshGeometry@2@AEBVPxTransform@2@IAEAVPxTriangle@2@PEAI3@Z 000000018003b160     PhysX3CommonCHECKED_x64:PhysX3CommonCHECKED_x64.dll
 0005:00000168       __imp_?getTriangle@PxMeshQuery@physx@@SAXAEBVPxHeightFieldGeometry@2@AEBVPxTransform@2@IAEAVPxTriangle@2@PEAI3@Z 000000018003b168     PhysX3CommonCHECKED_x64:PhysX3CommonCHECKED_x64.dll
 0005:00000170       __imp_??6RenderOutput@Cm@physx@@QEAAAEAV012@W4Primitive@012@@Z 000000018003b170     PhysX3CommonCHECKED_x64:PhysX3CommonCHECKED_x64.dll
 0005:00000178       __imp_??6RenderOutput@Cm@physx@@QEAAAEAV012@VPxVec3@2@@Z 000000018003b178     PhysX3CommonCHECKED_x64:PhysX3CommonCHECKED_x64.dll
 0005:00000180       __imp_?intersectTriangleBox_Unsafe@Gu@physx@@YAHAEBVPxVec3@2@0000@Z 000000018003b180     PhysX3CommonCHECKED_x64:PhysX3CommonCHECKED_x64.dll
 0005:00000188       __imp_?distanceSegmentSegmentSquared@Gu@physx@@YAMAEBVPxVec3@2@000PEAM1@Z 000000018003b188     PhysX3CommonCHECKED_x64:PhysX3CommonCHECKED_x64.dll
 0005:00000190       \177PhysX3CommonCHECKED_x64_NULL_THUNK_DATA 000000018003b190     PhysX3CommonCHECKED_x64:PhysX3CommonCHECKED_x64.dll
 0005:00000208       __imp_?getAllocator@shdfnd@physx@@YAAEAVPxAllocatorCallback@2@XZ 000000018003b208     PxFoundationCHECKED_x64:PxFoundationCHECKED_x64.dll
 0005:00000210       __imp_?PxDiagonalize@physx@@YA?AVPxVec3@1@AEBVPxMat33@1@AEAVPxQuat@1@@Z 000000018003b210     PxFoundationCHECKED_x64:PxFoundationCHECKED_x64.dll
 0005:00000218       __imp_?PxShortestRotation@physx@@YA?AVPxQuat@1@AEBVPxVec3@1@0@Z 000000018003b218     PxFoundationCHECKED_x64:PxFoundationCHECKED_x64.dll
 0005:00000220       __imp_?error@Foundation@shdfnd@physx@@QEAAXW4Enum@PxErrorCode@3@PEBDH1ZZ 000000018003b220     PxFoundationCHECKED_x64:PxFoundationCHECKED_x64.dll
 0005:00000228       __imp_??0NamedAllocator@shdfnd@physx@@QEAA@PEBD@Z 000000018003b228     PxFoundationCHECKED_x64:PxFoundationCHECKED_x64.dll
 0005:00000230       __imp_?lock@MutexImpl@shdfnd@physx@@QEAAXXZ 000000018003b230     PxFoundationCHECKED_x64:PxFoundationCHECKED_x64.dll
 0005:00000238       __imp_?unlock@MutexImpl@shdfnd@physx@@QEAAXXZ 000000018003b238     PxFoundationCHECKED_x64:PxFoundationCHECKED_x64.dll
 0005:00000240       __imp_PxGetProfilerCallback 000000018003b240     PxFoundationCHECKED_x64:PxFoundationCHECKED_x64.dll
 0005:00000248       __imp_??0NamedAllocator@shdfnd@physx@@QEAA@AEBV012@@Z 000000018003b248     PxFoundationCHECKED_x64:PxFoundationCHECKED_x64.dll
 0005:00000250       __imp_??1NamedAllocator@shdfnd@physx@@QEAA@XZ 000000018003b250     PxFoundationCHECKED_x64:PxFoundationCHECKED_x64.dll
 0005:00000258       __imp_?allocate@NamedAllocator@shdfnd@physx@@QEAAPEAX_KPEBDH@Z 000000018003b258     PxFoundationCHECKED_x64:PxFoundationCHECKED_x64.dll
 0005:00000260       __imp_?deallocate@NamedAllocator@shdfnd@physx@@QEAAXPEAX@Z 000000018003b260     PxFoundationCHECKED_x64:PxFoundationCHECKED_x64.dll
 0005:00000268       __imp_PxGetFoundation      000000018003b268     PxFoundationCHECKED_x64:PxFoundationCHECKED_x64.dll
 0005:00000270       __imp_??0MutexImpl@shdfnd@physx@@QEAA@XZ 000000018003b270     PxFoundationCHECKED_x64:PxFoundationCHECKED_x64.dll
 0005:00000278       __imp_??1MutexImpl@shdfnd@physx@@QEAA@XZ 000000018003b278     PxFoundationCHECKED_x64:PxFoundationCHECKED_x64.dll
 0005:00000280       __imp_?getSize@MutexImpl@shdfnd@physx@@SAIXZ 000000018003b280     PxFoundationCHECKED_x64:PxFoundationCHECKED_x64.dll
 0005:00000288       __imp_?getInstance@Foundation@shdfnd@physx@@SAAEAV123@XZ 000000018003b288     PxFoundationCHECKED_x64:PxFoundationCHECKED_x64.dll
 0005:00000290       __imp_?incRefCount@Foundation@shdfnd@physx@@SAXXZ 000000018003b290     PxFoundationCHECKED_x64:PxFoundationCHECKED_x64.dll
 0005:00000298       __imp_?decRefCount@Foundation@shdfnd@physx@@SAXXZ 000000018003b298     PxFoundationCHECKED_x64:PxFoundationCHECKED_x64.dll
 0005:000002a0       \177PxFoundationCHECKED_x64_NULL_THUNK_DATA 000000018003b2a0     PxFoundationCHECKED_x64:PxFoundationCHECKED_x64.dll
 0005:00000310       __imp_memcpy               000000018003b310     vcruntime:VCRUNTIME140.dll
 0005:00000318       __imp_memset               000000018003b318     vcruntime:VCRUNTIME140.dll
 0005:00000320       __imp___std_type_info_destroy_list 000000018003b320     vcruntime:VCRUNTIME140.dll
 0005:00000328       __imp___C_specific_handler 000000018003b328     vcruntime:VCRUNTIME140.dll
 0005:00000330       __imp__purecall            000000018003b330     vcruntime:VCRUNTIME140.dll
 0005:00000338       __imp___std_type_info_name 000000018003b338     vcruntime:VCRUNTIME140.dll
 0005:00000340       \177VCRUNTIME140_NULL_THUNK_DATA 000000018003b340     vcruntime:VCRUNTIME140.dll
 0005:000003a0       __imp_free                 000000018003b3a0     ucrt:api-ms-win-crt-heap-l1-1-0.dll
 0005:000003a8       \177api-ms-win-crt-heap-l1-1-0_NULL_THUNK_DATA 000000018003b3a8     ucrt:api-ms-win-crt-heap-l1-1-0.dll
 0005:00000400       __imp__fpclass             000000018003b400     ucrt:api-ms-win-crt-math-l1-1-0.dll
 0005:00000408       \177api-ms-win-crt-math-l1-1-0_NULL_THUNK_DATA 000000018003b408     ucrt:api-ms-win-crt-math-l1-1-0.dll
 0005:00000460       __imp__initialize_narrow_environment 000000018003b460     ucrt:api-ms-win-crt-runtime-l1-1-0.dll
 0005:00000468       __imp__initterm_e          000000018003b468     ucrt:api-ms-win-crt-runtime-l1-1-0.dll
 0005:00000470       __imp__initterm            000000018003b470     ucrt:api-ms-win-crt-runtime-l1-1-0.dll
 0005:00000478       __imp__initialize_onexit_table 000000018003b478     ucrt:api-ms-win-crt-runtime-l1-1-0.dll
 0005:00000480       __imp__execute_onexit_table 000000018003b480     ucrt:api-ms-win-crt-runtime-l1-1-0.dll
 0005:00000488       __imp__configure_narrow_argv 000000018003b488     ucrt:api-ms-win-crt-runtime-l1-1-0.dll
 0005:00000490       __imp_terminate            000000018003b490     ucrt:api-ms-win-crt-runtime-l1-1-0.dll
 0005:00000498       __imp__cexit               000000018003b498     ucrt:api-ms-win-crt-runtime-l1-1-0.dll
 0005:000004a0       __imp__register_onexit_function 000000018003b4a0     ucrt:api-ms-win-crt-runtime-l1-1-0.dll
 0005:000004a8       __imp__crt_atexit          000000018003b4a8     ucrt:api-ms-win-crt-runtime-l1-1-0.dll
 0005:000004b0       __imp__seh_filter_dll      000000018003b4b0     ucrt:api-ms-win-crt-runtime-l1-1-0.dll
 0005:000004b8       __imp__crt_at_quick_exit   000000018003b4b8     ucrt:api-ms-win-crt-runtime-l1-1-0.dll
 0005:000004c0       \177api-ms-win-crt-runtime-l1-1-0_NULL_THUNK_DATA 000000018003b4c0     ucrt:api-ms-win-crt-runtime-l1-1-0.dll
 0005:00000528       __IMPORT_DESCRIPTOR_PxFoundationCHECKED_x64 000000018003b528     PxFoundationCHECKED_x64:PxFoundationCHECKED_x64.dll
 0005:0000053c       __IMPORT_DESCRIPTOR_PhysX3CommonCHECKED_x64 000000018003b53c     PhysX3CommonCHECKED_x64:PhysX3CommonCHECKED_x64.dll
 0005:00000550       __IMPORT_DESCRIPTOR_VCRUNTIME140 000000018003b550     vcruntime:VCRUNTIME140.dll
 0005:00000564       __IMPORT_DESCRIPTOR_api-ms-win-crt-math-l1-1-0 000000018003b564     ucrt:api-ms-win-crt-math-l1-1-0.dll
 0005:00000578       __IMPORT_DESCRIPTOR_api-ms-win-crt-runtime-l1-1-0 000000018003b578     ucrt:api-ms-win-crt-runtime-l1-1-0.dll
 0005:0000058c       __IMPORT_DESCRIPTOR_api-ms-win-crt-heap-l1-1-0 000000018003b58c     ucrt:api-ms-win-crt-heap-l1-1-0.dll
 0005:000005a0       __IMPORT_DESCRIPTOR_KERNEL32 000000018003b5a0     kernel32:KERNEL32.dll
 0005:000005b4       __NULL_IMPORT_DESCRIPTOR   000000018003b5b4     PxFoundationCHECKED_x64:PxFoundationCHECKED_x64.dll
 0006:00000000       __guard_check_icall_fptr   000000018003d000     MSVCRT:guard_support.obj
 0006:00000010       __guard_dispatch_icall_fptr 000000018003d010     MSVCRT:guard_support.obj

 entry point at        0001:00000910

 Static symbols

 0004:fffc7000       $pdata$1$??_EPxFoundation@physx@@MEAAPEAXI@Z 0000000180000000     CctController.obj
 0002:fffcf000       $chain$1$??_EPxFoundation@physx@@MEAAPEAXI@Z 0000000180000000     CctController.obj
 0004:fffc7000       $pdata$0$??_EPxFoundation@physx@@MEAAPEAXI@Z 0000000180000000     CctController.obj
 0002:fffcf000       $chain$0$??_EPxFoundation@physx@@MEAAPEAXI@Z 0000000180000000     CctController.obj
 0004:fffc7000       $pdata$??_EPxFoundation@physx@@MEAAPEAXI@Z 0000000180000000     CctController.obj
 0002:fffcf000       $unwind$??_I@YAXPEAX_K1P6AX0@Z@Z 0000000180000000     CctObstacleContext.obj
 0004:fffc7000       $pdata$??_I@YAXPEAX_K1P6AX0@Z@Z 0000000180000000     CctObstacleContext.obj
 0002:fffcf000       $unwind$??_EPxFoundation@physx@@MEAAPEAXI@Z 0000000180000000     CctController.obj
 0004:fffc7000       $pdata$??_GPxFoundation@physx@@MEAAPEAXI@Z 0000000180000000     CctController.obj
 0002:fffcf000       $unwind$??_GPxFoundation@physx@@MEAAPEAXI@Z 0000000180000000     CctObstacleContext.obj
 0004:fffc7000       $pdata$??_GPxFoundation@physx@@MEAAPEAXI@Z 0000000180000000     CctObstacleContext.obj
 0002:fffcf000       $unwind$??_EPxFoundation@physx@@MEAAPEAXI@Z 0000000180000000     CctObstacleContext.obj
 0004:fffc7000       $pdata$??_EPxFoundation@physx@@MEAAPEAXI@Z 0000000180000000     CctObstacleContext.obj
 0002:fffcf000       $chain$0$??_EPxFoundation@physx@@MEAAPEAXI@Z 0000000180000000     CctObstacleContext.obj
 0004:fffc7000       $pdata$0$??_EPxFoundation@physx@@MEAAPEAXI@Z 0000000180000000     CctObstacleContext.obj
 0002:fffcf000       $chain$1$??_EPxFoundation@physx@@MEAAPEAXI@Z 0000000180000000     CctObstacleContext.obj
 0004:fffc7000       $pdata$1$??_EPxFoundation@physx@@MEAAPEAXI@Z 0000000180000000     CctObstacleContext.obj
 0002:fffcf000       $unwind$??_GPxFoundation@physx@@MEAAPEAXI@Z 0000000180000000     CctController.obj
 0004:fffc7000       $pdata$1$??_EPxControllerManager@physx@@MEAAPEAXI@Z 0000000180000000     CctController.obj
 0002:fffcf000       $chain$1$??_EPxControllerManager@physx@@MEAAPEAXI@Z 0000000180000000     CctController.obj
 0004:fffc7000       $pdata$0$??_EPxControllerManager@physx@@MEAAPEAXI@Z 0000000180000000     CctController.obj
 0002:fffcf000       $chain$0$??_EPxControllerManager@physx@@MEAAPEAXI@Z 0000000180000000     CctController.obj
 0004:fffc7000       $pdata$??_EPxControllerManager@physx@@MEAAPEAXI@Z 0000000180000000     CctController.obj
 0002:fffcf000       $unwind$??_H@YAXPEAX_K1P6APEAX0@Z@Z 0000000180000000     CctCapsuleController.obj
 0004:fffc7000       $pdata$??_H@YAXPEAX_K1P6APEAX0@Z@Z 0000000180000000     CctCapsuleController.obj
 0002:fffcf000       $unwind$??_I@YAXPEAX_K1P6AX0@Z@Z 0000000180000000     CctCapsuleController.obj
 0004:fffc7000       $pdata$??_I@YAXPEAX_K1P6AX0@Z@Z 0000000180000000     CctCapsuleController.obj
 0002:fffcf000       $unwind$??_GPxController@physx@@MEAAPEAXI@Z 0000000180000000     CctCapsuleController.obj
 0004:fffc7000       $pdata$??_GPxController@physx@@MEAAPEAXI@Z 0000000180000000     CctCapsuleController.obj
 0002:fffcf000       $unwind$??_GPxControllerManager@physx@@MEAAPEAXI@Z 0000000180000000     CctCapsuleController.obj
 0004:fffc7000       $pdata$??_GPxControllerManager@physx@@MEAAPEAXI@Z 0000000180000000     CctCapsuleController.obj
 0002:fffcf000       $unwind$??_EPxControllerManager@physx@@MEAAPEAXI@Z 0000000180000000     CctCapsuleController.obj
 0004:fffc7000       $pdata$??_EPxControllerManager@physx@@MEAAPEAXI@Z 0000000180000000     CctCapsuleController.obj
 0002:fffcf000       $chain$0$??_EPxControllerManager@physx@@MEAAPEAXI@Z 0000000180000000     CctCapsuleController.obj
 0004:fffc7000       $pdata$0$??_EPxControllerManager@physx@@MEAAPEAXI@Z 0000000180000000     CctCapsuleController.obj
 0002:fffcf000       $chain$1$??_EPxControllerManager@physx@@MEAAPEAXI@Z 0000000180000000     CctCapsuleController.obj
 0000:fffc0000       .debug$S                   0000000180000000     PhysX3CharacterKinematicCHECKED_x64.exp
 0004:fffc7000       $pdata$1$??_EPxControllerManager@physx@@MEAAPEAXI@Z 0000000180000000     CctCapsuleController.obj
 0002:fffcf000       $unwind$??_GPxFoundation@physx@@MEAAPEAXI@Z 0000000180000000     CctCapsuleController.obj
 0000:fffc0000       .debug$S                   0000000180000000     kernel32:KERNEL32.dll
 0000:fffc0000       .debug$S                   0000000180000000     kernel32:KERNEL32.dll
 0000:fffc0000       .debug$S                   0000000180000000     kernel32:KERNEL32.dll
 0000:fffc0000       .debug$S                   0000000180000000     kernel32:KERNEL32.dll
 0000:fffc0000       .debug$S                   0000000180000000     kernel32:KERNEL32.dll
 0000:fffc0000       .debug$S                   0000000180000000     kernel32:KERNEL32.dll
 0000:fffc0000       .debug$S                   0000000180000000     kernel32:KERNEL32.dll
 0000:fffc0000       .debug$S                   0000000180000000     kernel32:KERNEL32.dll
 0000:fffc0000       .debug$S                   0000000180000000     kernel32:KERNEL32.dll
 0000:fffc0000       .debug$S                   0000000180000000     kernel32:KERNEL32.dll
 0000:fffc0000       .debug$S                   0000000180000000     kernel32:KERNEL32.dll
 0000:fffc0000       .debug$S                   0000000180000000     kernel32:KERNEL32.dll
 0000:fffc0000       .debug$S                   0000000180000000     kernel32:KERNEL32.dll
 0000:fffc0000       .debug$S                   0000000180000000     kernel32:KERNEL32.dll
 0000:fffc0000       .debug$S                   0000000180000000     kernel32:KERNEL32.dll
 0004:fffc7000       $pdata$??_GPxFoundation@physx@@MEAAPEAXI@Z 0000000180000000     CctCapsuleController.obj
 0002:fffcf000       $unwind$??_EPxFoundation@physx@@MEAAPEAXI@Z 0000000180000000     CctCapsuleController.obj
 0004:fffc7000       $pdata$??_EPxFoundation@physx@@MEAAPEAXI@Z 0000000180000000     CctCapsuleController.obj
 0000:fffc0000       .debug$S                   0000000180000000     ucrt:api-ms-win-crt-runtime-l1-1-0.dll
 0000:fffc0000       .debug$S                   0000000180000000     ucrt:api-ms-win-crt-runtime-l1-1-0.dll
 0000:fffc0000       .debug$S                   0000000180000000     ucrt:api-ms-win-crt-runtime-l1-1-0.dll
 0000:fffc0000       .debug$S                   0000000180000000     ucrt:api-ms-win-crt-runtime-l1-1-0.dll
 0000:fffc0000       .debug$S                   0000000180000000     ucrt:api-ms-win-crt-runtime-l1-1-0.dll
 0000:fffc0000       .debug$S                   0000000180000000     ucrt:api-ms-win-crt-runtime-l1-1-0.dll
 0000:fffc0000       .debug$S                   0000000180000000     ucrt:api-ms-win-crt-runtime-l1-1-0.dll
 0000:fffc0000       .debug$S                   0000000180000000     ucrt:api-ms-win-crt-runtime-l1-1-0.dll
 0000:fffc0000       .debug$S                   0000000180000000     ucrt:api-ms-win-crt-runtime-l1-1-0.dll
 0000:fffc0000       .debug$S                   0000000180000000     ucrt:api-ms-win-crt-runtime-l1-1-0.dll
 0000:fffc0000       .debug$S                   0000000180000000     ucrt:api-ms-win-crt-heap-l1-1-0.dll
 0000:fffc0000       .debug$S                   0000000180000000     ucrt:api-ms-win-crt-runtime-l1-1-0.dll
 0000:fffc0000       .debug$S                   0000000180000000     ucrt:api-ms-win-crt-runtime-l1-1-0.dll
 0000:fffc0000       .debug$S                   0000000180000000     ucrt:api-ms-win-crt-math-l1-1-0.dll
 0002:fffcf000       $chain$0$??_EPxFoundation@physx@@MEAAPEAXI@Z 0000000180000000     CctCapsuleController.obj
 0000:fffc0000       .debug$S                   0000000180000000     vcruntime:VCRUNTIME140.dll
 0000:fffc0000       .debug$S                   0000000180000000     vcruntime:VCRUNTIME140.dll
 0000:fffc0000       .debug$S                   0000000180000000     vcruntime:VCRUNTIME140.dll
 0000:fffc0000       .debug$S                   0000000180000000     vcruntime:VCRUNTIME140.dll
 0000:fffc0000       .debug$S                   0000000180000000     vcruntime:VCRUNTIME140.dll
 0000:fffc0000       .debug$S                   0000000180000000     vcruntime:VCRUNTIME140.dll
 0002:fffcf000       $chain$0$??_EPxFoundation@physx@@MEAAPEAXI@Z 0000000180000000     CctCharacterControllerCallbacks.obj
 0004:fffc7000       $pdata$0$??_EPxFoundation@physx@@MEAAPEAXI@Z 0000000180000000     CctCapsuleController.obj
 0002:fffcf000       $chain$1$??_EPxFoundation@physx@@MEAAPEAXI@Z 0000000180000000     CctCapsuleController.obj
 0004:fffc7000       $pdata$1$??_EPxFoundation@physx@@MEAAPEAXI@Z 0000000180000000     CctCapsuleController.obj
 0000:fffc3000       __guard_fids__guard_icall_checks_enforced 0000000180000000     MSVCRT:guard_support.obj
 0000:fffc3000       __guard_fids__             0000000180000000     MSVCRT:guard_support.obj
 0002:fffcf000       $unwind$??_EPxControllerManager@physx@@MEAAPEAXI@Z 0000000180000000     CctController.obj
 0004:fffc7000       $pdata$??_GPxControllerManager@physx@@MEAAPEAXI@Z 0000000180000000     CctController.obj
 0002:fffcf000       $unwind$??_GPxControllerManager@physx@@MEAAPEAXI@Z 0000000180000000     CctController.obj
 0004:fffc7000       $pdata$??_I@YAXPEAX_K1P6AX0@Z@Z 0000000180000000     CctController.obj
 0002:fffcf000       $unwind$??_I@YAXPEAX_K1P6AX0@Z@Z 0000000180000000     CctController.obj
 0004:fffc7000       $pdata$??_H@YAXPEAX_K1P6APEAX0@Z@Z 0000000180000000     CctController.obj
 0002:fffcf000       $unwind$??_H@YAXPEAX_K1P6APEAX0@Z@Z 0000000180000000     CctController.obj
 0002:fffcf000       $unwind$??_GPxControllerManager@physx@@MEAAPEAXI@Z 0000000180000000     CctObstacleContext.obj
 0000:fffc3000       __guard_fids___scrt_set_unhandled_exception_filter 0000000180000000     MSVCRT:utility_desktop.obj
 0004:fffc7000       $pdata$??_GPxControllerManager@physx@@MEAAPEAXI@Z 0000000180000000     CctObstacleContext.obj
 0002:fffcf000       $unwind$??_EPxControllerManager@physx@@MEAAPEAXI@Z 0000000180000000     CctObstacleContext.obj
 0004:fffc7000       $pdata$??_EPxControllerManager@physx@@MEAAPEAXI@Z 0000000180000000     CctObstacleContext.obj
 0002:fffcf000       $chain$0$??_EPxControllerManager@physx@@MEAAPEAXI@Z 0000000180000000     CctObstacleContext.obj
 0004:fffc7000       $pdata$0$??_EPxControllerManager@physx@@MEAAPEAXI@Z 0000000180000000     CctObstacleContext.obj
 0002:fffcf000       $chain$1$??_EPxControllerManager@physx@@MEAAPEAXI@Z 0000000180000000     CctObstacleContext.obj
 0004:fffc7000       $pdata$??_EPxFoundation@physx@@MEAAPEAXI@Z 0000000180000000     CctCharacterControllerCallbacks.obj
 0002:fffcf000       $unwind$??_EPxFoundation@physx@@MEAAPEAXI@Z 0000000180000000     CctCharacterControllerCallbacks.obj
 0004:fffc7000       $pdata$??_GPxFoundation@physx@@MEAAPEAXI@Z 0000000180000000     CctCharacterControllerCallbacks.obj
 0002:fffcf000       $unwind$??_GPxFoundation@physx@@MEAAPEAXI@Z 0000000180000000     CctCharacterControllerCallbacks.obj
 0004:fffc7000       $pdata$??_I@YAXPEAX_K1P6AX0@Z@Z 0000000180000000     CctCharacterControllerCallbacks.obj
 0002:fffcf000       $unwind$??_I@YAXPEAX_K1P6AX0@Z@Z 0000000180000000     CctCharacterControllerCallbacks.obj
 0004:fffc7000       $pdata$??_H@YAXPEAX_K1P6APEAX0@Z@Z 0000000180000000     CctCharacterControllerCallbacks.obj
 0002:fffcf000       $unwind$??_H@YAXPEAX_K1P6APEAX0@Z@Z 0000000180000000     CctCharacterControllerCallbacks.obj
 0002:fffcf000       $chain$1$??_EPxFoundation@physx@@MEAAPEAXI@Z 0000000180000000     CctCharacterControllerCallbacks.obj
 0004:fffc7000       $pdata$1$??_EPxFoundation@physx@@MEAAPEAXI@Z 0000000180000000     CctCharacterControllerCallbacks.obj
 0002:fffcf000       $unwind$??DPxQuat@physx@@QEBA?AV01@AEBV01@@Z 0000000180000000     CctCharacterControllerCallbacks.obj
 0004:fffc7000       $pdata$??DPxQuat@physx@@QEBA?AV01@AEBV01@@Z 0000000180000000     CctCharacterControllerCallbacks.obj
 0002:fffcf000       $unwind$??_GPxControllerManager@physx@@MEAAPEAXI@Z 0000000180000000     CctCharacterControllerCallbacks.obj
 0004:fffc7000       $pdata$??_GPxControllerManager@physx@@MEAAPEAXI@Z 0000000180000000     CctCharacterControllerCallbacks.obj
 0002:fffcf000       $unwind$??_EPxControllerManager@physx@@MEAAPEAXI@Z 0000000180000000     CctCharacterControllerCallbacks.obj
 0004:fffc7000       $pdata$??_EPxControllerManager@physx@@MEAAPEAXI@Z 0000000180000000     CctCharacterControllerCallbacks.obj
 0002:fffcf000       $chain$0$??_EPxControllerManager@physx@@MEAAPEAXI@Z 0000000180000000     CctCharacterControllerCallbacks.obj
 0002:fffcf000       $unwind$??_H@YAXPEAX_K1P6APEAX0@Z@Z 0000000180000000     CctCharacterController.obj
 0004:fffc7000       $pdata$??_H@YAXPEAX_K1P6APEAX0@Z@Z 0000000180000000     CctCharacterController.obj
 0002:fffcf000       $unwind$??_I@YAXPEAX_K1P6AX0@Z@Z 0000000180000000     CctCharacterController.obj
 0004:fffc7000       $pdata$??_I@YAXPEAX_K1P6AX0@Z@Z 0000000180000000     CctCharacterController.obj
 0002:fffcf000       $unwind$??_GPxFoundation@physx@@MEAAPEAXI@Z 0000000180000000     CctCharacterController.obj
 0004:fffc7000       $pdata$??_GPxFoundation@physx@@MEAAPEAXI@Z 0000000180000000     CctCharacterController.obj
 0002:fffcf000       $unwind$??_EPxFoundation@physx@@MEAAPEAXI@Z 0000000180000000     CctCharacterController.obj
 0004:fffc7000       $pdata$??_EPxFoundation@physx@@MEAAPEAXI@Z 0000000180000000     CctCharacterController.obj
 0002:fffcf000       $chain$0$??_EPxFoundation@physx@@MEAAPEAXI@Z 0000000180000000     CctCharacterController.obj
 0004:fffc7000       $pdata$0$??_EPxFoundation@physx@@MEAAPEAXI@Z 0000000180000000     CctCharacterController.obj
 0002:fffcf000       $chain$1$??_EPxFoundation@physx@@MEAAPEAXI@Z 0000000180000000     CctCharacterController.obj
 0004:fffc7000       $pdata$1$??_EPxFoundation@physx@@MEAAPEAXI@Z 0000000180000000     CctCharacterController.obj
 0004:fffc7000       $pdata$1$??_EPxControllerManager@physx@@MEAAPEAXI@Z 0000000180000000     CctObstacleContext.obj
 0002:fffcf000       $unwind$??_H@YAXPEAX_K1P6APEAX0@Z@Z 0000000180000000     CctSweptBox.obj
 0004:fffc7000       $pdata$??_H@YAXPEAX_K1P6APEAX0@Z@Z 0000000180000000     CctSweptBox.obj
 0002:fffcf000       $unwind$??_I@YAXPEAX_K1P6AX0@Z@Z 0000000180000000     CctSweptBox.obj
 0002:fffcf000       $unwind$??_GPxControllerManager@physx@@MEAAPEAXI@Z 0000000180000000     CctCharacterController.obj
 0004:fffc7000       $pdata$??_GPxControllerManager@physx@@MEAAPEAXI@Z 0000000180000000     CctCharacterController.obj
 0002:fffcf000       $unwind$??_EPxControllerManager@physx@@MEAAPEAXI@Z 0000000180000000     CctCharacterController.obj
 0004:fffc7000       $pdata$0$??_EPxControllerManager@physx@@MEAAPEAXI@Z 0000000180000000     CctCharacterControllerCallbacks.obj
 0002:fffcf000       $chain$1$??_EPxControllerManager@physx@@MEAAPEAXI@Z 0000000180000000     CctCharacterControllerCallbacks.obj
 0004:fffc7000       $pdata$1$??_EPxControllerManager@physx@@MEAAPEAXI@Z 0000000180000000     CctCharacterControllerCallbacks.obj
 0004:fffc7000       $pdata$??_EPxControllerManager@physx@@MEAAPEAXI@Z 0000000180000000     CctCharacterController.obj
 0002:fffcf000       $chain$0$??_EPxControllerManager@physx@@MEAAPEAXI@Z 0000000180000000     CctCharacterController.obj
 0004:fffc7000       $pdata$0$??_EPxControllerManager@physx@@MEAAPEAXI@Z 0000000180000000     CctCharacterController.obj
 0002:fffcf000       $chain$1$??_EPxControllerManager@physx@@MEAAPEAXI@Z 0000000180000000     CctCharacterController.obj
 0004:fffc7000       $pdata$1$??_EPxControllerManager@physx@@MEAAPEAXI@Z 0000000180000000     CctCharacterController.obj
 0004:fffc7000       $pdata$??_I@YAXPEAX_K1P6AX0@Z@Z 0000000180000000     CctSweptBox.obj
 0004:fffc7000       $pdata$1$??_EPxFoundation@physx@@MEAAPEAXI@Z 0000000180000000     CctCharacterControllerManager.obj
 0002:fffcf000       $chain$1$??_EPxFoundation@physx@@MEAAPEAXI@Z 0000000180000000     CctCharacterControllerManager.obj
 0002:fffcf000       $unwind$?recreate@?$Array@IVNamedAllocator@shdfnd@physx@@@shdfnd@physx@@IEAAXI@Z 0000000180000000     CctCharacterControllerCallbacks.obj
 0004:fffc7000       $pdata$0$??_EPxFoundation@physx@@MEAAPEAXI@Z 0000000180000000     CctCharacterControllerManager.obj
 0002:fffcf000       $chain$0$??_EPxFoundation@physx@@MEAAPEAXI@Z 0000000180000000     CctCharacterControllerManager.obj
 0002:fffcf000       $unwind$??_GPxControllerManager@physx@@MEAAPEAXI@Z 0000000180000000     CctSweptBox.obj
 0004:fffc7000       $pdata$??_GPxControllerManager@physx@@MEAAPEAXI@Z 0000000180000000     CctSweptBox.obj
 0002:fffcf000       $unwind$??_EPxControllerManager@physx@@MEAAPEAXI@Z 0000000180000000     CctSweptBox.obj
 0004:fffc7000       $pdata$??_EPxControllerManager@physx@@MEAAPEAXI@Z 0000000180000000     CctSweptBox.obj
 0002:fffcf000       $chain$0$??_EPxControllerManager@physx@@MEAAPEAXI@Z 0000000180000000     CctSweptBox.obj
 0000:fffc3000       __guard_fids_?dllmain_dispatch@@YAHQEAUHINSTANCE__@@KQEAX@Z 0000000180000000     MSVCRT:dll_dllmain.obj
 0004:fffc7000       $pdata$0$??_EPxControllerManager@physx@@MEAAPEAXI@Z 0000000180000000     CctSweptBox.obj
 0002:fffcf000       $chain$1$??_EPxControllerManager@physx@@MEAAPEAXI@Z 0000000180000000     CctSweptBox.obj
 0004:fffc7000       $pdata$1$??_EPxControllerManager@physx@@MEAAPEAXI@Z 0000000180000000     CctSweptBox.obj
 0002:fffcf000       $unwind$??_GPxFoundation@physx@@MEAAPEAXI@Z 0000000180000000     CctSweptBox.obj
 0004:fffc7000       $pdata$??_GPxFoundation@physx@@MEAAPEAXI@Z 0000000180000000     CctSweptBox.obj
 0002:fffcf000       $unwind$??_EPxFoundation@physx@@MEAAPEAXI@Z 0000000180000000     CctSweptBox.obj
 0004:fffc7000       $pdata$??_EPxFoundation@physx@@MEAAPEAXI@Z 0000000180000000     CctSweptBox.obj
 0002:fffcf000       $chain$0$??_EPxFoundation@physx@@MEAAPEAXI@Z 0000000180000000     CctSweptBox.obj
 0004:fffc7000       $pdata$0$??_EPxFoundation@physx@@MEAAPEAXI@Z 0000000180000000     CctSweptBox.obj
 0002:fffcf000       $chain$1$??_EPxFoundation@physx@@MEAAPEAXI@Z 0000000180000000     CctSweptBox.obj
 0004:fffc7000       $pdata$?recreate@?$Array@IVNamedAllocator@shdfnd@physx@@@shdfnd@physx@@IEAAXI@Z 0000000180000000     CctCharacterControllerCallbacks.obj
 0002:fffcf000       $chain$0$?recreate@?$Array@IVNamedAllocator@shdfnd@physx@@@shdfnd@physx@@IEAAXI@Z 0000000180000000     CctCharacterControllerCallbacks.obj
 0004:fffc7000       $pdata$0$?recreate@?$Array@IVNamedAllocator@shdfnd@physx@@@shdfnd@physx@@IEAAXI@Z 0000000180000000     CctCharacterControllerCallbacks.obj
 0002:fffcf000       $chain$1$?recreate@?$Array@IVNamedAllocator@shdfnd@physx@@@shdfnd@physx@@IEAAXI@Z 0000000180000000     CctCharacterControllerCallbacks.obj
 0004:fffc7000       $pdata$1$?recreate@?$Array@IVNamedAllocator@shdfnd@physx@@@shdfnd@physx@@IEAAXI@Z 0000000180000000     CctCharacterControllerCallbacks.obj
 0004:fffc7000       $pdata$??DPxQuat@physx@@QEBA?AV01@AEBV01@@Z 0000000180000000     PhysX3ExtensionsCHECKED:ExtRigidBodyExt.obj
 0002:fffcf000       $unwind$??DPxQuat@physx@@QEBA?AV01@AEBV01@@Z 0000000180000000     PhysX3ExtensionsCHECKED:ExtRigidBodyExt.obj
 0002:fffcf000       $unwind$??_H@YAXPEAX_K1P6APEAX0@Z@Z 0000000180000000     CctCharacterControllerManager.obj
 0000:fffc3000       __guard_fids__             0000000180000000     MSVCRT:std_type_info_static.obj
 0004:fffc7000       $pdata$1$??_EPxFoundation@physx@@MEAAPEAXI@Z 0000000180000000     CctSweptBox.obj
 0002:fffcf000       $unwind$??_H@YAXPEAX_K1P6APEAX0@Z@Z 0000000180000000     CctSweptCapsule.obj
 0004:fffc7000       $pdata$??_H@YAXPEAX_K1P6APEAX0@Z@Z 0000000180000000     CctCharacterControllerManager.obj
 0004:fffc7000       $pdata$??_H@YAXPEAX_K1P6APEAX0@Z@Z 0000000180000000     CctSweptCapsule.obj
 0002:fffcf000       $unwind$??_I@YAXPEAX_K1P6AX0@Z@Z 0000000180000000     CctSweptCapsule.obj
 0000:fffc0000       .debug$S                   0000000180000000     PhysX3CommonCHECKED_x64:PhysX3CommonCHECKED_x64.dll
 0000:fffc0000       .debug$S                   0000000180000000     PhysX3CommonCHECKED_x64:PhysX3CommonCHECKED_x64.dll
 0000:fffc0000       .debug$S                   0000000180000000     PhysX3CommonCHECKED_x64:PhysX3CommonCHECKED_x64.dll
 0000:fffc0000       .debug$S                   0000000180000000     PhysX3CommonCHECKED_x64:PhysX3CommonCHECKED_x64.dll
 0000:fffc0000       .debug$S                   0000000180000000     PhysX3CommonCHECKED_x64:PhysX3CommonCHECKED_x64.dll
 0000:fffc0000       .debug$S                   0000000180000000     PhysX3CommonCHECKED_x64:PhysX3CommonCHECKED_x64.dll
 0000:fffc0000       .debug$S                   0000000180000000     PhysX3CommonCHECKED_x64:PhysX3CommonCHECKED_x64.dll
 0000:fffc0000       .debug$S                   0000000180000000     PhysX3CommonCHECKED_x64:PhysX3CommonCHECKED_x64.dll
 0000:fffc0000       .debug$S                   0000000180000000     PhysX3CommonCHECKED_x64:PhysX3CommonCHECKED_x64.dll
 0000:fffc0000       .debug$S                   0000000180000000     PhysX3CommonCHECKED_x64:PhysX3CommonCHECKED_x64.dll
 0000:fffc0000       .debug$S                   0000000180000000     PhysX3CommonCHECKED_x64:PhysX3CommonCHECKED_x64.dll
 0000:fffc0000       .debug$S                   0000000180000000     PhysX3CommonCHECKED_x64:PhysX3CommonCHECKED_x64.dll
 0000:fffc0000       .debug$S                   0000000180000000     PhysX3CommonCHECKED_x64:PhysX3CommonCHECKED_x64.dll
 0000:fffc0000       .debug$S                   0000000180000000     PhysX3CommonCHECKED_x64:PhysX3CommonCHECKED_x64.dll
 0000:fffc0000       .debug$S                   0000000180000000     PhysX3CommonCHECKED_x64:PhysX3CommonCHECKED_x64.dll
 0000:fffc0000       .debug$S                   0000000180000000     PhysX3CommonCHECKED_x64:PhysX3CommonCHECKED_x64.dll
 0000:fffc0000       .debug$S                   0000000180000000     PhysX3CommonCHECKED_x64:PhysX3CommonCHECKED_x64.dll
 0000:fffc0000       .debug$S                   0000000180000000     PhysX3CommonCHECKED_x64:PhysX3CommonCHECKED_x64.dll
 0000:fffc0000       .debug$S                   0000000180000000     PhysX3CommonCHECKED_x64:PhysX3CommonCHECKED_x64.dll
 0000:fffc0000       .debug$S                   0000000180000000     PhysX3CommonCHECKED_x64:PhysX3CommonCHECKED_x64.dll
 0000:fffc0000       .debug$S                   0000000180000000     PhysX3CommonCHECKED_x64:PhysX3CommonCHECKED_x64.dll
 0004:fffc7000       $pdata$??_I@YAXPEAX_K1P6AX0@Z@Z 0000000180000000     CctSweptCapsule.obj
 0000:fffc0000       .debug$S                   0000000180000000     PxFoundationCHECKED_x64:PxFoundationCHECKED_x64.dll
 0000:fffc0000       .debug$S                   0000000180000000     PxFoundationCHECKED_x64:PxFoundationCHECKED_x64.dll
 0000:fffc0000       .debug$S                   0000000180000000     PxFoundationCHECKED_x64:PxFoundationCHECKED_x64.dll
 0000:fffc0000       .debug$S                   0000000180000000     PxFoundationCHECKED_x64:PxFoundationCHECKED_x64.dll
 0000:fffc0000       .debug$S                   0000000180000000     PxFoundationCHECKED_x64:PxFoundationCHECKED_x64.dll
 0000:fffc0000       .debug$S                   0000000180000000     PxFoundationCHECKED_x64:PxFoundationCHECKED_x64.dll
 0000:fffc0000       .debug$S                   0000000180000000     PxFoundationCHECKED_x64:PxFoundationCHECKED_x64.dll
 0000:fffc0000       .debug$S                   0000000180000000     PxFoundationCHECKED_x64:PxFoundationCHECKED_x64.dll
 0000:fffc0000       .debug$S                   0000000180000000     PxFoundationCHECKED_x64:PxFoundationCHECKED_x64.dll
 0000:fffc0000       .debug$S                   0000000180000000     PxFoundationCHECKED_x64:PxFoundationCHECKED_x64.dll
 0000:fffc0000       .debug$S                   0000000180000000     PxFoundationCHECKED_x64:PxFoundationCHECKED_x64.dll
 0000:fffc0000       .debug$S                   0000000180000000     PxFoundationCHECKED_x64:PxFoundationCHECKED_x64.dll
 0000:fffc0000       .debug$S                   0000000180000000     PxFoundationCHECKED_x64:PxFoundationCHECKED_x64.dll
 0000:fffc0000       .debug$S                   0000000180000000     PxFoundationCHECKED_x64:PxFoundationCHECKED_x64.dll
 0000:fffc0000       .debug$S                   0000000180000000     PxFoundationCHECKED_x64:PxFoundationCHECKED_x64.dll
 0000:fffc0000       .debug$S                   0000000180000000     PxFoundationCHECKED_x64:PxFoundationCHECKED_x64.dll
 0000:fffc0000       .debug$S                   0000000180000000     PxFoundationCHECKED_x64:PxFoundationCHECKED_x64.dll
 0000:fffc0000       .debug$S                   0000000180000000     PxFoundationCHECKED_x64:PxFoundationCHECKED_x64.dll
 0000:fffc0000       .debug$S                   0000000180000000     PxFoundationCHECKED_x64:PxFoundationCHECKED_x64.dll
 0004:fffc7000       $pdata$??_EPxFoundation@physx@@MEAAPEAXI@Z 0000000180000000     CctCharacterControllerManager.obj
 0002:fffcf000       $unwind$??_EPxFoundation@physx@@MEAAPEAXI@Z 0000000180000000     CctCharacterControllerManager.obj
 0004:fffc7000       $pdata$??_GPxFoundation@physx@@MEAAPEAXI@Z 0000000180000000     CctCharacterControllerManager.obj
 0002:fffcf000       $unwind$??_GPxFoundation@physx@@MEAAPEAXI@Z 0000000180000000     CctCharacterControllerManager.obj
 0004:fffc7000       $pdata$1$??_EPxControllerManager@physx@@MEAAPEAXI@Z 0000000180000000     CctCharacterControllerManager.obj
 0002:fffcf000       $unwind$??_GPxControllerManager@physx@@MEAAPEAXI@Z 0000000180000000     CctSweptCapsule.obj
 0004:fffc7000       $pdata$??_GPxControllerManager@physx@@MEAAPEAXI@Z 0000000180000000     CctSweptCapsule.obj
 0002:fffcf000       $unwind$??_EPxControllerManager@physx@@MEAAPEAXI@Z 0000000180000000     CctSweptCapsule.obj
 0004:fffc7000       $pdata$??_EPxControllerManager@physx@@MEAAPEAXI@Z 0000000180000000     CctSweptCapsule.obj
 0002:fffcf000       $chain$0$??_EPxControllerManager@physx@@MEAAPEAXI@Z 0000000180000000     CctSweptCapsule.obj
 0004:fffc7000       $pdata$0$??_EPxControllerManager@physx@@MEAAPEAXI@Z 0000000180000000     CctSweptCapsule.obj
 0002:fffcf000       $chain$1$??_EPxControllerManager@physx@@MEAAPEAXI@Z 0000000180000000     CctSweptCapsule.obj
 0004:fffc7000       $pdata$1$??_EPxControllerManager@physx@@MEAAPEAXI@Z 0000000180000000     CctSweptCapsule.obj
 0002:fffcf000       $unwind$??_GPxFoundation@physx@@MEAAPEAXI@Z 0000000180000000     CctSweptCapsule.obj
 0004:fffc7000       $pdata$??_GPxFoundation@physx@@MEAAPEAXI@Z 0000000180000000     CctSweptCapsule.obj
 0002:fffcf000       $unwind$??_EPxFoundation@physx@@MEAAPEAXI@Z 0000000180000000     CctSweptCapsule.obj
 0004:fffc7000       $pdata$??_EPxFoundation@physx@@MEAAPEAXI@Z 0000000180000000     CctSweptCapsule.obj
 0002:fffcf000       $chain$0$??_EPxFoundation@physx@@MEAAPEAXI@Z 0000000180000000     CctSweptCapsule.obj
 0004:fffc7000       $pdata$0$??_EPxFoundation@physx@@MEAAPEAXI@Z 0000000180000000     CctSweptCapsule.obj
 0002:fffcf000       $chain$1$??_EPxFoundation@physx@@MEAAPEAXI@Z 0000000180000000     CctSweptCapsule.obj
 0004:fffc7000       $pdata$1$??_EPxFoundation@physx@@MEAAPEAXI@Z 0000000180000000     CctSweptCapsule.obj
 0002:fffcf000       $chain$1$??_EPxControllerManager@physx@@MEAAPEAXI@Z 0000000180000000     CctCharacterControllerManager.obj
 0004:fffc7000       $pdata$0$??_EPxControllerManager@physx@@MEAAPEAXI@Z 0000000180000000     CctCharacterControllerManager.obj
 0002:fffcf000       $chain$0$??_EPxControllerManager@physx@@MEAAPEAXI@Z 0000000180000000     CctCharacterControllerManager.obj
 0004:fffc7000       $pdata$??_EPxControllerManager@physx@@MEAAPEAXI@Z 0000000180000000     CctCharacterControllerManager.obj
 0002:fffcf000       $unwind$??_I@YAXPEAX_K1P6AX0@Z@Z 0000000180000000     CctCharacterControllerManager.obj
 0004:fffc7000       $pdata$??_I@YAXPEAX_K1P6AX0@Z@Z 0000000180000000     CctCharacterControllerManager.obj
 0002:fffcf000       $unwind$??_EPxControllerManager@physx@@MEAAPEAXI@Z 0000000180000000     CctCharacterControllerManager.obj
 0004:fffc7000       $pdata$??_GPxControllerManager@physx@@MEAAPEAXI@Z 0000000180000000     CctCharacterControllerManager.obj
 0002:fffcf000       $unwind$??_GPxControllerManager@physx@@MEAAPEAXI@Z 0000000180000000     CctCharacterControllerManager.obj
 0004:fffc7000       $pdata$0$??_EPxFoundation@physx@@MEAAPEAXI@Z 0000000180000000     CctCharacterControllerCallbacks.obj
 0001:00001270       ??__EmaxFError@_VecMathTests@aos@shdfnd@physx@@YAXXZ 0000000180002270 f   CctCharacterControllerCallbacks.obj
 0001:000012a0       ??__EmaxV3Error@_VecMathTests@aos@shdfnd@physx@@YAXXZ 00000001800022a0 f   CctCharacterControllerCallbacks.obj
 0001:000012c0       ??__EmaxV4Error@_VecMathTests@aos@shdfnd@physx@@YAXXZ 00000001800022c0 f   CctCharacterControllerCallbacks.obj
 0001:000012f0       ??__EminFError@_VecMathTests@aos@shdfnd@physx@@YAXXZ 00000001800022f0 f   CctCharacterControllerCallbacks.obj
 0001:00001320       ??__EminV3Error@_VecMathTests@aos@shdfnd@physx@@YAXXZ 0000000180002320 f   CctCharacterControllerCallbacks.obj
 0001:00001340       ??__EminV4Error@_VecMathTests@aos@shdfnd@physx@@YAXXZ 0000000180002340 f   CctCharacterControllerCallbacks.obj
 0001:00009520       ?SweepBoxUserBox@@YA_NPEBVSweepTest@Cct@physx@@PEBVSweptVolume@23@PEBUTouchedGeom@23@AEBUPxExtendedVec3@3@AEBVPxVec3@3@AEAUSweptContact@23@@Z 000000018000a520 f   CctCharacterController.obj
 0001:00009740       ?SweepBoxUserCapsule@@YA_NPEBVSweepTest@Cct@physx@@PEBVSweptVolume@23@PEBUTouchedGeom@23@AEBUPxExtendedVec3@3@AEBVPxVec3@3@AEAUSweptContact@23@@Z 000000018000a740 f   CctCharacterController.obj
 0001:00009a10       ?SweepBoxMesh@@YA_NPEBVSweepTest@Cct@physx@@PEBVSweptVolume@23@PEBUTouchedGeom@23@AEBUPxExtendedVec3@3@AEBVPxVec3@3@AEAUSweptContact@23@@Z 000000018000aa10 f   CctCharacterController.obj
 0001:00009b20       ?SweepCapsuleMesh@@YA_NPEBVSweepTest@Cct@physx@@PEBVSweptVolume@23@PEBUTouchedGeom@23@AEBUPxExtendedVec3@3@AEBVPxVec3@3@AEAUSweptContact@23@@Z 000000018000ab20 f   CctCharacterController.obj
 0001:00009c30       ?SweepBoxBox@@YA_NPEBVSweepTest@Cct@physx@@PEBVSweptVolume@23@PEBUTouchedGeom@23@AEBUPxExtendedVec3@3@AEBVPxVec3@3@AEAUSweptContact@23@@Z 000000018000ac30 f   CctCharacterController.obj
 0001:00009e30       ?SweepBoxSphere@@YA_NPEBVSweepTest@Cct@physx@@PEBVSweptVolume@23@PEBUTouchedGeom@23@AEBUPxExtendedVec3@3@AEBVPxVec3@3@AEAUSweptContact@23@@Z 000000018000ae30 f   CctCharacterController.obj
 0001:00009ff0       ?SweepBoxCapsule@@YA_NPEBVSweepTest@Cct@physx@@PEBVSweptVolume@23@PEBUTouchedGeom@23@AEBUPxExtendedVec3@3@AEBVPxVec3@3@AEAUSweptContact@23@@Z 000000018000aff0 f   CctCharacterController.obj
 0001:0000a240       ?SweepCapsuleBox@@YA_NPEBVSweepTest@Cct@physx@@PEBVSweptVolume@23@PEBUTouchedGeom@23@AEBUPxExtendedVec3@3@AEBVPxVec3@3@AEAUSweptContact@23@@Z 000000018000b240 f   CctCharacterController.obj
 0001:0000a440       ?SweepCapsuleSphere@@YA_NPEBVSweepTest@Cct@physx@@PEBVSweptVolume@23@PEBUTouchedGeom@23@AEBUPxExtendedVec3@3@AEBVPxVec3@3@AEAUSweptContact@23@@Z 000000018000b440 f   CctCharacterController.obj
 0001:0000a620       ?SweepCapsuleCapsule@@YA_NPEBVSweepTest@Cct@physx@@PEBVSweptVolume@23@PEBUTouchedGeom@23@AEBUPxExtendedVec3@3@AEBVPxVec3@3@AEAUSweptContact@23@@Z 000000018000b620 f   CctCharacterController.obj
 0001:0000a870       ?SweepCapsuleUserCapsule@@YA_NPEBVSweepTest@Cct@physx@@PEBVSweptVolume@23@PEBUTouchedGeom@23@AEBUPxExtendedVec3@3@AEBVPxVec3@3@AEAUSweptContact@23@@Z 000000018000b870 f   CctCharacterController.obj
 0001:0000ab40       ?SweepCapsuleUserBox@@YA_NPEBVSweepTest@Cct@physx@@PEBVSweptVolume@23@PEBUTouchedGeom@23@AEBUPxExtendedVec3@3@AEBVPxVec3@3@AEAUSweptContact@23@@Z 000000018000bb40 f   CctCharacterController.obj
 0001:0000cca0       ??$reserveContainerMemory@I@Cm@physx@@YAPEAIAEAV?$Array@IVNamedAllocator@shdfnd@physx@@@shdfnd@1@I@Z 000000018000dca0 f   CctCharacterController.obj
 0001:0000d050       ?collisionResponse@@YAXAEAUPxExtendedVec3@physx@@AEBU12@AEBVPxVec3@2@2MM_N@Z 000000018000e050 f   CctCharacterController.obj
 0001:0000d490       ?computeMTD@@YA?AVPxVec3@physx@@PEBVSweepTest@Cct@2@AEBVSweptVolume@42@AEBV?$Array@IVNamedAllocator@shdfnd@physx@@@shdfnd@2@AEBUPxExtendedVec3@2@M@Z 000000018000e490 f   CctCharacterController.obj
 0001:0000e560       ?sweepVolumeVsMesh@@YA_NPEBVSweepTest@Cct@physx@@PEBUTouchedMesh@23@AEAUSweptContact@23@AEBVPxVec3@3@AEBVPxGeometry@3@AEBVPxTransform@3@IPEBVPxTriangle@3@I@Z 000000018000f560 f   CctCharacterController.obj
 0001:0000e770       ?worldToLocal@@YA?AVPxVec3@physx@@AEBVPxObstacle@2@AEBUPxExtendedVec3@2@@Z 000000018000f770 f   CctCharacterController.obj
 0001:000102e0       ?createInvisibleWalls@@YAIAEBUCCTParams@Cct@physx@@AEBVPxTriangle@3@AEAVTriArray@23@AEAV?$Array@IVNamedAllocator@shdfnd@physx@@@shdfnd@3@@Z 00000001800112e0 f   CctCharacterControllerCallbacks.obj
 0001:00010c60       ?outputBoxToStream@@YAXPEAVPxShape@physx@@PEBVPxRigidActor@2@AEBVPxTransform@2@AEAV?$Array@IVNamedAllocator@shdfnd@physx@@@shdfnd@2@AEAVTriArray@Cct@2@3AEBUPxExtendedVec3@2@AEBVPxBounds3@2@AEBUCCTParams@82@AEAG@Z 0000000180011c60 f   CctCharacterControllerCallbacks.obj
 0001:000119d0       ?outputCapsuleToStream@@YAXPEAVPxShape@physx@@PEBVPxRigidActor@2@AEBVPxTransform@2@AEAV?$Array@IVNamedAllocator@shdfnd@physx@@@shdfnd@2@AEBUPxExtendedVec3@2@@Z 00000001800129d0 f   CctCharacterControllerCallbacks.obj
 0001:00011c80       ?outputConvexToStream@@YAXPEAVPxShape@physx@@PEBVPxRigidActor@2@AEBVPxTransform@2@AEAV?$Array@IVNamedAllocator@shdfnd@physx@@@shdfnd@2@AEAVTriArray@Cct@2@3AEBUPxExtendedVec3@2@AEBVPxBounds3@2@AEBUCCTParams@82@PEAVRenderBuffer@Cm@2@AEAG@Z 0000000180012c80 f   CctCharacterControllerCallbacks.obj
 0001:00013030       ?outputHeightFieldToStream@@YAXPEAVPxShape@physx@@PEBVPxRigidActor@2@AEBVPxTransform@2@AEAV?$Array@IVNamedAllocator@shdfnd@physx@@@shdfnd@2@AEAVTriArray@Cct@2@3AEBUPxExtendedVec3@2@AEBVPxBounds3@2@AEBUCCTParams@82@PEAVRenderBuffer@Cm@2@AEAG@Z 0000000180014030 f   CctCharacterControllerCallbacks.obj
 0001:00013d20       ?outputMeshToStream@@YAXPEAVPxShape@physx@@PEBVPxRigidActor@2@AEBVPxTransform@2@AEAV?$Array@IVNamedAllocator@shdfnd@physx@@@shdfnd@2@AEAVTriArray@Cct@2@3AEBUPxExtendedVec3@2@AEBVPxBounds3@2@AEBUCCTParams@82@PEAVRenderBuffer@Cm@2@AEAG@Z 0000000180014d20 f   CctCharacterControllerCallbacks.obj
 0001:00014a20       ?outputPlaneToStream@@YAXPEAVPxShape@physx@@PEBVPxRigidActor@2@AEBVPxTransform@2@AEAV?$Array@IVNamedAllocator@shdfnd@physx@@@shdfnd@2@AEAVTriArray@Cct@2@3AEBUPxExtendedVec3@2@AEBVPxBounds3@2@AEBUCCTParams@82@PEAVRenderBuffer@Cm@2@@Z 0000000180015a20 f   CctCharacterControllerCallbacks.obj
 0001:00015280       ?tessellateTriangleRecursive@@YAXPEAUTessParams@@AEBVPxVec3@physx@@11@Z 0000000180016280 f   CctCharacterControllerCallbacks.obj
 0001:000157c4       $LN132                     00000001800167c4     CctCharacterControllerCallbacks.obj
 0001:00017f80       ?InteractionCharacterCharacter@@YAXPEAVController@Cct@physx@@0M@Z 0000000180018f80 f   CctCharacterControllerManager.obj
 0001:00019130       ?computeMTD@@YA_NAEAVPxVec3@physx@@AEAMAEBV12@2AEBVPxMat33@2@223@Z 000000018001a130 f   CctCharacterControllerManager.obj
 0001:00019618       $LN140                     000000018001a618     CctCharacterControllerManager.obj
 0001:00020350       ??$computeMeshPenetrationT@VPxHeightFieldGeometry@physx@@@?A0x05e637a1@@YA_NAEAVPxVec3@physx@@AEAMAEBVPxGeometry@2@AEBVPxTransform@2@AEBVPxHeightFieldGeometry@2@3IPEAI@Z 0000000180021350 f   PhysX3ExtensionsCHECKED:ExtTriangleMeshExt.obj
 0001:00020590       ??$computeMeshPenetrationT@VPxTriangleMeshGeometry@physx@@@?A0x05e637a1@@YA_NAEAVPxVec3@physx@@AEAMAEBVPxGeometry@2@AEBVPxTransform@2@AEBVPxTriangleMeshGeometry@2@3IPEAI@Z 0000000180021590 f   PhysX3ExtensionsCHECKED:ExtTriangleMeshExt.obj
 0001:000251f4       $LN276                     00000001800261f4     PhysX3ExtensionsCHECKED:ExtRigidBodyExt.obj
 0001:00025990       ?computeMassAndDiagInertia@@YA_NAEAVInertiaTensorComputer@Ext@physx@@AEAVPxVec3@3@AEAVPxQuat@3@AEAM1_NAEBVPxRigidBody@3@PEBD@Z 0000000180026990 f   PhysX3ExtensionsCHECKED:ExtRigidBodyExt.obj
 0001:00025f70       ?computeMassAndInertia@@YA_N_NAEAVPxRigidBody@physx@@PEBM2I0AEAVInertiaTensorComputer@Ext@2@@Z 0000000180026f70 f   PhysX3ExtensionsCHECKED:ExtRigidBodyExt.obj
 0001:00026d10       $LN692                     0000000180027d10     PhysX3ExtensionsCHECKED:ExtRigidBodyExt.obj
 0001:00028e10       ?setMassAndUpdateInertia@@YA_N_NAEAVPxRigidBody@physx@@PEBMIPEBVPxVec3@2@0@Z 0000000180029e10 f   PhysX3ExtensionsCHECKED:ExtRigidBodyExt.obj
 0001:0002a550       ?updateMassAndInertia@@YA_N_NAEAVPxRigidBody@physx@@PEBMIPEBVPxVec3@2@0@Z 000000018002b550 f   PhysX3ExtensionsCHECKED:ExtRigidBodyExt.obj
 0001:0002a8c0       $$000000                   000000018002b8c0     MSVCRT:chkstk.obj
 0001:0002a9a8       ?dllmain_crt_dispatch@@YAHQEAUHINSTANCE__@@KQEAX@Z 000000018002b9a8 f   MSVCRT:dll_dllmain.obj
 0001:0002aa0c       ?dllmain_crt_process_attach@@YAHQEAUHINSTANCE__@@QEAX@Z 000000018002ba0c f   MSVCRT:dll_dllmain.obj
 0001:0002ab6c       ?dllmain_crt_process_detach@@YAH_N@Z 000000018002bb6c f   MSVCRT:dll_dllmain.obj
 0001:0002ac20       ?dllmain_dispatch@@YAHQEAUHINSTANCE__@@KQEAX@Z 000000018002bc20 f   MSVCRT:dll_dllmain.obj
 0001:0002ada0       ?dllmain_raw@@YAHQEAUHINSTANCE__@@KQEAX@Z 000000018002bda0 f   MSVCRT:dll_dllmain.obj
 0001:0002ae24       __get_entropy              000000018002be24 f   MSVCRT:gs_support.obj
 0001:0002b058       ?find_pe_section@@YAPEAU_IMAGE_SECTION_HEADER@@QEAE_K@Z 000000018002c058 f   MSVCRT:utility.obj
 0001:0002b0bc       ?is_potentially_valid_image_base@@YA_NQEAX@Z 000000018002c0bc f   MSVCRT:utility.obj
 0001:0002cfb0       $$000000                   000000018002dfb0     MSVCRT:guard_dispatch.obj
 0001:0002dfc6       ?fin$0@?0??dllmain_crt_process_attach@@YAHQEAUHINSTANCE__@@QEAX@Z@4HA 000000018002efc6 f   MSVCRT:dll_dllmain.obj
 0001:0002dfe2       ?fin$0@?0??dllmain_crt_process_detach@@YAH_N@Z@4HA 000000018002efe2 f   MSVCRT:dll_dllmain.obj
 0001:0002e005       ?filt$0@?0??dllmain_dispatch@@YAHQEAUHINSTANCE__@@KQEAX@Z@4HA 000000018002f005 f   MSVCRT:dll_dllmain.obj
 0001:0002e048       __scrt_is_nonwritable_in_current_image$filt$0 000000018002f048 f   MSVCRT:utility.obj
 0002:00000110       ?minFError$initializer$@_VecMathTests@aos@shdfnd@physx@@3P6AXXZEA 0000000180031110     CctCharacterControllerCallbacks.obj
 0002:00000118       ?maxFError$initializer$@_VecMathTests@aos@shdfnd@physx@@3P6AXXZEA 0000000180031118     CctCharacterControllerCallbacks.obj
 0002:00000120       ?minV3Error$initializer$@_VecMathTests@aos@shdfnd@physx@@3P6AXXZEA 0000000180031120     CctCharacterControllerCallbacks.obj
 0002:00000128       ?maxV3Error$initializer$@_VecMathTests@aos@shdfnd@physx@@3P6AXXZEA 0000000180031128     CctCharacterControllerCallbacks.obj
 0002:00000130       ?minV4Error$initializer$@_VecMathTests@aos@shdfnd@physx@@3P6AXXZEA 0000000180031130     CctCharacterControllerCallbacks.obj
 0002:00000138       ?maxV4Error$initializer$@_VecMathTests@aos@shdfnd@physx@@3P6AXXZEA 0000000180031138     CctCharacterControllerCallbacks.obj
 0002:00001170       ?GeomSizes@@3QBIB          0000000180032170     CctCharacterController.obj
 0002:000016d0       ?minus1w@?A0x08e955bf@aos@shdfnd@physx@@3QBMB 00000001800326d0     CctCharacterControllerCallbacks.obj
 0002:000016e0       ?gMaskXYZ@internalWindowsSimd@aos@shdfnd@physx@@3QBIB 00000001800326e0     CctCharacterControllerCallbacks.obj
 0002:00003028       $unwind$??_H@YAXPEAX_K1P6APEAX0@Z@Z 0000000180034028     CctBoxController.obj
 0002:00003040       $unwind$??_I@YAXPEAX_K1P6AX0@Z@Z 0000000180034040     CctBoxController.obj
 0002:00003058       $unwind$??_GPxController@physx@@MEAAPEAXI@Z 0000000180034058     CctBoxController.obj
 0002:00003060       $unwind$??_GPxControllerManager@physx@@MEAAPEAXI@Z 0000000180034060     CctBoxController.obj
 0002:00003068       $unwind$??_EPxControllerManager@physx@@MEAAPEAXI@Z 0000000180034068     CctBoxController.obj
 0002:00003070       $chain$0$??_EPxControllerManager@physx@@MEAAPEAXI@Z 0000000180034070     CctBoxController.obj
 0002:00003088       $chain$1$??_EPxControllerManager@physx@@MEAAPEAXI@Z 0000000180034088     CctBoxController.obj
 0002:0000309c       $unwind$??_GPxFoundation@physx@@MEAAPEAXI@Z 000000018003409c     CctBoxController.obj
 0002:000030a4       $unwind$??_EPxFoundation@physx@@MEAAPEAXI@Z 00000001800340a4     CctBoxController.obj
 0002:000030ac       $chain$0$??_EPxFoundation@physx@@MEAAPEAXI@Z 00000001800340ac     CctBoxController.obj
 0002:000030c4       $chain$1$??_EPxFoundation@physx@@MEAAPEAXI@Z 00000001800340c4     CctBoxController.obj
 0002:000030d8       $unwind$??_GPxBoxController@physx@@MEAAPEAXI@Z 00000001800340d8     CctBoxController.obj
 0002:000030e0       $unwind$??0BoxController@Cct@physx@@QEAA@AEBVPxControllerDesc@2@AEAVPxPhysics@2@PEAVPxScene@2@@Z 00000001800340e0     CctBoxController.obj
 0002:000030f4       $unwind$??1BoxController@Cct@physx@@UEAA@XZ 00000001800340f4     CctBoxController.obj
 0002:000030fc       $unwind$?getWorldBox@BoxController@Cct@physx@@UEBA_NAEAUPxExtendedBounds3@3@@Z 00000001800340fc     CctBoxController.obj
 0002:00003108       $unwind$?setFootPosition@BoxController@Cct@physx@@UEAA_NAEBUPxExtendedVec3@3@@Z 0000000180034108     CctBoxController.obj
 0002:00003110       $unwind$?invalidateCache@BoxController@Cct@physx@@UEAAXXZ 0000000180034110     CctBoxController.obj
 0002:00003118       $unwind$?resize@BoxController@Cct@physx@@UEAAXM@Z 0000000180034118     CctBoxController.obj
 0002:00003128       $unwind$?updateKinematicProxy@BoxController@Cct@physx@@QEAA_NXZ 0000000180034128     CctBoxController.obj
 0002:00003130       $chain$0$?updateKinematicProxy@BoxController@Cct@physx@@QEAA_NXZ 0000000180034130     CctBoxController.obj
 0002:00003144       $chain$1$?updateKinematicProxy@BoxController@Cct@physx@@QEAA_NXZ 0000000180034144     CctBoxController.obj
 0002:00003154       $unwind$?getOBB@BoxController@Cct@physx@@QEBAXAEAVPxExtendedBox@3@@Z 0000000180034154     CctBoxController.obj
 0002:00003174       $unwind$??_GBoxController@Cct@physx@@UEAAPEAXI@Z 0000000180034174     CctBoxController.obj
 0002:00003184       $unwind$??_GPxCapsuleController@physx@@MEAAPEAXI@Z 0000000180034184     CctCapsuleController.obj
 0002:0000318c       $unwind$??0CapsuleController@Cct@physx@@QEAA@AEBVPxControllerDesc@2@AEAVPxPhysics@2@PEAVPxScene@2@@Z 000000018003418c     CctCapsuleController.obj
 0002:000031a0       $unwind$??1CapsuleController@Cct@physx@@UEAA@XZ 00000001800341a0     CctCapsuleController.obj
 0002:000031a8       $unwind$?setFootPosition@CapsuleController@Cct@physx@@UEAA_NAEBUPxExtendedVec3@3@@Z 00000001800341a8     CctCapsuleController.obj
 0002:000031b0       $unwind$?invalidateCache@CapsuleController@Cct@physx@@UEAAXXZ 00000001800341b0     CctCapsuleController.obj
 0002:000031b8       $unwind$?resize@CapsuleController@Cct@physx@@UEAAXM@Z 00000001800341b8     CctCapsuleController.obj
 0002:000031c8       $unwind$?setRadius@CapsuleController@Cct@physx@@UEAA_NM@Z 00000001800341c8     CctCapsuleController.obj
 0002:000031d4       $chain$0$?setRadius@CapsuleController@Cct@physx@@UEAA_NM@Z 00000001800341d4     CctCapsuleController.obj
 0002:000031e8       $chain$1$?setRadius@CapsuleController@Cct@physx@@UEAA_NM@Z 00000001800341e8     CctCapsuleController.obj
 0002:000031f8       $unwind$?setHeight@CapsuleController@Cct@physx@@UEAA_NM@Z 00000001800341f8     CctCapsuleController.obj
 0002:00003204       $chain$0$?setHeight@CapsuleController@Cct@physx@@UEAA_NM@Z 0000000180034204     CctCapsuleController.obj
 0002:00003218       $chain$1$?setHeight@CapsuleController@Cct@physx@@UEAA_NM@Z 0000000180034218     CctCapsuleController.obj
 0002:00003228       $unwind$?getCapsule@CapsuleController@Cct@physx@@QEBAXAEAUPxExtendedCapsule@3@@Z 0000000180034228     CctCapsuleController.obj
 0002:00003254       $unwind$??_GCapsuleController@Cct@physx@@UEAAPEAXI@Z 0000000180034254     CctCapsuleController.obj
 0002:00003264       $unwind$??DPxQuat@physx@@QEBA?AV01@AEBV01@@Z 0000000180034264     CctCharacterController.obj
 0002:00003288       $unwind$??_G?$PxHitCallback@UPxRaycastHit@physx@@@physx@@UEAAPEAXI@Z 0000000180034288     CctCharacterController.obj
 0002:00003290       $unwind$??_G?$PxHitBuffer@UPxRaycastHit@physx@@@physx@@UEAAPEAXI@Z 0000000180034290     CctCharacterController.obj
 0002:00003298       $unwind$??_GPxQueryFilterCallback@physx@@UEAAPEAXI@Z 0000000180034298     CctCharacterController.obj
 0002:000032a0       $unwind$?getShapeGlobalPose@physx@@YA?AVPxTransform@1@AEBVPxShape@1@AEBVPxRigidActor@1@@Z 00000001800342a0     CctCharacterController.obj
 0002:000032d4       $unwind$?growAndPushBack@?$Array@PEBXVNamedAllocator@shdfnd@physx@@@shdfnd@physx@@IEAAAEAPEBXAEBQEBX@Z 00000001800342d4     CctCharacterController.obj
 0002:000032ec       $unwind$?growAndPushBack@?$Array@VPxExtendedBox@physx@@VNamedAllocator@shdfnd@2@@shdfnd@physx@@IEAAAEAVPxExtendedBox@3@AEBV43@@Z 00000001800342ec     CctCharacterController.obj
 0002:00003304       $unwind$?growAndPushBack@?$Array@UPxExtendedCapsule@physx@@VNamedAllocator@shdfnd@2@@shdfnd@physx@@IEAAAEAUPxExtendedCapsule@3@AEBU43@@Z 0000000180034304     CctCharacterController.obj
 0002:0000331c       $unwind$??0SweepTest@Cct@physx@@QEAA@_N@Z 000000018003431c     CctCharacterController.obj
 0002:00003330       $unwind$??1SweepTest@Cct@physx@@QEAA@XZ 0000000180034330     CctCharacterController.obj
 0002:0000333c       $unwind$?moveCharacter@SweepTest@Cct@physx@@QEAA?AV?$PxFlags@W4Enum@PxControllerCollisionFlag@physx@@E@3@PEBUInternalCBData_FindTouchedGeom@23@PEAUInternalCBData_OnHit@23@AEAVSweptVolume@23@AEBVPxVec3@3@AEBUUserObstacles@23@MAEBVPxControllerFilters@3@_N6AEAPEBVPxRigidActor@3@AEAPEBVPxShape@3@_K@Z 000000018003433c     CctCharacterController.obj
 0002:00003364       $chain$2$?moveCharacter@SweepTest@Cct@physx@@QEAA?AV?$PxFlags@W4Enum@PxControllerCollisionFlag@physx@@E@3@PEBUInternalCBData_FindTouchedGeom@23@PEAUInternalCBData_OnHit@23@AEAVSweptVolume@23@AEBVPxVec3@3@AEBUUserObstacles@23@MAEBVPxControllerFilters@3@_N6AEAPEBVPxRigidActor@3@AEAPEBVPxShape@3@_K@Z 0000000180034364     CctCharacterController.obj
 0002:00003380       $chain$5$?moveCharacter@SweepTest@Cct@physx@@QEAA?AV?$PxFlags@W4Enum@PxControllerCollisionFlag@physx@@E@3@PEBUInternalCBData_FindTouchedGeom@23@PEAUInternalCBData_OnHit@23@AEAVSweptVolume@23@AEBVPxVec3@3@AEBUUserObstacles@23@MAEBVPxControllerFilters@3@_N6AEAPEBVPxRigidActor@3@AEAPEBVPxShape@3@_K@Z 0000000180034380     CctCharacterController.obj
 0002:0000339c       $chain$6$?moveCharacter@SweepTest@Cct@physx@@QEAA?AV?$PxFlags@W4Enum@PxControllerCollisionFlag@physx@@E@3@PEBUInternalCBData_FindTouchedGeom@23@PEAUInternalCBData_OnHit@23@AEAVSweptVolume@23@AEBVPxVec3@3@AEBUUserObstacles@23@MAEBVPxControllerFilters@3@_N6AEAPEBVPxRigidActor@3@AEAPEBVPxShape@3@_K@Z 000000018003439c     CctCharacterController.obj
 0002:000033b0       $chain$7$?moveCharacter@SweepTest@Cct@physx@@QEAA?AV?$PxFlags@W4Enum@PxControllerCollisionFlag@physx@@E@3@PEBUInternalCBData_FindTouchedGeom@23@PEAUInternalCBData_OnHit@23@AEAVSweptVolume@23@AEBVPxVec3@3@AEBUUserObstacles@23@MAEBVPxControllerFilters@3@_N6AEAPEBVPxRigidActor@3@AEAPEBVPxShape@3@_K@Z 00000001800343b0     CctCharacterController.obj
 0002:000033c0       $chain$8$?moveCharacter@SweepTest@Cct@physx@@QEAA?AV?$PxFlags@W4Enum@PxControllerCollisionFlag@physx@@E@3@PEBUInternalCBData_FindTouchedGeom@23@PEAUInternalCBData_OnHit@23@AEAVSweptVolume@23@AEBVPxVec3@3@AEBUUserObstacles@23@MAEBVPxControllerFilters@3@_N6AEAPEBVPxRigidActor@3@AEAPEBVPxShape@3@_K@Z 00000001800343c0     CctCharacterController.obj
 0002:000033dc       $unwind$?doSweepTest@SweepTest@Cct@physx@@QEAA_NPEBUInternalCBData_FindTouchedGeom@23@PEAUInternalCBData_OnHit@23@AEBUUserObstacles@23@AEAVSweptVolume@23@AEBVPxVec3@3@4IPEAIMAEBVPxControllerFilters@3@W4SweepPass@23@AEAPEBVPxRigidActor@3@AEAPEBVPxShape@3@_K@Z 00000001800343dc     CctCharacterController.obj
 0002:000033f4       $chain$9$?doSweepTest@SweepTest@Cct@physx@@QEAA_NPEBUInternalCBData_FindTouchedGeom@23@PEAUInternalCBData_OnHit@23@AEBUUserObstacles@23@AEAVSweptVolume@23@AEBVPxVec3@3@4IPEAIMAEBVPxControllerFilters@3@W4SweepPass@23@AEAPEBVPxRigidActor@3@AEAPEBVPxShape@3@_K@Z 00000001800343f4     CctCharacterController.obj
 0002:0000342c       $chain$11$?doSweepTest@SweepTest@Cct@physx@@QEAA_NPEBUInternalCBData_FindTouchedGeom@23@PEAUInternalCBData_OnHit@23@AEBUUserObstacles@23@AEAVSweptVolume@23@AEBVPxVec3@3@4IPEAIMAEBVPxControllerFilters@3@W4SweepPass@23@AEAPEBVPxRigidActor@3@AEAPEBVPxShape@3@_K@Z 000000018003442c     CctCharacterController.obj
 0002:00003444       $chain$12$?doSweepTest@SweepTest@Cct@physx@@QEAA_NPEBUInternalCBData_FindTouchedGeom@23@PEAUInternalCBData_OnHit@23@AEBUUserObstacles@23@AEAVSweptVolume@23@AEBVPxVec3@3@4IPEAIMAEBVPxControllerFilters@3@W4SweepPass@23@AEAPEBVPxRigidActor@3@AEAPEBVPxShape@3@_K@Z 0000000180034444     CctCharacterController.obj
 0002:00003458       $chain$13$?doSweepTest@SweepTest@Cct@physx@@QEAA_NPEBUInternalCBData_FindTouchedGeom@23@PEAUInternalCBData_OnHit@23@AEBUUserObstacles@23@AEAVSweptVolume@23@AEBVPxVec3@3@4IPEAIMAEBVPxControllerFilters@3@W4SweepPass@23@AEAPEBVPxRigidActor@3@AEAPEBVPxShape@3@_K@Z 0000000180034458     CctCharacterController.obj
 0002:00003468       $unwind$?findTouchedObstacles@SweepTest@Cct@physx@@QEAAXAEBUUserObstacles@23@AEBUPxExtendedBounds3@3@@Z 0000000180034468     CctCharacterController.obj
 0002:0000349c       $chain$2$?findTouchedObstacles@SweepTest@Cct@physx@@QEAAXAEBUUserObstacles@23@AEBUPxExtendedBounds3@3@@Z 000000018003449c     CctCharacterController.obj
 0002:000034b8       $chain$3$?findTouchedObstacles@SweepTest@Cct@physx@@QEAAXAEBUUserObstacles@23@AEBUPxExtendedBounds3@3@@Z 00000001800344b8     CctCharacterController.obj
 0002:000034cc       $chain$4$?findTouchedObstacles@SweepTest@Cct@physx@@QEAAXAEBUUserObstacles@23@AEBUPxExtendedBounds3@3@@Z 00000001800344cc     CctCharacterController.obj
 0002:000034dc       $chain$5$?findTouchedObstacles@SweepTest@Cct@physx@@QEAAXAEBUUserObstacles@23@AEBUPxExtendedBounds3@3@@Z 00000001800344dc     CctCharacterController.obj
 0002:000034ec       $unwind$?voidTestCache@SweepTest@Cct@physx@@QEAAXXZ 00000001800344ec     CctCharacterController.obj
 0002:000034f4       $unwind$?onRelease@SweepTest@Cct@physx@@QEAAXAEBVPxBase@3@@Z 00000001800344f4     CctCharacterController.obj
 0002:000034fc       $unwind$?updateCachedShapesRegistration@SweepTest@Cct@physx@@QEAAXI_N@Z 00000001800344fc     CctCharacterController.obj
 0002:00003508       $chain$1$?updateCachedShapesRegistration@SweepTest@Cct@physx@@QEAAXI_N@Z 0000000180034508     CctCharacterController.obj
 0002:00003520       $chain$2$?updateCachedShapesRegistration@SweepTest@Cct@physx@@QEAAXI_N@Z 0000000180034520     CctCharacterController.obj
 0002:00003534       $chain$3$?updateCachedShapesRegistration@SweepTest@Cct@physx@@QEAAXI_N@Z 0000000180034534     CctCharacterController.obj
 0002:00003544       $chain$4$?updateCachedShapesRegistration@SweepTest@Cct@physx@@QEAAXI_N@Z 0000000180034544     CctCharacterController.obj
 0002:00003554       $unwind$?onObstacleUpdated@SweepTest@Cct@physx@@QEAAXIPEBVPxObstacleContext@3@AEBVPxVec3@3@1M@Z 0000000180034554     CctCharacterController.obj
 0002:00003560       $unwind$?onObstacleAdded@SweepTest@Cct@physx@@QEAAXIPEBVPxObstacleContext@3@AEBVPxVec3@3@1M@Z 0000000180034560     CctCharacterController.obj
 0002:0000356c       $chain$0$?onObstacleAdded@SweepTest@Cct@physx@@QEAAXIPEBVPxObstacleContext@3@AEBVPxVec3@3@1M@Z 000000018003456c     CctCharacterController.obj
 0002:00003580       $chain$3$?onObstacleAdded@SweepTest@Cct@physx@@QEAAXIPEBVPxObstacleContext@3@AEBVPxVec3@3@1M@Z 0000000180034580     CctCharacterController.obj
 0002:0000359c       $chain$4$?onObstacleAdded@SweepTest@Cct@physx@@QEAAXIPEBVPxObstacleContext@3@AEBVPxVec3@3@1M@Z 000000018003459c     CctCharacterController.obj
 0002:000035ac       $chain$5$?onObstacleAdded@SweepTest@Cct@physx@@QEAAXIPEBVPxObstacleContext@3@AEBVPxVec3@3@1M@Z 00000001800345ac     CctCharacterController.obj
 0002:000035bc       $unwind$?updateTouchedGeoms@SweepTest@Cct@physx@@AEAAXPEBUInternalCBData_FindTouchedGeom@23@AEBUUserObstacles@23@AEBUPxExtendedBounds3@3@AEBVPxControllerFilters@3@AEBVPxVec3@3@@Z 00000001800345bc     CctCharacterController.obj
 0002:000035d0       $chain$2$?updateTouchedGeoms@SweepTest@Cct@physx@@AEAAXPEBUInternalCBData_FindTouchedGeom@23@AEBUUserObstacles@23@AEBUPxExtendedBounds3@3@AEBVPxControllerFilters@3@AEBVPxVec3@3@@Z 00000001800345d0     CctCharacterController.obj
 0002:000035ec       $chain$5$?updateTouchedGeoms@SweepTest@Cct@physx@@AEAAXPEBUInternalCBData_FindTouchedGeom@23@AEBUUserObstacles@23@AEBUPxExtendedBounds3@3@AEBVPxControllerFilters@3@AEBVPxVec3@3@@Z 00000001800345ec     CctCharacterController.obj
 0002:00003608       $chain$9$?updateTouchedGeoms@SweepTest@Cct@physx@@AEAAXPEBUInternalCBData_FindTouchedGeom@23@AEBUUserObstacles@23@AEBUPxExtendedBounds3@3@AEBVPxControllerFilters@3@AEBVPxVec3@3@@Z 0000000180034608     CctCharacterController.obj
 0002:00003628       $chain$10$?updateTouchedGeoms@SweepTest@Cct@physx@@AEAAXPEBUInternalCBData_FindTouchedGeom@23@AEBUUserObstacles@23@AEBUPxExtendedBounds3@3@AEBVPxControllerFilters@3@AEBVPxVec3@3@@Z 0000000180034628     CctCharacterController.obj
 0002:00003638       $chain$11$?updateTouchedGeoms@SweepTest@Cct@physx@@AEAAXPEBUInternalCBData_FindTouchedGeom@23@AEBUUserObstacles@23@AEBUPxExtendedBounds3@3@AEBVPxControllerFilters@3@AEBVPxVec3@3@@Z 0000000180034638     CctCharacterController.obj
 0002:00003648       $chain$12$?updateTouchedGeoms@SweepTest@Cct@physx@@AEAAXPEBUInternalCBData_FindTouchedGeom@23@AEBUUserObstacles@23@AEBUPxExtendedBounds3@3@AEBVPxControllerFilters@3@AEBVPxVec3@3@@Z 0000000180034648     CctCharacterController.obj
 0002:00003664       $chain$13$?updateTouchedGeoms@SweepTest@Cct@physx@@AEAAXPEBUInternalCBData_FindTouchedGeom@23@AEBUUserObstacles@23@AEBUPxExtendedBounds3@3@AEBVPxControllerFilters@3@AEBVPxVec3@3@@Z 0000000180034664     CctCharacterController.obj
 0002:00003674       $chain$14$?updateTouchedGeoms@SweepTest@Cct@physx@@AEAAXPEBUInternalCBData_FindTouchedGeom@23@AEBUUserObstacles@23@AEBUPxExtendedBounds3@3@AEBVPxControllerFilters@3@AEBVPxVec3@3@@Z 0000000180034674     CctCharacterController.obj
 0002:00003684       $unwind$?findTouchedObject@Controller@Cct@physx@@IEAAXAEBVPxControllerFilters@3@PEBVPxObstacleContext@3@AEBVPxVec3@3@@Z 0000000180034684     CctCharacterController.obj
 0002:00003698       $chain$2$?findTouchedObject@Controller@Cct@physx@@IEAAXAEBVPxControllerFilters@3@PEBVPxObstacleContext@3@AEBVPxVec3@3@@Z 0000000180034698     CctCharacterController.obj
 0002:000036b4       $chain$10$?findTouchedObject@Controller@Cct@physx@@IEAAXAEBVPxControllerFilters@3@PEBVPxObstacleContext@3@AEBVPxVec3@3@@Z 00000001800346b4     CctCharacterController.obj
 0002:000036e4       $chain$11$?findTouchedObject@Controller@Cct@physx@@IEAAXAEBVPxControllerFilters@3@PEBVPxObstacleContext@3@AEBVPxVec3@3@@Z 00000001800346e4     CctCharacterController.obj
 0002:000036f4       $chain$12$?findTouchedObject@Controller@Cct@physx@@IEAAXAEBVPxControllerFilters@3@PEBVPxObstacleContext@3@AEBVPxVec3@3@@Z 00000001800346f4     CctCharacterController.obj
 0002:00003704       $unwind$?rideOnTouchedObject@Controller@Cct@physx@@IEAA_NAEAVSweptVolume@23@AEBVPxVec3@3@AEAV53@PEBVPxObstacleContext@3@@Z 0000000180034704     CctCharacterController.obj
 0002:00003740       $chain$0$?rideOnTouchedObject@Controller@Cct@physx@@IEAA_NAEAVSweptVolume@23@AEBVPxVec3@3@AEAV53@PEBVPxObstacleContext@3@@Z 0000000180034740     CctCharacterController.obj
 0002:00003754       $chain$1$?rideOnTouchedObject@Controller@Cct@physx@@IEAA_NAEAVSweptVolume@23@AEBVPxVec3@3@AEAV53@PEBVPxObstacleContext@3@@Z 0000000180034754     CctCharacterController.obj
 0002:00003764       $unwind$?move@Controller@Cct@physx@@IEAA?AV?$PxFlags@W4Enum@PxControllerCollisionFlag@physx@@E@3@AEAVSweptVolume@23@AEBVPxVec3@3@MMAEBVPxControllerFilters@3@PEBVPxObstacleContext@3@_N@Z 0000000180034764     CctCharacterController.obj
 0002:00003774       $chain$1$?move@Controller@Cct@physx@@IEAA?AV?$PxFlags@W4Enum@PxControllerCollisionFlag@physx@@E@3@AEAVSweptVolume@23@AEBVPxVec3@3@MMAEBVPxControllerFilters@3@PEBVPxObstacleContext@3@_N@Z 0000000180034774     CctCharacterController.obj
 0002:0000378c       $chain$8$?move@Controller@Cct@physx@@IEAA?AV?$PxFlags@W4Enum@PxControllerCollisionFlag@physx@@E@3@AEAVSweptVolume@23@AEBVPxVec3@3@MMAEBVPxControllerFilters@3@PEBVPxObstacleContext@3@_N@Z 000000018003478c     CctCharacterController.obj
 0002:000037b8       $chain$9$?move@Controller@Cct@physx@@IEAA?AV?$PxFlags@W4Enum@PxControllerCollisionFlag@physx@@E@3@AEAVSweptVolume@23@AEBVPxVec3@3@MMAEBVPxControllerFilters@3@PEBVPxObstacleContext@3@_N@Z 00000001800347b8     CctCharacterController.obj
 0002:000037cc       $chain$14$?move@Controller@Cct@physx@@IEAA?AV?$PxFlags@W4Enum@PxControllerCollisionFlag@physx@@E@3@AEAVSweptVolume@23@AEBVPxVec3@3@MMAEBVPxControllerFilters@3@PEBVPxObstacleContext@3@_N@Z 00000001800347cc     CctCharacterController.obj
 0002:000037f0       $chain$15$?move@Controller@Cct@physx@@IEAA?AV?$PxFlags@W4Enum@PxControllerCollisionFlag@physx@@E@3@AEAVSweptVolume@23@AEBVPxVec3@3@MMAEBVPxControllerFilters@3@PEBVPxObstacleContext@3@_N@Z 00000001800347f0     CctCharacterController.obj
 0002:00003800       $chain$16$?move@Controller@Cct@physx@@IEAA?AV?$PxFlags@W4Enum@PxControllerCollisionFlag@physx@@E@3@AEAVSweptVolume@23@AEBVPxVec3@3@MMAEBVPxControllerFilters@3@PEBVPxObstacleContext@3@_N@Z 0000000180034800     CctCharacterController.obj
 0002:00003810       $chain$17$?move@Controller@Cct@physx@@IEAA?AV?$PxFlags@W4Enum@PxControllerCollisionFlag@physx@@E@3@AEAVSweptVolume@23@AEBVPxVec3@3@MMAEBVPxControllerFilters@3@PEBVPxObstacleContext@3@_N@Z 0000000180034810     CctCharacterController.obj
 0002:00003824       $chain$18$?move@Controller@Cct@physx@@IEAA?AV?$PxFlags@W4Enum@PxControllerCollisionFlag@physx@@E@3@AEAVSweptVolume@23@AEBVPxVec3@3@MMAEBVPxControllerFilters@3@PEBVPxObstacleContext@3@_N@Z 0000000180034824     CctCharacterController.obj
 0002:0000383c       $chain$19$?move@Controller@Cct@physx@@IEAA?AV?$PxFlags@W4Enum@PxControllerCollisionFlag@physx@@E@3@AEAVSweptVolume@23@AEBVPxVec3@3@MMAEBVPxControllerFilters@3@PEBVPxObstacleContext@3@_N@Z 000000018003483c     CctCharacterController.obj
 0002:0000384c       $unwind$?filterTouchedShape@Controller@Cct@physx@@IEAA_NAEBVPxControllerFilters@3@@Z 000000018003484c     CctCharacterController.obj
 0002:00003854       $unwind$?SweepBoxUserBox@@YA_NPEBVSweepTest@Cct@physx@@PEBVSweptVolume@23@PEBUTouchedGeom@23@AEBUPxExtendedVec3@3@AEBVPxVec3@3@AEAUSweptContact@23@@Z 0000000180034854     CctCharacterController.obj
 0002:00003868       $unwind$?SweepBoxUserCapsule@@YA_NPEBVSweepTest@Cct@physx@@PEBVSweptVolume@23@PEBUTouchedGeom@23@AEBUPxExtendedVec3@3@AEBVPxVec3@3@AEAUSweptContact@23@@Z 0000000180034868     CctCharacterController.obj
 0002:00003880       $unwind$?SweepBoxMesh@@YA_NPEBVSweepTest@Cct@physx@@PEBVSweptVolume@23@PEBUTouchedGeom@23@AEBUPxExtendedVec3@3@AEBVPxVec3@3@AEAUSweptContact@23@@Z 0000000180034880     CctCharacterController.obj
 0002:00003888       $unwind$?SweepCapsuleMesh@@YA_NPEBVSweepTest@Cct@physx@@PEBVSweptVolume@23@PEBUTouchedGeom@23@AEBUPxExtendedVec3@3@AEBVPxVec3@3@AEAUSweptContact@23@@Z 0000000180034888     CctCharacterController.obj
 0002:00003890       $unwind$?SweepBoxBox@@YA_NPEBVSweepTest@Cct@physx@@PEBVSweptVolume@23@PEBUTouchedGeom@23@AEBUPxExtendedVec3@3@AEBVPxVec3@3@AEAUSweptContact@23@@Z 0000000180034890     CctCharacterController.obj
 0002:000038a4       $unwind$?SweepBoxSphere@@YA_NPEBVSweepTest@Cct@physx@@PEBVSweptVolume@23@PEBUTouchedGeom@23@AEBUPxExtendedVec3@3@AEBVPxVec3@3@AEAUSweptContact@23@@Z 00000001800348a4     CctCharacterController.obj
 0002:000038b8       $unwind$?SweepBoxCapsule@@YA_NPEBVSweepTest@Cct@physx@@PEBVSweptVolume@23@PEBUTouchedGeom@23@AEBUPxExtendedVec3@3@AEBVPxVec3@3@AEAUSweptContact@23@@Z 00000001800348b8     CctCharacterController.obj
 0002:000038d0       $unwind$?SweepCapsuleBox@@YA_NPEBVSweepTest@Cct@physx@@PEBVSweptVolume@23@PEBUTouchedGeom@23@AEBUPxExtendedVec3@3@AEBVPxVec3@3@AEAUSweptContact@23@@Z 00000001800348d0     CctCharacterController.obj
 0002:000038e4       $unwind$?SweepCapsuleSphere@@YA_NPEBVSweepTest@Cct@physx@@PEBVSweptVolume@23@PEBUTouchedGeom@23@AEBUPxExtendedVec3@3@AEBVPxVec3@3@AEAUSweptContact@23@@Z 00000001800348e4     CctCharacterController.obj
 0002:000038f8       $unwind$?SweepCapsuleCapsule@@YA_NPEBVSweepTest@Cct@physx@@PEBVSweptVolume@23@PEBUTouchedGeom@23@AEBUPxExtendedVec3@3@AEBVPxVec3@3@AEAUSweptContact@23@@Z 00000001800348f8     CctCharacterController.obj
 0002:00003910       $unwind$?SweepCapsuleUserCapsule@@YA_NPEBVSweepTest@Cct@physx@@PEBVSweptVolume@23@PEBUTouchedGeom@23@AEBUPxExtendedVec3@3@AEBVPxVec3@3@AEAUSweptContact@23@@Z 0000000180034910     CctCharacterController.obj
 0002:00003928       $unwind$?SweepCapsuleUserBox@@YA_NPEBVSweepTest@Cct@physx@@PEBVSweptVolume@23@PEBUTouchedGeom@23@AEBUPxExtendedVec3@3@AEBVPxVec3@3@AEAUSweptContact@23@@Z 0000000180034928     CctCharacterController.obj
 0002:0000393c       $unwind$?move@BoxController@Cct@physx@@UEAA?AV?$PxFlags@W4Enum@PxControllerCollisionFlag@physx@@E@3@AEBVPxVec3@3@MMAEBVPxControllerFilters@3@PEBVPxObstacleContext@3@@Z 000000018003493c     CctCharacterController.obj
 0002:00003950       $chain$1$?move@BoxController@Cct@physx@@UEAA?AV?$PxFlags@W4Enum@PxControllerCollisionFlag@physx@@E@3@AEBVPxVec3@3@MMAEBVPxControllerFilters@3@PEBVPxObstacleContext@3@@Z 0000000180034950     CctCharacterController.obj
 0002:00003968       $chain$2$?move@BoxController@Cct@physx@@UEAA?AV?$PxFlags@W4Enum@PxControllerCollisionFlag@physx@@E@3@AEBVPxVec3@3@MMAEBVPxControllerFilters@3@PEBVPxObstacleContext@3@@Z 0000000180034968     CctCharacterController.obj
 0002:00003978       $unwind$?move@CapsuleController@Cct@physx@@UEAA?AV?$PxFlags@W4Enum@PxControllerCollisionFlag@physx@@E@3@AEBVPxVec3@3@MMAEBVPxControllerFilters@3@PEBVPxObstacleContext@3@@Z 0000000180034978     CctCharacterController.obj
 0002:0000398c       $chain$1$?move@CapsuleController@Cct@physx@@UEAA?AV?$PxFlags@W4Enum@PxControllerCollisionFlag@physx@@E@3@AEBVPxVec3@3@MMAEBVPxControllerFilters@3@PEBVPxObstacleContext@3@@Z 000000018003498c     CctCharacterController.obj
 0002:000039a4       $chain$2$?move@CapsuleController@Cct@physx@@UEAA?AV?$PxFlags@W4Enum@PxControllerCollisionFlag@physx@@E@3@AEBVPxVec3@3@MMAEBVPxControllerFilters@3@PEBVPxObstacleContext@3@@Z 00000001800349a4     CctCharacterController.obj
 0002:00003a5c       $unwind$?recreate@?$Array@IVNamedAllocator@shdfnd@physx@@@shdfnd@physx@@IEAAXI@Z 0000000180034a5c     CctCharacterController.obj
 0002:00003a70       $chain$0$?recreate@?$Array@IVNamedAllocator@shdfnd@physx@@@shdfnd@physx@@IEAAXI@Z 0000000180034a70     CctCharacterController.obj
 0002:00003a88       $chain$1$?recreate@?$Array@IVNamedAllocator@shdfnd@physx@@@shdfnd@physx@@IEAAXI@Z 0000000180034a88     CctCharacterController.obj
 0002:00003a9c       $unwind$?worldToLocal@@YA?AVPxVec3@physx@@AEBVPxObstacle@2@AEBUPxExtendedVec3@2@@Z 0000000180034a9c     CctCharacterController.obj
 0002:00003ac4       $unwind$?collisionResponse@@YAXAEAUPxExtendedVec3@physx@@AEBU12@AEBVPxVec3@2@2MM_N@Z 0000000180034ac4     CctCharacterController.obj
 0002:00003ae4       $chain$2$?collisionResponse@@YAXAEAUPxExtendedVec3@physx@@AEBU12@AEBVPxVec3@2@2MM_N@Z 0000000180034ae4     CctCharacterController.obj
 0002:00003b04       $chain$3$?collisionResponse@@YAXAEAUPxExtendedVec3@physx@@AEBU12@AEBVPxVec3@2@2MM_N@Z 0000000180034b04     CctCharacterController.obj
 0002:00003b1c       $chain$4$?collisionResponse@@YAXAEAUPxExtendedVec3@physx@@AEBU12@AEBVPxVec3@2@2MM_N@Z 0000000180034b1c     CctCharacterController.obj
 0002:00003b30       $chain$5$?collisionResponse@@YAXAEAUPxExtendedVec3@physx@@AEBU12@AEBVPxVec3@2@2MM_N@Z 0000000180034b30     CctCharacterController.obj
 0002:00003b44       $unwind$?sweepVolumeVsMesh@@YA_NPEBVSweepTest@Cct@physx@@PEBUTouchedMesh@23@AEAUSweptContact@23@AEBVPxVec3@3@AEBVPxGeometry@3@AEBVPxTransform@3@IPEBVPxTriangle@3@I@Z 0000000180034b44     CctCharacterController.obj
 0002:00003b5c       $unwind$?computeMTD@@YA?AVPxVec3@physx@@PEBVSweepTest@Cct@2@AEBVSweptVolume@42@AEBV?$Array@IVNamedAllocator@shdfnd@physx@@@shdfnd@2@AEBUPxExtendedVec3@2@M@Z 0000000180034b5c     CctCharacterController.obj
 0002:00003ba4       $unwind$??$reserveContainerMemory@I@Cm@physx@@YAPEAIAEAV?$Array@IVNamedAllocator@shdfnd@physx@@@shdfnd@1@I@Z 0000000180034ba4     CctCharacterController.obj
 0002:00003bb4       $unwind$?preFilter@ControllerFilter@@UEAA?AW4Enum@PxQueryHitType@physx@@AEBUPxFilterData@4@PEBVPxShape@4@PEBVPxRigidActor@4@AEAV?$PxFlags@W4Enum@PxHitFlag@physx@@G@4@@Z 0000000180034bb4     CctCharacterController.obj
 0002:00003bcc       $unwind$??_GControllerFilter@@UEAAPEAXI@Z 0000000180034bcc     CctCharacterController.obj
 0002:00003bd4       $unwind$??_G?$PxHitCallback@UPxOverlapHit@physx@@@physx@@UEAAPEAXI@Z 0000000180034bd4     CctCharacterControllerCallbacks.obj
 0002:00003bdc       $unwind$??_G?$PxHitBuffer@UPxOverlapHit@physx@@@physx@@UEAAPEAXI@Z 0000000180034bdc     CctCharacterControllerCallbacks.obj
 0002:00003be4       $unwind$?recreate@?$Array@VPxTriangle@physx@@VNamedAllocator@shdfnd@2@@shdfnd@physx@@IEAAXI@Z 0000000180034be4     CctCharacterControllerCallbacks.obj
 0002:00003bfc       $unwind$?growAndPushBack@?$Array@IVNamedAllocator@shdfnd@physx@@@shdfnd@physx@@IEAAAEAIAEBI@Z 0000000180034bfc     CctCharacterControllerCallbacks.obj
 0002:00003c14       $unwind$?findTouchedGeometry@Cct@physx@@YAXPEBUInternalCBData_FindTouchedGeom@12@AEBUPxExtendedBounds3@2@AEAVTriArray@12@AEAV?$Array@IVNamedAllocator@shdfnd@physx@@@shdfnd@2@3AEBVCCTFilter@12@AEBUCCTParams@12@AEAG@Z 0000000180034c14     CctCharacterControllerCallbacks.obj
 0002:00003c20       $chain$12$?findTouchedGeometry@Cct@physx@@YAXPEBUInternalCBData_FindTouchedGeom@12@AEBUPxExtendedBounds3@2@AEAVTriArray@12@AEAV?$Array@IVNamedAllocator@shdfnd@physx@@@shdfnd@2@3AEBVCCTFilter@12@AEBUCCTParams@12@AEAG@Z 0000000180034c20     CctCharacterControllerCallbacks.obj
 0002:00003c64       $chain$15$?findTouchedGeometry@Cct@physx@@YAXPEBUInternalCBData_FindTouchedGeom@12@AEBUPxExtendedBounds3@2@AEAVTriArray@12@AEAV?$Array@IVNamedAllocator@shdfnd@physx@@@shdfnd@2@3AEBVCCTFilter@12@AEBUCCTParams@12@AEAG@Z 0000000180034c64     CctCharacterControllerCallbacks.obj
 0002:00003c80       $chain$16$?findTouchedGeometry@Cct@physx@@YAXPEBUInternalCBData_FindTouchedGeom@12@AEBUPxExtendedBounds3@2@AEAVTriArray@12@AEAV?$Array@IVNamedAllocator@shdfnd@physx@@@shdfnd@2@3AEBVCCTFilter@12@AEBUCCTParams@12@AEAG@Z 0000000180034c80     CctCharacterControllerCallbacks.obj
 0002:00003c90       $chain$17$?findTouchedGeometry@Cct@physx@@YAXPEBUInternalCBData_FindTouchedGeom@12@AEBUPxExtendedBounds3@2@AEAVTriArray@12@AEAV?$Array@IVNamedAllocator@shdfnd@physx@@@shdfnd@2@3AEBVCCTFilter@12@AEBUCCTParams@12@AEAG@Z 0000000180034c90     CctCharacterControllerCallbacks.obj
 0002:00003ca0       $unwind$?shapeHitCallback@Cct@physx@@YAIPEBUInternalCBData_OnHit@12@AEBUSweptContact@12@AEBVPxVec3@2@M@Z 0000000180034ca0     CctCharacterControllerCallbacks.obj
 0002:00003cb8       $unwind$?userHitCallback@Cct@physx@@YAIPEBUInternalCBData_OnHit@12@AEBUSweptContact@12@AEBVPxVec3@2@M@Z 0000000180034cb8     CctCharacterControllerCallbacks.obj
 0002:00003ce8       $unwind$?tessellateTriangleRecursive@@YAXPEAUTessParams@@AEBVPxVec3@physx@@11@Z 0000000180034ce8     CctCharacterControllerCallbacks.obj
 0002:00003d04       $chain$8$?tessellateTriangleRecursive@@YAXPEAUTessParams@@AEBVPxVec3@physx@@11@Z 0000000180034d04     CctCharacterControllerCallbacks.obj
 0002:00003d40       $chain$9$?tessellateTriangleRecursive@@YAXPEAUTessParams@@AEBVPxVec3@physx@@11@Z 0000000180034d40     CctCharacterControllerCallbacks.obj
 0002:00003d58       $chain$10$?tessellateTriangleRecursive@@YAXPEAUTessParams@@AEBVPxVec3@physx@@11@Z 0000000180034d58     CctCharacterControllerCallbacks.obj
 0002:00003d74       $chain$11$?tessellateTriangleRecursive@@YAXPEAUTessParams@@AEBVPxVec3@physx@@11@Z 0000000180034d74     CctCharacterControllerCallbacks.obj
 0002:00003d88       $unwind$?outputPlaneToStream@@YAXPEAVPxShape@physx@@PEBVPxRigidActor@2@AEBVPxTransform@2@AEAV?$Array@IVNamedAllocator@shdfnd@physx@@@shdfnd@2@AEAVTriArray@Cct@2@3AEBUPxExtendedVec3@2@AEBVPxBounds3@2@AEBUCCTParams@82@PEAVRenderBuffer@Cm@2@@Z 0000000180034d88     CctCharacterControllerCallbacks.obj
 0002:00003dcc       $unwind$?outputCapsuleToStream@@YAXPEAVPxShape@physx@@PEBVPxRigidActor@2@AEBVPxTransform@2@AEAV?$Array@IVNamedAllocator@shdfnd@physx@@@shdfnd@2@AEBUPxExtendedVec3@2@@Z 0000000180034dcc     CctCharacterControllerCallbacks.obj
 0002:00003e08       $unwind$?outputBoxToStream@@YAXPEAVPxShape@physx@@PEBVPxRigidActor@2@AEBVPxTransform@2@AEAV?$Array@IVNamedAllocator@shdfnd@physx@@@shdfnd@2@AEAVTriArray@Cct@2@3AEBUPxExtendedVec3@2@AEBVPxBounds3@2@AEBUCCTParams@82@AEAG@Z 0000000180034e08     CctCharacterControllerCallbacks.obj
 0002:00003e58       $unwind$?createInvisibleWalls@@YAIAEBUCCTParams@Cct@physx@@AEBVPxTriangle@3@AEAVTriArray@23@AEAV?$Array@IVNamedAllocator@shdfnd@physx@@@shdfnd@3@@Z 0000000180034e58     CctCharacterControllerCallbacks.obj
 0002:00003e74       $chain$8$?createInvisibleWalls@@YAIAEBUCCTParams@Cct@physx@@AEBVPxTriangle@3@AEAVTriArray@23@AEAV?$Array@IVNamedAllocator@shdfnd@physx@@@shdfnd@3@@Z 0000000180034e74     CctCharacterControllerCallbacks.obj
 0002:00003eb0       $chain$9$?createInvisibleWalls@@YAIAEBUCCTParams@Cct@physx@@AEBVPxTriangle@3@AEAVTriArray@23@AEAV?$Array@IVNamedAllocator@shdfnd@physx@@@shdfnd@3@@Z 0000000180034eb0     CctCharacterControllerCallbacks.obj
 0002:00003ec8       $chain$10$?createInvisibleWalls@@YAIAEBUCCTParams@Cct@physx@@AEBVPxTriangle@3@AEAVTriArray@23@AEAV?$Array@IVNamedAllocator@shdfnd@physx@@@shdfnd@3@@Z 0000000180034ec8     CctCharacterControllerCallbacks.obj
 0002:00003edc       $chain$11$?createInvisibleWalls@@YAIAEBUCCTParams@Cct@physx@@AEBVPxTriangle@3@AEAVTriArray@23@AEAV?$Array@IVNamedAllocator@shdfnd@physx@@@shdfnd@3@@Z 0000000180034edc     CctCharacterControllerCallbacks.obj
 0002:00003ef0       $unwind$?outputMeshToStream@@YAXPEAVPxShape@physx@@PEBVPxRigidActor@2@AEBVPxTransform@2@AEAV?$Array@IVNamedAllocator@shdfnd@physx@@@shdfnd@2@AEAVTriArray@Cct@2@3AEBUPxExtendedVec3@2@AEBVPxBounds3@2@AEBUCCTParams@82@PEAVRenderBuffer@Cm@2@AEAG@Z 0000000180034ef0     CctCharacterControllerCallbacks.obj
 0002:00003f24       $chain$4$?outputMeshToStream@@YAXPEAVPxShape@physx@@PEBVPxRigidActor@2@AEBVPxTransform@2@AEAV?$Array@IVNamedAllocator@shdfnd@physx@@@shdfnd@2@AEAVTriArray@Cct@2@3AEBUPxExtendedVec3@2@AEBVPxBounds3@2@AEBUCCTParams@82@PEAVRenderBuffer@Cm@2@AEAG@Z 0000000180034f24     CctCharacterControllerCallbacks.obj
 0002:00003f4c       $unwind$?outputHeightFieldToStream@@YAXPEAVPxShape@physx@@PEBVPxRigidActor@2@AEBVPxTransform@2@AEAV?$Array@IVNamedAllocator@shdfnd@physx@@@shdfnd@2@AEAVTriArray@Cct@2@3AEBUPxExtendedVec3@2@AEBVPxBounds3@2@AEBUCCTParams@82@PEAVRenderBuffer@Cm@2@AEAG@Z 0000000180034f4c     CctCharacterControllerCallbacks.obj
 0002:00003f7c       $chain$5$?outputHeightFieldToStream@@YAXPEAVPxShape@physx@@PEBVPxRigidActor@2@AEBVPxTransform@2@AEAV?$Array@IVNamedAllocator@shdfnd@physx@@@shdfnd@2@AEAVTriArray@Cct@2@3AEBUPxExtendedVec3@2@AEBVPxBounds3@2@AEBUCCTParams@82@PEAVRenderBuffer@Cm@2@AEAG@Z 0000000180034f7c     CctCharacterControllerCallbacks.obj
 0002:00003fa8       $unwind$?outputConvexToStream@@YAXPEAVPxShape@physx@@PEBVPxRigidActor@2@AEBVPxTransform@2@AEAV?$Array@IVNamedAllocator@shdfnd@physx@@@shdfnd@2@AEAVTriArray@Cct@2@3AEBUPxExtendedVec3@2@AEBVPxBounds3@2@AEBUCCTParams@82@PEAVRenderBuffer@Cm@2@AEAG@Z 0000000180034fa8     CctCharacterControllerCallbacks.obj
 0002:00003ff4       $unwind$??_GPxRenderBuffer@physx@@UEAAPEAXI@Z 0000000180034ff4     CctCharacterControllerManager.obj
 0002:00003ffc       $unwind$PxCreateControllerManager 0000000180034ffc     CctCharacterControllerManager.obj
 0002:0000400c       $unwind$??0CharacterControllerManager@Cct@physx@@QEAA@AEAVPxScene@2@_N@Z 000000018003500c     CctCharacterControllerManager.obj
 0002:00004024       $unwind$??1CharacterControllerManager@Cct@physx@@UEAA@XZ 0000000180035024     CctCharacterControllerManager.obj
 0002:00004030       $unwind$?release@CharacterControllerManager@Cct@physx@@UEAAXXZ 0000000180035030     CctCharacterControllerManager.obj
 0002:00004038       $chain$3$?release@CharacterControllerManager@Cct@physx@@UEAAXXZ 0000000180035038     CctCharacterControllerManager.obj
 0002:00004058       $chain$4$?release@CharacterControllerManager@Cct@physx@@UEAAXXZ 0000000180035058     CctCharacterControllerManager.obj
 0002:00004068       $unwind$?getController@CharacterControllerManager@Cct@physx@@UEAAPEAVPxController@3@I@Z 0000000180035068     CctCharacterControllerManager.obj
 0002:00004070       $unwind$?createController@CharacterControllerManager@Cct@physx@@UEAAPEAVPxController@3@AEBVPxControllerDesc@3@@Z 0000000180035070     CctCharacterControllerManager.obj
 0002:00004084       $unwind$?purgeControllers@CharacterControllerManager@Cct@physx@@UEAAXXZ 0000000180035084     CctCharacterControllerManager.obj
 0002:0000408c       $chain$3$?purgeControllers@CharacterControllerManager@Cct@physx@@UEAAXXZ 000000018003508c     CctCharacterControllerManager.obj
 0002:000040ac       $chain$4$?purgeControllers@CharacterControllerManager@Cct@physx@@UEAAXXZ 00000001800350ac     CctCharacterControllerManager.obj
 0002:000040bc       $unwind$?getRenderBuffer@CharacterControllerManager@Cct@physx@@UEAAAEAVPxRenderBuffer@3@XZ 00000001800350bc     CctCharacterControllerManager.obj
 0002:000040c4       $chain$2$?getRenderBuffer@CharacterControllerManager@Cct@physx@@UEAAAEAVPxRenderBuffer@3@XZ 00000001800350c4     CctCharacterControllerManager.obj
 0002:000040e0       $chain$3$?getRenderBuffer@CharacterControllerManager@Cct@physx@@UEAAAEAVPxRenderBuffer@3@XZ 00000001800350e0     CctCharacterControllerManager.obj
 0002:000040f0       $unwind$?setDebugRenderingFlags@CharacterControllerManager@Cct@physx@@UEAAXV?$PxFlags@W4Enum@PxControllerDebugRenderFlag@physx@@I@3@@Z 00000001800350f0     CctCharacterControllerManager.obj
 0002:000040f8       $unwind$?getObstacleContext@CharacterControllerManager@Cct@physx@@UEAAPEAVPxObstacleContext@3@I@Z 00000001800350f8     CctCharacterControllerManager.obj
 0002:00004100       $unwind$?createObstacleContext@CharacterControllerManager@Cct@physx@@UEAAPEAVPxObstacleContext@3@XZ 0000000180035100     CctCharacterControllerManager.obj
 0002:0000410c       $unwind$?computeInteractions@CharacterControllerManager@Cct@physx@@UEAAXMPEAVPxControllerFilterCallback@3@@Z 000000018003510c     CctCharacterControllerManager.obj
 0002:0000412c       $unwind$?shiftOrigin@CharacterControllerManager@Cct@physx@@UEAAXAEBVPxVec3@3@@Z 000000018003512c     CctCharacterControllerManager.obj
 0002:00004140       $unwind$?onRelease@CharacterControllerManager@Cct@physx@@UEAAXPEBVPxBase@3@PEAXW4Enum@PxDeletionEventFlag@3@@Z 0000000180035140     CctCharacterControllerManager.obj
 0002:0000414c       $chain$1$?onRelease@CharacterControllerManager@Cct@physx@@UEAAXPEBVPxBase@3@PEAXW4Enum@PxDeletionEventFlag@3@@Z 000000018003514c     CctCharacterControllerManager.obj
 0002:00004164       $chain$2$?onRelease@CharacterControllerManager@Cct@physx@@UEAAXPEBVPxBase@3@PEAXW4Enum@PxDeletionEventFlag@3@@Z 0000000180035164     CctCharacterControllerManager.obj
 0002:00004174       $unwind$?registerObservedObject@CharacterControllerManager@Cct@physx@@QEAAXPEBVPxBase@3@@Z 0000000180035174     CctCharacterControllerManager.obj
 0002:00004180       $unwind$?unregisterObservedObject@CharacterControllerManager@Cct@physx@@QEAAXPEBVPxBase@3@@Z 0000000180035180     CctCharacterControllerManager.obj
 0002:00004190       $unwind$?onObstacleRemoved@CharacterControllerManager@Cct@physx@@QEBAXI@Z 0000000180035190     CctCharacterControllerManager.obj
 0002:000041a0       $unwind$?onObstacleUpdated@CharacterControllerManager@Cct@physx@@QEBAXIPEBVPxObstacleContext@3@@Z 00000001800351a0     CctCharacterControllerManager.obj
 0002:000041b0       $chain$2$?onObstacleUpdated@CharacterControllerManager@Cct@physx@@QEBAXIPEBVPxObstacleContext@3@@Z 00000001800351b0     CctCharacterControllerManager.obj
 0002:000041cc       $chain$3$?onObstacleUpdated@CharacterControllerManager@Cct@physx@@QEBAXIPEBVPxObstacleContext@3@@Z 00000001800351cc     CctCharacterControllerManager.obj
 0002:000041dc       $unwind$?onObstacleAdded@CharacterControllerManager@Cct@physx@@QEBAXIPEBVPxObstacleContext@3@@Z 00000001800351dc     CctCharacterControllerManager.obj
 0002:000041ec       $chain$2$?onObstacleAdded@CharacterControllerManager@Cct@physx@@QEBAXIPEBVPxObstacleContext@3@@Z 00000001800351ec     CctCharacterControllerManager.obj
 0002:00004208       $chain$3$?onObstacleAdded@CharacterControllerManager@Cct@physx@@QEBAXIPEBVPxObstacleContext@3@@Z 0000000180035208     CctCharacterControllerManager.obj
 0002:00004218       $unwind$?releaseController@CharacterControllerManager@Cct@physx@@QEAAXAEAVPxController@3@@Z 0000000180035218     CctCharacterControllerManager.obj
 0002:00004220       $chain$0$?releaseController@CharacterControllerManager@Cct@physx@@QEAAXAEAVPxController@3@@Z 0000000180035220     CctCharacterControllerManager.obj
 0002:00004234       $chain$1$?releaseController@CharacterControllerManager@Cct@physx@@QEAAXAEAVPxController@3@@Z 0000000180035234     CctCharacterControllerManager.obj
 0002:00004248       $chain$2$?releaseController@CharacterControllerManager@Cct@physx@@QEAAXAEAVPxController@3@@Z 0000000180035248     CctCharacterControllerManager.obj
 0002:0000425c       $chain$3$?releaseController@CharacterControllerManager@Cct@physx@@QEAAXAEAVPxController@3@@Z 000000018003525c     CctCharacterControllerManager.obj
 0002:0000426c       $chain$4$?releaseController@CharacterControllerManager@Cct@physx@@QEAAXAEAVPxController@3@@Z 000000018003526c     CctCharacterControllerManager.obj
 0002:0000427c       $chain$5$?releaseController@CharacterControllerManager@Cct@physx@@QEAAXAEAVPxController@3@@Z 000000018003527c     CctCharacterControllerManager.obj
 0002:0000428c       $unwind$?resetObstaclesBuffers@CharacterControllerManager@Cct@physx@@QEAAXXZ 000000018003528c     CctCharacterControllerManager.obj
 0002:000042e0       $unwind$??_GPxDeletionListener@physx@@MEAAPEAXI@Z 00000001800352e0     CctCharacterControllerManager.obj
 0002:000042e8       $unwind$?append@RenderBuffer@Cm@physx@@UEAAXAEBVPxRenderBuffer@3@@Z 00000001800352e8     CctCharacterControllerManager.obj
 0002:00004304       $unwind$?growAndPushBack@?$Array@UPxDebugPoint@physx@@VNamedAllocator@shdfnd@2@@shdfnd@physx@@IEAAAEAUPxDebugPoint@3@AEBU43@@Z 0000000180035304     CctCharacterControllerManager.obj
 0002:00004314       $chain$0$?growAndPushBack@?$Array@UPxDebugPoint@physx@@VNamedAllocator@shdfnd@2@@shdfnd@physx@@IEAAAEAUPxDebugPoint@3@AEBU43@@Z 0000000180035314     CctCharacterControllerManager.obj
 0002:0000432c       $chain$1$?growAndPushBack@?$Array@UPxDebugPoint@physx@@VNamedAllocator@shdfnd@2@@shdfnd@physx@@IEAAAEAUPxDebugPoint@3@AEBU43@@Z 000000018003532c     CctCharacterControllerManager.obj
 0002:00004344       $chain$2$?growAndPushBack@?$Array@UPxDebugPoint@physx@@VNamedAllocator@shdfnd@2@@shdfnd@physx@@IEAAAEAUPxDebugPoint@3@AEBU43@@Z 0000000180035344     CctCharacterControllerManager.obj
 0002:00004358       $chain$3$?growAndPushBack@?$Array@UPxDebugPoint@physx@@VNamedAllocator@shdfnd@2@@shdfnd@physx@@IEAAAEAUPxDebugPoint@3@AEBU43@@Z 0000000180035358     CctCharacterControllerManager.obj
 0002:0000436c       $unwind$?recreate@?$Array@UPxDebugPoint@physx@@VNamedAllocator@shdfnd@2@@shdfnd@physx@@IEAAXI@Z 000000018003536c     CctCharacterControllerManager.obj
 0002:00004380       $chain$0$?recreate@?$Array@UPxDebugPoint@physx@@VNamedAllocator@shdfnd@2@@shdfnd@physx@@IEAAXI@Z 0000000180035380     CctCharacterControllerManager.obj
 0002:00004398       $chain$1$?recreate@?$Array@UPxDebugPoint@physx@@VNamedAllocator@shdfnd@2@@shdfnd@physx@@IEAAXI@Z 0000000180035398     CctCharacterControllerManager.obj
 0002:000043ac       $unwind$?growAndPushBack@?$Array@UPxDebugLine@physx@@VNamedAllocator@shdfnd@2@@shdfnd@physx@@IEAAAEAUPxDebugLine@3@AEBU43@@Z 00000001800353ac     CctCharacterControllerManager.obj
 0002:000043bc       $chain$0$?growAndPushBack@?$Array@UPxDebugLine@physx@@VNamedAllocator@shdfnd@2@@shdfnd@physx@@IEAAAEAUPxDebugLine@3@AEBU43@@Z 00000001800353bc     CctCharacterControllerManager.obj
 0002:000043d4       $chain$1$?growAndPushBack@?$Array@UPxDebugLine@physx@@VNamedAllocator@shdfnd@2@@shdfnd@physx@@IEAAAEAUPxDebugLine@3@AEBU43@@Z 00000001800353d4     CctCharacterControllerManager.obj
 0002:000043ec       $chain$2$?growAndPushBack@?$Array@UPxDebugLine@physx@@VNamedAllocator@shdfnd@2@@shdfnd@physx@@IEAAAEAUPxDebugLine@3@AEBU43@@Z 00000001800353ec     CctCharacterControllerManager.obj
 0002:00004400       $chain$3$?growAndPushBack@?$Array@UPxDebugLine@physx@@VNamedAllocator@shdfnd@2@@shdfnd@physx@@IEAAAEAUPxDebugLine@3@AEBU43@@Z 0000000180035400     CctCharacterControllerManager.obj
 0002:00004414       $unwind$?recreate@?$Array@UPxDebugLine@physx@@VNamedAllocator@shdfnd@2@@shdfnd@physx@@IEAAXI@Z 0000000180035414     CctCharacterControllerManager.obj
 0002:00004428       $chain$0$?recreate@?$Array@UPxDebugLine@physx@@VNamedAllocator@shdfnd@2@@shdfnd@physx@@IEAAXI@Z 0000000180035428     CctCharacterControllerManager.obj
 0002:00004440       $chain$1$?recreate@?$Array@UPxDebugLine@physx@@VNamedAllocator@shdfnd@2@@shdfnd@physx@@IEAAXI@Z 0000000180035440     CctCharacterControllerManager.obj
 0002:00004454       $unwind$?growAndPushBack@?$Array@UPxDebugTriangle@physx@@VNamedAllocator@shdfnd@2@@shdfnd@physx@@IEAAAEAUPxDebugTriangle@3@AEBU43@@Z 0000000180035454     CctCharacterControllerManager.obj
 0002:00004464       $chain$0$?growAndPushBack@?$Array@UPxDebugTriangle@physx@@VNamedAllocator@shdfnd@2@@shdfnd@physx@@IEAAAEAUPxDebugTriangle@3@AEBU43@@Z 0000000180035464     CctCharacterControllerManager.obj
 0002:0000447c       $chain$1$?growAndPushBack@?$Array@UPxDebugTriangle@physx@@VNamedAllocator@shdfnd@2@@shdfnd@physx@@IEAAAEAUPxDebugTriangle@3@AEBU43@@Z 000000018003547c     CctCharacterControllerManager.obj
 0002:00004494       $chain$2$?growAndPushBack@?$Array@UPxDebugTriangle@physx@@VNamedAllocator@shdfnd@2@@shdfnd@physx@@IEAAAEAUPxDebugTriangle@3@AEBU43@@Z 0000000180035494     CctCharacterControllerManager.obj
 0002:000044a8       $chain$3$?growAndPushBack@?$Array@UPxDebugTriangle@physx@@VNamedAllocator@shdfnd@2@@shdfnd@physx@@IEAAAEAUPxDebugTriangle@3@AEBU43@@Z 00000001800354a8     CctCharacterControllerManager.obj
 0002:000044bc       $unwind$?recreate@?$Array@UPxDebugTriangle@physx@@VNamedAllocator@shdfnd@2@@shdfnd@physx@@IEAAXI@Z 00000001800354bc     CctCharacterControllerManager.obj
 0002:000044d0       $chain$0$?recreate@?$Array@UPxDebugTriangle@physx@@VNamedAllocator@shdfnd@2@@shdfnd@physx@@IEAAXI@Z 00000001800354d0     CctCharacterControllerManager.obj
 0002:000044e8       $chain$1$?recreate@?$Array@UPxDebugTriangle@physx@@VNamedAllocator@shdfnd@2@@shdfnd@physx@@IEAAXI@Z 00000001800354e8     CctCharacterControllerManager.obj
 0002:000044fc       $unwind$?growAndPushBack@?$Array@UPxDebugText@physx@@VNamedAllocator@shdfnd@2@@shdfnd@physx@@IEAAAEAUPxDebugText@3@AEBU43@@Z 00000001800354fc     CctCharacterControllerManager.obj
 0002:0000450c       $chain$0$?growAndPushBack@?$Array@UPxDebugText@physx@@VNamedAllocator@shdfnd@2@@shdfnd@physx@@IEAAAEAUPxDebugText@3@AEBU43@@Z 000000018003550c     CctCharacterControllerManager.obj
 0002:00004524       $chain$1$?growAndPushBack@?$Array@UPxDebugText@physx@@VNamedAllocator@shdfnd@2@@shdfnd@physx@@IEAAAEAUPxDebugText@3@AEBU43@@Z 0000000180035524     CctCharacterControllerManager.obj
 0002:0000453c       $chain$2$?growAndPushBack@?$Array@UPxDebugText@physx@@VNamedAllocator@shdfnd@2@@shdfnd@physx@@IEAAAEAUPxDebugText@3@AEBU43@@Z 000000018003553c     CctCharacterControllerManager.obj
 0002:00004550       $chain$3$?growAndPushBack@?$Array@UPxDebugText@physx@@VNamedAllocator@shdfnd@2@@shdfnd@physx@@IEAAAEAUPxDebugText@3@AEBU43@@Z 0000000180035550     CctCharacterControllerManager.obj
 0002:00004564       $unwind$?recreate@?$Array@UPxDebugText@physx@@VNamedAllocator@shdfnd@2@@shdfnd@physx@@IEAAXI@Z 0000000180035564     CctCharacterControllerManager.obj
 0002:00004578       $chain$0$?recreate@?$Array@UPxDebugText@physx@@VNamedAllocator@shdfnd@2@@shdfnd@physx@@IEAAXI@Z 0000000180035578     CctCharacterControllerManager.obj
 0002:00004590       $chain$1$?recreate@?$Array@UPxDebugText@physx@@VNamedAllocator@shdfnd@2@@shdfnd@physx@@IEAAXI@Z 0000000180035590     CctCharacterControllerManager.obj
 0002:000045a4       $unwind$??_GRenderBuffer@Cm@physx@@UEAAPEAXI@Z 00000001800355a4     CctCharacterControllerManager.obj
 0002:000045b8       $unwind$?resize@?$Array@PEBXVNamedAllocator@shdfnd@physx@@@shdfnd@physx@@QEAAXIAEBQEBX@Z 00000001800355b8     CctCharacterControllerManager.obj
 0002:000045d0       $unwind$?recreate@?$Array@PEBXVNamedAllocator@shdfnd@physx@@@shdfnd@physx@@IEAAXI@Z 00000001800355d0     CctCharacterControllerManager.obj
 0002:000045e4       $chain$0$?recreate@?$Array@PEBXVNamedAllocator@shdfnd@physx@@@shdfnd@physx@@IEAAXI@Z 00000001800355e4     CctCharacterControllerManager.obj
 0002:000045fc       $chain$1$?recreate@?$Array@PEBXVNamedAllocator@shdfnd@physx@@@shdfnd@physx@@IEAAXI@Z 00000001800355fc     CctCharacterControllerManager.obj
 0002:00004610       $unwind$?resize@?$Array@VPxExtendedBox@physx@@VNamedAllocator@shdfnd@2@@shdfnd@physx@@QEAAXIAEBVPxExtendedBox@3@@Z 0000000180035610     CctCharacterControllerManager.obj
 0002:00004624       $unwind$?recreate@?$Array@VPxExtendedBox@physx@@VNamedAllocator@shdfnd@2@@shdfnd@physx@@IEAAXI@Z 0000000180035624     CctCharacterControllerManager.obj
 0002:0000463c       $unwind$?resize@?$Array@UPxExtendedCapsule@physx@@VNamedAllocator@shdfnd@2@@shdfnd@physx@@QEAAXIAEBUPxExtendedCapsule@3@@Z 000000018003563c     CctCharacterControllerManager.obj
 0002:00004650       $unwind$?recreate@?$Array@UPxExtendedCapsule@physx@@VNamedAllocator@shdfnd@2@@shdfnd@physx@@IEAAXI@Z 0000000180035650     CctCharacterControllerManager.obj
 0002:00004668       $unwind$?growAndPushBack@?$Array@PEAVController@Cct@physx@@VNamedAllocator@shdfnd@3@@shdfnd@physx@@IEAAAEAPEAVController@Cct@3@AEBQEAV453@@Z 0000000180035668     CctCharacterControllerManager.obj
 0002:00004680       $unwind$?create@?$HashBase@PEAVPxShape@physx@@PEAV12@U?$Hash@PEAVPxShape@physx@@@shdfnd@2@UGetKey@?$HashSetBase@PEAVPxShape@physx@@U?$Hash@PEAVPxShape@physx@@@shdfnd@2@VNonTrackingAllocator@42@$0A@@internal@42@VNonTrackingAllocator@42@$0A@@internal@shdfnd@physx@@QEAAPEAPEAVPxShape@4@AEBQEAV54@AEA_N@Z 0000000180035680     CctCharacterControllerManager.obj
 0002:00004690       $unwind$?reserveInternal@?$HashBase@PEAVPxShape@physx@@PEAV12@U?$Hash@PEAVPxShape@physx@@@shdfnd@2@UGetKey@?$HashSetBase@PEAVPxShape@physx@@U?$Hash@PEAVPxShape@physx@@@shdfnd@2@VNonTrackingAllocator@42@$0A@@internal@42@VNonTrackingAllocator@42@$0A@@internal@shdfnd@physx@@AEAAXI@Z 0000000180035690     CctCharacterControllerManager.obj
 0002:000046ac       $unwind$?growAndPushBack@?$Array@PEAVObstacleContext@Cct@physx@@VNamedAllocator@shdfnd@3@@shdfnd@physx@@IEAAAEAPEAVObstacleContext@Cct@3@AEBQEAV453@@Z 00000001800356ac     CctCharacterControllerManager.obj
 0002:000046c4       $unwind$?create@?$HashBase@V?$Pair@QEBVPxBase@physx@@UObservedRefCounter@Cct@2@@shdfnd@physx@@PEBVPxBase@3@U?$Hash@PEBVPxBase@physx@@@23@UGetKey@?$HashMapBase@PEBVPxBase@physx@@UObservedRefCounter@Cct@2@U?$Hash@PEBVPxBase@physx@@@shdfnd@2@VNonTrackingAllocator@62@@internal@23@VNonTrackingAllocator@23@$00@internal@shdfnd@physx@@QEAAPEAV?$Pair@QEBVPxBase@physx@@UObservedRefCounter@Cct@2@@34@AEBQEBVPxBase@4@AEA_N@Z 00000001800356c4     CctCharacterControllerManager.obj
 0002:000046d4       $unwind$?reserveInternal@?$HashBase@V?$Pair@QEBVPxBase@physx@@UObservedRefCounter@Cct@2@@shdfnd@physx@@PEBVPxBase@3@U?$Hash@PEBVPxBase@physx@@@23@UGetKey@?$HashMapBase@PEBVPxBase@physx@@UObservedRefCounter@Cct@2@U?$Hash@PEBVPxBase@physx@@@shdfnd@2@VNonTrackingAllocator@62@@internal@23@VNonTrackingAllocator@23@$00@internal@shdfnd@physx@@AEAAXI@Z 00000001800356d4     CctCharacterControllerManager.obj
 0002:000046f4       $unwind$??_GCharacterControllerManager@Cct@physx@@UEAAPEAXI@Z 00000001800356f4     CctCharacterControllerManager.obj
 0002:00004704       $unwind$??$resetOrClear@V?$Array@PEBXVNamedAllocator@shdfnd@physx@@@shdfnd@physx@@@@YAXAEAV?$Array@PEBXVNamedAllocator@shdfnd@physx@@@shdfnd@physx@@@Z 0000000180035704     CctCharacterControllerManager.obj
 0002:0000470c       $unwind$??$resetOrClear@V?$Array@VPxExtendedBox@physx@@VNamedAllocator@shdfnd@2@@shdfnd@physx@@@@YAXAEAV?$Array@VPxExtendedBox@physx@@VNamedAllocator@shdfnd@2@@shdfnd@physx@@@Z 000000018003570c     CctCharacterControllerManager.obj
 0002:00004714       $unwind$??$resetOrClear@V?$Array@UPxExtendedCapsule@physx@@VNamedAllocator@shdfnd@2@@shdfnd@physx@@@@YAXAEAV?$Array@UPxExtendedCapsule@physx@@VNamedAllocator@shdfnd@2@@shdfnd@physx@@@Z 0000000180035714     CctCharacterControllerManager.obj
 0002:0000471c       $unwind$?computeMTD@@YA_NAEAVPxVec3@physx@@AEAMAEBV12@2AEBVPxMat33@2@223@Z 000000018003571c     CctCharacterControllerManager.obj
 0002:00004768       $unwind$?InteractionCharacterCharacter@@YAXPEAVController@Cct@physx@@0M@Z 0000000180035768     CctCharacterControllerManager.obj
 0002:000047ac       $unwind$??0Controller@Cct@physx@@QEAA@AEBVPxControllerDesc@2@PEAVPxScene@2@@Z 00000001800357ac     CctController.obj
 0002:000047c4       $unwind$??1Controller@Cct@physx@@UEAA@XZ 00000001800357c4     CctController.obj
 0002:000047d0       $unwind$?releaseInternal@Controller@Cct@physx@@QEAAXXZ 00000001800357d0     CctController.obj
 0002:000047d8       $unwind$?getInternalState@Controller@Cct@physx@@QEBAXAEAUPxControllerState@3@@Z 00000001800357d8     CctController.obj
 0002:000047e4       $unwind$?onOriginShift@Controller@Cct@physx@@QEAAXAEBVPxVec3@3@@Z 00000001800357e4     CctController.obj
 0002:000047f0       $unwind$?setUpDirectionInternal@Controller@Cct@physx@@IEAAXAEBVPxVec3@3@@Z 00000001800357f0     CctController.obj
 0002:000047fc       $unwind$?getKineShape@Controller@Cct@physx@@IEBAPEAVPxShape@3@XZ 00000001800357fc     CctController.obj
 0002:00004804       $unwind$?createProxyActor@Controller@Cct@physx@@IEAA_NAEAVPxPhysics@3@AEBVPxGeometry@3@AEBVPxMaterial@3@@Z 0000000180035804     CctController.obj
 0002:00004814       $unwind$?setPos@Controller@Cct@physx@@IEAA_NAEBUPxExtendedVec3@3@@Z 0000000180035814     CctController.obj
 0002:00004828       $unwind$??_GController@Cct@physx@@UEAAPEAXI@Z 0000000180035828     CctController.obj
 0002:0000483c       $unwind$??_GPxObstacleContext@physx@@UEAAPEAXI@Z 000000018003583c     CctObstacleContext.obj
 0002:00004844       $unwind$??0HandleManager@Cct@physx@@QEAA@XZ 0000000180035844     CctObstacleContext.obj
 0002:00004850       $unwind$??1HandleManager@Cct@physx@@QEAA@XZ 0000000180035850     CctObstacleContext.obj
 0002:00004858       $unwind$?Add@HandleManager@Cct@physx@@QEAAIPEAX@Z 0000000180035858     CctObstacleContext.obj
 0002:00004864       $chain$3$?Add@HandleManager@Cct@physx@@QEAAIPEAX@Z 0000000180035864     CctObstacleContext.obj
 0002:00004884       $chain$4$?Add@HandleManager@Cct@physx@@QEAAIPEAX@Z 0000000180035884     CctObstacleContext.obj
 0002:00004894       $unwind$?Remove@HandleManager@Cct@physx@@QEAAXI@Z 0000000180035894     CctObstacleContext.obj
 0002:0000489c       $chain$1$?Remove@HandleManager@Cct@physx@@QEAAXI@Z 000000018003589c     CctObstacleContext.obj
 0002:000048b4       $chain$2$?Remove@HandleManager@Cct@physx@@QEAAXI@Z 00000001800358b4     CctObstacleContext.obj
 0002:000048c4       $unwind$?SetupLists@HandleManager@Cct@physx@@AEAA_NPEAPEAXPEAG11@Z 00000001800358c4     CctObstacleContext.obj
 0002:000048dc       $unwind$??0ObstacleContext@Cct@physx@@QEAA@AEAVCharacterControllerManager@12@@Z 00000001800358dc     CctObstacleContext.obj
 0002:000048f0       $unwind$??1ObstacleContext@Cct@physx@@UEAA@XZ 00000001800358f0     CctObstacleContext.obj
 0002:000048fc       $unwind$?addObstacle@ObstacleContext@Cct@physx@@UEAAIAEBVPxObstacle@3@@Z 00000001800358fc     CctObstacleContext.obj
 0002:0000491c       $chain$0$?addObstacle@ObstacleContext@Cct@physx@@UEAAIAEBVPxObstacle@3@@Z 000000018003591c     CctObstacleContext.obj
 0002:00004930       $chain$1$?addObstacle@ObstacleContext@Cct@physx@@UEAAIAEBVPxObstacle@3@@Z 0000000180035930     CctObstacleContext.obj
 0002:00004940       $unwind$?removeObstacle@ObstacleContext@Cct@physx@@UEAA_NI@Z 0000000180035940     CctObstacleContext.obj
 0002:0000495c       $unwind$?updateObstacle@ObstacleContext@Cct@physx@@UEAA_NIAEBVPxObstacle@3@@Z 000000018003595c     CctObstacleContext.obj
 0002:00004964       $unwind$?raycastSingle@ObstacleContext@Cct@physx@@QEBAPEBVPxObstacle@3@AEAUPxRaycastHit@3@AEBVPxVec3@3@1MAEAI@Z 0000000180035964     CctObstacleContext.obj
 0002:00004988       $unwind$?raycastSingle@ObstacleContext@Cct@physx@@QEBAPEBVPxObstacle@3@AEAUPxRaycastHit@3@AEBIAEBVPxVec3@3@2M@Z 0000000180035988     CctObstacleContext.obj
 0002:000049c0       $unwind$?growAndPushBack@?$Array@UInternalBoxObstacle@ObstacleContext@Cct@physx@@VNamedAllocator@shdfnd@4@@shdfnd@physx@@IEAAAEAUInternalBoxObstacle@ObstacleContext@Cct@3@AEBU4563@@Z 00000001800359c0     CctObstacleContext.obj
 0002:000049d8       $unwind$?growAndPushBack@?$Array@UInternalCapsuleObstacle@ObstacleContext@Cct@physx@@VNamedAllocator@shdfnd@4@@shdfnd@physx@@IEAAAEAUInternalCapsuleObstacle@ObstacleContext@Cct@3@AEBU4563@@Z 00000001800359d8     CctObstacleContext.obj
 0002:000049f0       $unwind$??_GObstacleContext@Cct@physx@@UEAAPEAXI@Z 00000001800359f0     CctObstacleContext.obj
 0002:00004a04       $unwind$??0SweptBox@Cct@physx@@QEAA@XZ 0000000180035a04     CctSweptBox.obj
 0002:00004a0c       $unwind$?computeTemporalBox@SweptBox@Cct@physx@@UEBAXAEBVSweepTest@23@AEAUPxExtendedBounds3@3@AEBUPxExtendedVec3@3@AEBVPxVec3@3@@Z 0000000180035a0c     CctSweptBox.obj
 0002:00004a18       $unwind$??_GSweptBox@Cct@physx@@UEAAPEAXI@Z 0000000180035a18     CctSweptBox.obj
 0002:00004a28       $unwind$??0SweptCapsule@Cct@physx@@QEAA@XZ 0000000180035a28     CctSweptCapsule.obj
 0002:00004a30       $unwind$?computeTemporalBox@SweptCapsule@Cct@physx@@UEBAXAEBVSweepTest@23@AEAUPxExtendedBounds3@3@AEBUPxExtendedVec3@3@AEBVPxVec3@3@@Z 0000000180035a30     CctSweptCapsule.obj
 0002:00004a3c       $unwind$??_GSweptCapsule@Cct@physx@@UEAAPEAXI@Z 0000000180035a3c     CctSweptCapsule.obj
 0002:00004a4c       $unwind$??_GSweptVolume@Cct@physx@@UEAAPEAXI@Z 0000000180035a4c     CctSweptVolume.obj
 0002:00004a54       $unwind$?computeTemporalBox@Cct@physx@@YAXAEAUPxExtendedBounds3@2@MMMMAEBVPxVec3@2@AEBUPxExtendedVec3@2@1@Z 0000000180035a54     CctSweptVolume.obj
 0002:00004a90       $unwind$??1PxMeshOverlapUtil@physx@@QEAA@XZ 0000000180035a90     PhysX3ExtensionsCHECKED:ExtTriangleMeshExt.obj
 0002:00004a98       $unwind$?findOverlap@PxMeshOverlapUtil@physx@@QEAAIAEBVPxGeometry@2@AEBVPxTransform@2@AEBVPxTriangleMeshGeometry@2@1@Z 0000000180035a98     PhysX3ExtensionsCHECKED:ExtTriangleMeshExt.obj
 0002:00004aac       $chain$0$?findOverlap@PxMeshOverlapUtil@physx@@QEAAIAEBVPxGeometry@2@AEBVPxTransform@2@AEBVPxTriangleMeshGeometry@2@1@Z 0000000180035aac     PhysX3ExtensionsCHECKED:ExtTriangleMeshExt.obj
 0002:00004ac0       $chain$1$?findOverlap@PxMeshOverlapUtil@physx@@QEAAIAEBVPxGeometry@2@AEBVPxTransform@2@AEBVPxTriangleMeshGeometry@2@1@Z 0000000180035ac0     PhysX3ExtensionsCHECKED:ExtTriangleMeshExt.obj
 0002:00004ad0       $unwind$?findOverlap@PxMeshOverlapUtil@physx@@QEAAIAEBVPxGeometry@2@AEBVPxTransform@2@AEBVPxHeightFieldGeometry@2@1@Z 0000000180035ad0     PhysX3ExtensionsCHECKED:ExtTriangleMeshExt.obj
 0002:00004aec       $unwind$?PxComputeMeshPenetration@physx@@YA?AVPxVec3@1@IAEBVPxGeometry@1@AEBVPxTransform@1@AEBVPxTriangleMeshGeometry@1@1AEAI@Z 0000000180035aec     PhysX3ExtensionsCHECKED:ExtTriangleMeshExt.obj
 0002:00004af4       $unwind$?PxComputeHeightFieldPenetration@physx@@YA?AVPxVec3@1@IAEBVPxGeometry@1@AEBVPxTransform@1@AEBVPxHeightFieldGeometry@1@1AEAI@Z 0000000180035af4     PhysX3ExtensionsCHECKED:ExtTriangleMeshExt.obj
 0002:00004b08       $unwind$??$computeMeshPenetrationT@VPxTriangleMeshGeometry@physx@@@?A0x05e637a1@@YA_NAEAVPxVec3@physx@@AEAMAEBVPxGeometry@2@AEBVPxTransform@2@AEBVPxTriangleMeshGeometry@2@3IPEAI@Z 0000000180035b08     PhysX3ExtensionsCHECKED:ExtTriangleMeshExt.obj
 0002:00004b18       $chain$1$??$computeMeshPenetrationT@VPxTriangleMeshGeometry@physx@@@?A0x05e637a1@@YA_NAEAVPxVec3@physx@@AEAMAEBVPxGeometry@2@AEBVPxTransform@2@AEBVPxTriangleMeshGeometry@2@3IPEAI@Z 0000000180035b18     PhysX3ExtensionsCHECKED:ExtTriangleMeshExt.obj
 0002:00004b34       $chain$3$??$computeMeshPenetrationT@VPxTriangleMeshGeometry@physx@@@?A0x05e637a1@@YA_NAEAVPxVec3@physx@@AEAMAEBVPxGeometry@2@AEBVPxTransform@2@AEBVPxTriangleMeshGeometry@2@3IPEAI@Z 0000000180035b34     PhysX3ExtensionsCHECKED:ExtTriangleMeshExt.obj
 0002:00004b50       $chain$5$??$computeMeshPenetrationT@VPxTriangleMeshGeometry@physx@@@?A0x05e637a1@@YA_NAEAVPxVec3@physx@@AEAMAEBVPxGeometry@2@AEBVPxTransform@2@AEBVPxTriangleMeshGeometry@2@3IPEAI@Z 0000000180035b50     PhysX3ExtensionsCHECKED:ExtTriangleMeshExt.obj
 0002:00004b6c       $chain$6$??$computeMeshPenetrationT@VPxTriangleMeshGeometry@physx@@@?A0x05e637a1@@YA_NAEAVPxVec3@physx@@AEAMAEBVPxGeometry@2@AEBVPxTransform@2@AEBVPxTriangleMeshGeometry@2@3IPEAI@Z 0000000180035b6c     PhysX3ExtensionsCHECKED:ExtTriangleMeshExt.obj
 0002:00004b80       $chain$7$??$computeMeshPenetrationT@VPxTriangleMeshGeometry@physx@@@?A0x05e637a1@@YA_NAEAVPxVec3@physx@@AEAMAEBVPxGeometry@2@AEBVPxTransform@2@AEBVPxTriangleMeshGeometry@2@3IPEAI@Z 0000000180035b80     PhysX3ExtensionsCHECKED:ExtTriangleMeshExt.obj
 0002:00004b94       $chain$8$??$computeMeshPenetrationT@VPxTriangleMeshGeometry@physx@@@?A0x05e637a1@@YA_NAEAVPxVec3@physx@@AEAMAEBVPxGeometry@2@AEBVPxTransform@2@AEBVPxTriangleMeshGeometry@2@3IPEAI@Z 0000000180035b94     PhysX3ExtensionsCHECKED:ExtTriangleMeshExt.obj
 0002:00004ba8       $unwind$??$computeMeshPenetrationT@VPxHeightFieldGeometry@physx@@@?A0x05e637a1@@YA_NAEAVPxVec3@physx@@AEAMAEBVPxGeometry@2@AEBVPxTransform@2@AEBVPxHeightFieldGeometry@2@3IPEAI@Z 0000000180035ba8     PhysX3ExtensionsCHECKED:ExtTriangleMeshExt.obj
 0002:00004bb8       $chain$1$??$computeMeshPenetrationT@VPxHeightFieldGeometry@physx@@@?A0x05e637a1@@YA_NAEAVPxVec3@physx@@AEAMAEBVPxGeometry@2@AEBVPxTransform@2@AEBVPxHeightFieldGeometry@2@3IPEAI@Z 0000000180035bb8     PhysX3ExtensionsCHECKED:ExtTriangleMeshExt.obj
 0002:00004bd4       $chain$3$??$computeMeshPenetrationT@VPxHeightFieldGeometry@physx@@@?A0x05e637a1@@YA_NAEAVPxVec3@physx@@AEAMAEBVPxGeometry@2@AEBVPxTransform@2@AEBVPxHeightFieldGeometry@2@3IPEAI@Z 0000000180035bd4     PhysX3ExtensionsCHECKED:ExtTriangleMeshExt.obj
 0002:00004bf0       $chain$5$??$computeMeshPenetrationT@VPxHeightFieldGeometry@physx@@@?A0x05e637a1@@YA_NAEAVPxVec3@physx@@AEAMAEBVPxGeometry@2@AEBVPxTransform@2@AEBVPxHeightFieldGeometry@2@3IPEAI@Z 0000000180035bf0     PhysX3ExtensionsCHECKED:ExtTriangleMeshExt.obj
 0002:00004c0c       $chain$6$??$computeMeshPenetrationT@VPxHeightFieldGeometry@physx@@@?A0x05e637a1@@YA_NAEAVPxVec3@physx@@AEAMAEBVPxGeometry@2@AEBVPxTransform@2@AEBVPxHeightFieldGeometry@2@3IPEAI@Z 0000000180035c0c     PhysX3ExtensionsCHECKED:ExtTriangleMeshExt.obj
 0002:00004c20       $chain$7$??$computeMeshPenetrationT@VPxHeightFieldGeometry@physx@@@?A0x05e637a1@@YA_NAEAVPxVec3@physx@@AEAMAEBVPxGeometry@2@AEBVPxTransform@2@AEBVPxHeightFieldGeometry@2@3IPEAI@Z 0000000180035c20     PhysX3ExtensionsCHECKED:ExtTriangleMeshExt.obj
 0002:00004c34       $chain$8$??$computeMeshPenetrationT@VPxHeightFieldGeometry@physx@@@?A0x05e637a1@@YA_NAEAVPxVec3@physx@@AEAMAEBVPxGeometry@2@AEBVPxTransform@2@AEBVPxHeightFieldGeometry@2@3IPEAI@Z 0000000180035c34     PhysX3ExtensionsCHECKED:ExtTriangleMeshExt.obj
 0002:00004c48       $unwind$?transformFast@PxBounds3@physx@@SA?AV12@AEBVPxTransform@2@AEBV12@@Z 0000000180035c48     PhysX3ExtensionsCHECKED:ExtRigidBodyExt.obj
 0002:00004c7c       $unwind$??_G?$PxHitCallback@UPxSweepHit@physx@@@physx@@UEAAPEAXI@Z 0000000180035c7c     PhysX3ExtensionsCHECKED:ExtRigidBodyExt.obj
 0002:00004c84       $unwind$??_G?$PxHitBuffer@UPxSweepHit@physx@@@physx@@UEAAPEAXI@Z 0000000180035c84     PhysX3ExtensionsCHECKED:ExtRigidBodyExt.obj
 0002:00004c8c       $unwind$??0PxMassProperties@physx@@QEAA@AEBVPxGeometry@1@@Z 0000000180035c8c     PhysX3ExtensionsCHECKED:ExtRigidBodyExt.obj
 0002:00004ca8       $chain$8$??0PxMassProperties@physx@@QEAA@AEBVPxGeometry@1@@Z 0000000180035ca8     PhysX3ExtensionsCHECKED:ExtRigidBodyExt.obj
 0002:00004ce4       $chain$9$??0PxMassProperties@physx@@QEAA@AEBVPxGeometry@1@@Z 0000000180035ce4     PhysX3ExtensionsCHECKED:ExtRigidBodyExt.obj
 0002:00004cf8       $unwind$?scaleInertia@PxMassProperties@physx@@SA?AVPxMat33@2@AEBV32@AEBVPxQuat@2@AEBVPxVec3@2@@Z 0000000180035cf8     PhysX3ExtensionsCHECKED:ExtRigidBodyExt.obj
 0002:00004d2c       $unwind$?sum@PxMassProperties@physx@@SA?AV12@PEBV12@PEBVPxTransform@2@I@Z 0000000180035d2c     PhysX3ExtensionsCHECKED:ExtRigidBodyExt.obj
 0002:00004d60       $unwind$?updateMassAndInertia@PxRigidBodyExt@physx@@SA_NAEAVPxRigidBody@2@PEBMIPEBVPxVec3@2@_N@Z 0000000180035d60     PhysX3ExtensionsCHECKED:ExtRigidBodyExt.obj
 0002:00004d68       $unwind$?updateMassAndInertia@PxRigidBodyExt@physx@@SA_NAEAVPxRigidBody@2@MPEBVPxVec3@2@_N@Z 0000000180035d68     PhysX3ExtensionsCHECKED:ExtRigidBodyExt.obj
 0002:00004d70       $unwind$?setMassAndUpdateInertia@PxRigidBodyExt@physx@@SA_NAEAVPxRigidBody@2@PEBMIPEBVPxVec3@2@_N@Z 0000000180035d70     PhysX3ExtensionsCHECKED:ExtRigidBodyExt.obj
 0002:00004d78       $unwind$?setMassAndUpdateInertia@PxRigidBodyExt@physx@@SA_NAEAVPxRigidBody@2@MPEBVPxVec3@2@_N@Z 0000000180035d78     PhysX3ExtensionsCHECKED:ExtRigidBodyExt.obj
 0002:00004d80       $unwind$?computeMassPropertiesFromShapes@PxRigidBodyExt@physx@@SA?AVPxMassProperties@2@PEBQEBVPxShape@2@I@Z 0000000180035d80     PhysX3ExtensionsCHECKED:ExtRigidBodyExt.obj
 0002:00004d9c       $unwind$?addForceAtLocalPos@PxRigidBodyExt@physx@@SAXAEAVPxRigidBody@2@AEBVPxVec3@2@1W4Enum@PxForceMode@2@_N@Z 0000000180035d9c     PhysX3ExtensionsCHECKED:ExtRigidBodyExt.obj
 0002:00004dd0       $unwind$?addLocalForceAtPos@PxRigidBodyExt@physx@@SAXAEAVPxRigidBody@2@AEBVPxVec3@2@1W4Enum@PxForceMode@2@_N@Z 0000000180035dd0     PhysX3ExtensionsCHECKED:ExtRigidBodyExt.obj
 0002:00004e04       $unwind$?addLocalForceAtLocalPos@PxRigidBodyExt@physx@@SAXAEAVPxRigidBody@2@AEBVPxVec3@2@1W4Enum@PxForceMode@2@_N@Z 0000000180035e04     PhysX3ExtensionsCHECKED:ExtRigidBodyExt.obj
 0002:00004e38       $unwind$?getVelocityAtPos@PxRigidBodyExt@physx@@SA?AVPxVec3@2@AEBVPxRigidBody@2@AEBV32@@Z 0000000180035e38     PhysX3ExtensionsCHECKED:ExtRigidBodyExt.obj
 0002:00004e68       $unwind$?getLocalVelocityAtLocalPos@PxRigidBodyExt@physx@@SA?AVPxVec3@2@AEBVPxRigidBody@2@AEBV32@@Z 0000000180035e68     PhysX3ExtensionsCHECKED:ExtRigidBodyExt.obj
 0002:00004ea4       $unwind$?getVelocityAtOffset@PxRigidBodyExt@physx@@SA?AVPxVec3@2@AEBVPxRigidBody@2@AEBV32@@Z 0000000180035ea4     PhysX3ExtensionsCHECKED:ExtRigidBodyExt.obj
 0002:00004ed4       $unwind$?linearSweepSingle@PxRigidBodyExt@physx@@SA_NAEAVPxRigidBody@2@AEAVPxScene@2@AEBVPxVec3@2@MV?$PxFlags@W4Enum@PxHitFlag@physx@@G@2@AEAUPxSweepHit@2@AEAIAEBUPxQueryFilterData@2@PEAVPxQueryFilterCallback@2@PEBUPxQueryCache@2@M@Z 0000000180035ed4     PhysX3ExtensionsCHECKED:ExtRigidBodyExt.obj
 0002:00004ef4       $chain$8$?linearSweepSingle@PxRigidBodyExt@physx@@SA_NAEAVPxRigidBody@2@AEAVPxScene@2@AEBVPxVec3@2@MV?$PxFlags@W4Enum@PxHitFlag@physx@@G@2@AEAUPxSweepHit@2@AEAIAEBUPxQueryFilterData@2@PEAVPxQueryFilterCallback@2@PEBUPxQueryCache@2@M@Z 0000000180035ef4     PhysX3ExtensionsCHECKED:ExtRigidBodyExt.obj
 0002:00004f28       $chain$9$?linearSweepSingle@PxRigidBodyExt@physx@@SA_NAEAVPxRigidBody@2@AEAVPxScene@2@AEBVPxVec3@2@MV?$PxFlags@W4Enum@PxHitFlag@physx@@G@2@AEAUPxSweepHit@2@AEAIAEBUPxQueryFilterData@2@PEAVPxQueryFilterCallback@2@PEBUPxQueryCache@2@M@Z 0000000180035f28     PhysX3ExtensionsCHECKED:ExtRigidBodyExt.obj
 0002:00004f38       $unwind$?linearSweepMultiple@PxRigidBodyExt@physx@@SAIAEAVPxRigidBody@2@AEAVPxScene@2@AEBVPxVec3@2@MV?$PxFlags@W4Enum@PxHitFlag@physx@@G@2@PEAUPxSweepHit@2@PEAIIAEAU72@AEAHAEA_NAEBUPxQueryFilterData@2@PEAVPxQueryFilterCallback@2@PEBUPxQueryCache@2@M@Z 0000000180035f38     PhysX3ExtensionsCHECKED:ExtRigidBodyExt.obj
 0002:00004f50       $chain$10$?linearSweepMultiple@PxRigidBodyExt@physx@@SAIAEAVPxRigidBody@2@AEAVPxScene@2@AEBVPxVec3@2@MV?$PxFlags@W4Enum@PxHitFlag@physx@@G@2@PEAUPxSweepHit@2@PEAIIAEAU72@AEAHAEA_NAEBUPxQueryFilterData@2@PEAVPxQueryFilterCallback@2@PEBUPxQueryCache@2@M@Z 0000000180035f50     PhysX3ExtensionsCHECKED:ExtRigidBodyExt.obj
 0002:00004f8c       $chain$11$?linearSweepMultiple@PxRigidBodyExt@physx@@SAIAEAVPxRigidBody@2@AEAVPxScene@2@AEBVPxVec3@2@MV?$PxFlags@W4Enum@PxHitFlag@physx@@G@2@PEAUPxSweepHit@2@PEAIIAEAU72@AEAHAEA_NAEBUPxQueryFilterData@2@PEAVPxQueryFilterCallback@2@PEBUPxQueryCache@2@M@Z 0000000180035f8c     PhysX3ExtensionsCHECKED:ExtRigidBodyExt.obj
 0002:00004f9c       $unwind$?computeVelocityDeltaFromImpulse@PxRigidBodyExt@physx@@SAXAEBVPxRigidBody@2@AEBVPxVec3@2@1AEAV42@2@Z 0000000180035f9c     PhysX3ExtensionsCHECKED:ExtRigidBodyExt.obj
 0002:00004fd4       $unwind$?computeVelocityDeltaFromImpulse@PxRigidBodyExt@physx@@SAXAEBVPxRigidBody@2@AEBVPxTransform@2@AEBVPxVec3@2@2MMAEAV52@3@Z 0000000180035fd4     PhysX3ExtensionsCHECKED:ExtRigidBodyExt.obj
 0002:0000500c       $unwind$?computeLinearAngularImpulse@PxRigidBodyExt@physx@@SAXAEBVPxRigidBody@2@AEBVPxTransform@2@AEBVPxVec3@2@2MMAEAV52@3@Z 000000018003600c     PhysX3ExtensionsCHECKED:ExtRigidBodyExt.obj
 0002:00005048       $unwind$?translate@InertiaTensorComputer@Ext@physx@@QEAAXAEBVPxVec3@3@@Z 0000000180036048     PhysX3ExtensionsCHECKED:ExtRigidBodyExt.obj
 0002:00005050       $chain$5$?translate@InertiaTensorComputer@Ext@physx@@QEAAXAEBVPxVec3@3@@Z 0000000180036050     PhysX3ExtensionsCHECKED:ExtRigidBodyExt.obj
 0002:00005078       $chain$9$?translate@InertiaTensorComputer@Ext@physx@@QEAAXAEBVPxVec3@3@@Z 0000000180036078     PhysX3ExtensionsCHECKED:ExtRigidBodyExt.obj
 0002:00005098       $chain$10$?translate@InertiaTensorComputer@Ext@physx@@QEAAXAEBVPxVec3@3@@Z 0000000180036098     PhysX3ExtensionsCHECKED:ExtRigidBodyExt.obj
 0002:000050a8       $chain$11$?translate@InertiaTensorComputer@Ext@physx@@QEAAXAEBVPxVec3@3@@Z 00000001800360a8     PhysX3ExtensionsCHECKED:ExtRigidBodyExt.obj
 0002:000050b8       $unwind$?setCapsule@InertiaTensorComputer@Ext@physx@@QEAAXHMM@Z 00000001800360b8     PhysX3ExtensionsCHECKED:ExtRigidBodyExt.obj
 0002:00005120       $unwind$?rotate@InertiaTensorComputer@Ext@physx@@QEAAXAEBVPxMat33@3@@Z 0000000180036120     PhysX3ExtensionsCHECKED:ExtRigidBodyExt.obj
 0002:00005154       $unwind$?transform@InertiaTensorComputer@Ext@physx@@QEAAXAEBVPxTransform@3@@Z 0000000180036154     PhysX3ExtensionsCHECKED:ExtRigidBodyExt.obj
 0002:00005188       $unwind$?computeMassAndDiagInertia@@YA_NAEAVInertiaTensorComputer@Ext@physx@@AEAVPxVec3@3@AEAVPxQuat@3@AEAM1_NAEBVPxRigidBody@3@PEBD@Z 0000000180036188     PhysX3ExtensionsCHECKED:ExtRigidBodyExt.obj
 0002:000051b0       $chain$0$?computeMassAndDiagInertia@@YA_NAEAVInertiaTensorComputer@Ext@physx@@AEAVPxVec3@3@AEAVPxQuat@3@AEAM1_NAEBVPxRigidBody@3@PEBD@Z 00000001800361b0     PhysX3ExtensionsCHECKED:ExtRigidBodyExt.obj
 0002:000051c8       $chain$7$?computeMassAndDiagInertia@@YA_NAEAVInertiaTensorComputer@Ext@physx@@AEAVPxVec3@3@AEAVPxQuat@3@AEAM1_NAEBVPxRigidBody@3@PEBD@Z 00000001800361c8     PhysX3ExtensionsCHECKED:ExtRigidBodyExt.obj
 0002:000051f8       $chain$8$?computeMassAndDiagInertia@@YA_NAEAVInertiaTensorComputer@Ext@physx@@AEAVPxVec3@3@AEAVPxQuat@3@AEAM1_NAEBVPxRigidBody@3@PEBD@Z 00000001800361f8     PhysX3ExtensionsCHECKED:ExtRigidBodyExt.obj
 0002:0000520c       $chain$9$?computeMassAndDiagInertia@@YA_NAEAVInertiaTensorComputer@Ext@physx@@AEAVPxVec3@3@AEAVPxQuat@3@AEAM1_NAEBVPxRigidBody@3@PEBD@Z 000000018003620c     PhysX3ExtensionsCHECKED:ExtRigidBodyExt.obj
 0002:00005220       $unwind$?computeMassAndInertia@@YA_N_NAEAVPxRigidBody@physx@@PEBM2I0AEAVInertiaTensorComputer@Ext@2@@Z 0000000180036220     PhysX3ExtensionsCHECKED:ExtRigidBodyExt.obj
 0002:00005230       $chain$7$?computeMassAndInertia@@YA_N_NAEAVPxRigidBody@physx@@PEBM2I0AEAVInertiaTensorComputer@Ext@2@@Z 0000000180036230     PhysX3ExtensionsCHECKED:ExtRigidBodyExt.obj
 0002:00005264       $chain$15$?computeMassAndInertia@@YA_N_NAEAVPxRigidBody@physx@@PEBM2I0AEAVInertiaTensorComputer@Ext@2@@Z 0000000180036264     PhysX3ExtensionsCHECKED:ExtRigidBodyExt.obj
 0002:00005298       $chain$16$?computeMassAndInertia@@YA_N_NAEAVPxRigidBody@physx@@PEBM2I0AEAVInertiaTensorComputer@Ext@2@@Z 0000000180036298     PhysX3ExtensionsCHECKED:ExtRigidBodyExt.obj
 0002:000052ac       $unwind$?resize@?$Array@PEAVPxShape@physx@@V?$InlineAllocator@$0IA@VNamedAllocator@shdfnd@physx@@@shdfnd@2@@shdfnd@physx@@QEAAXIAEBQEAVPxShape@3@@Z 00000001800362ac     PhysX3ExtensionsCHECKED:ExtRigidBodyExt.obj
 0002:000052c4       $unwind$?allocate@?$Array@PEAVPxShape@physx@@V?$InlineAllocator@$0IA@VNamedAllocator@shdfnd@physx@@@shdfnd@2@@shdfnd@physx@@IEAAPEAPEAVPxShape@3@I@Z 00000001800362c4     PhysX3ExtensionsCHECKED:ExtRigidBodyExt.obj
 0002:000052cc       $unwind$?recreate@?$Array@PEAVPxShape@physx@@V?$InlineAllocator@$0IA@VNamedAllocator@shdfnd@physx@@@shdfnd@2@@shdfnd@physx@@IEAAXI@Z 00000001800362cc     PhysX3ExtensionsCHECKED:ExtRigidBodyExt.obj
 0002:000052e0       $unwind$?updateMassAndInertia@@YA_N_NAEAVPxRigidBody@physx@@PEBMIPEBVPxVec3@2@0@Z 00000001800362e0     PhysX3ExtensionsCHECKED:ExtRigidBodyExt.obj
 0002:000052fc       $unwind$?setMassAndUpdateInertia@@YA_N_NAEAVPxRigidBody@physx@@PEBMIPEBVPxVec3@2@0@Z 00000001800362fc     PhysX3ExtensionsCHECKED:ExtRigidBodyExt.obj
 0002:00005330       $unwind$?allocate@?$Array@VPxMassProperties@physx@@V?$InlineAllocator@$0DEA@VNamedAllocator@shdfnd@physx@@@shdfnd@2@@shdfnd@physx@@IEAAPEAVPxMassProperties@3@I@Z 0000000180036330     PhysX3ExtensionsCHECKED:ExtRigidBodyExt.obj
 0002:00005338       $unwind$?growAndPushBack@?$Array@VPxMassProperties@physx@@V?$InlineAllocator@$0DEA@VNamedAllocator@shdfnd@physx@@@shdfnd@2@@shdfnd@physx@@IEAAAEAVPxMassProperties@3@AEBV43@@Z 0000000180036338     PhysX3ExtensionsCHECKED:ExtRigidBodyExt.obj
 0002:00005350       $unwind$?recreate@?$Array@VPxMassProperties@physx@@V?$InlineAllocator@$0DEA@VNamedAllocator@shdfnd@physx@@@shdfnd@2@@shdfnd@physx@@IEAAXI@Z 0000000180036350     PhysX3ExtensionsCHECKED:ExtRigidBodyExt.obj
 0002:00005364       $unwind$?allocate@?$Array@VPxTransform@physx@@V?$InlineAllocator@$0BMA@VNamedAllocator@shdfnd@physx@@@shdfnd@2@@shdfnd@physx@@IEAAPEAVPxTransform@3@I@Z 0000000180036364     PhysX3ExtensionsCHECKED:ExtRigidBodyExt.obj
 0002:0000536c       $unwind$?growAndPushBack@?$Array@VPxTransform@physx@@V?$InlineAllocator@$0BMA@VNamedAllocator@shdfnd@physx@@@shdfnd@2@@shdfnd@physx@@IEAAAEAVPxTransform@3@AEBV43@@Z 000000018003636c     PhysX3ExtensionsCHECKED:ExtRigidBodyExt.obj
 0002:00005384       $unwind$?recreate@?$Array@VPxTransform@physx@@V?$InlineAllocator@$0BMA@VNamedAllocator@shdfnd@physx@@@shdfnd@2@@shdfnd@physx@@IEAAXI@Z 0000000180036384     PhysX3ExtensionsCHECKED:ExtRigidBodyExt.obj
 0002:00005398       $unwind$?addForceAtPosInternal@@YAXAEAVPxRigidBody@physx@@AEBVPxVec3@2@1W4Enum@PxForceMode@2@_N@Z 0000000180036398     PhysX3ExtensionsCHECKED:ExtRigidBodyExt.obj
 0002:000053b4       $chain$8$?addForceAtPosInternal@@YAXAEAVPxRigidBody@physx@@AEBVPxVec3@2@1W4Enum@PxForceMode@2@_N@Z 00000001800363b4     PhysX3ExtensionsCHECKED:ExtRigidBodyExt.obj
 0002:000053f0       $chain$9$?addForceAtPosInternal@@YAXAEAVPxRigidBody@physx@@AEBVPxVec3@2@1W4Enum@PxForceMode@2@_N@Z 00000001800363f0     PhysX3ExtensionsCHECKED:ExtRigidBodyExt.obj
 0002:00005404       $unwind$?getVelocityAtPosInternal@@YA?AVPxVec3@physx@@AEBVPxRigidBody@2@AEBV12@@Z 0000000180036404     PhysX3ExtensionsCHECKED:ExtRigidBodyExt.obj
 0002:00005428       $xdatasym                  0000000180036428     MSVCRT:chkstk.obj
 0002:00005430       $unwind$??_Gtype_info@@UEAAPEAXI@Z 0000000180036430     MSVCRT:std_type_info_static.obj
 0002:00005438       $unwind$?dllmain_crt_process_attach@@YAHQEAUHINSTANCE__@@QEAX@Z 0000000180036438     MSVCRT:dll_dllmain.obj
 0002:0000547c       $unwind$?fin$0@?0??dllmain_crt_process_attach@@YAHQEAUHINSTANCE__@@QEAX@Z@4HA 000000018003647c     MSVCRT:dll_dllmain.obj
 0002:00005484       $unwind$?dllmain_crt_process_detach@@YAH_N@Z 0000000180036484     MSVCRT:dll_dllmain.obj
 0002:000054c4       $unwind$?fin$0@?0??dllmain_crt_process_detach@@YAH_N@Z@4HA 00000001800364c4     MSVCRT:dll_dllmain.obj
 0002:000054cc       $unwind$?dllmain_crt_dispatch@@YAHQEAUHINSTANCE__@@KQEAX@Z 00000001800364cc     MSVCRT:dll_dllmain.obj
 0002:000054d4       $unwind$?dllmain_dispatch@@YAHQEAUHINSTANCE__@@KQEAX@Z 00000001800364d4     MSVCRT:dll_dllmain.obj
 0002:00005500       $unwind$?filt$0@?0??dllmain_dispatch@@YAHQEAUHINSTANCE__@@KQEAX@Z@4HA 0000000180036500     MSVCRT:dll_dllmain.obj
 0002:00005508       $unwind$_DllMainCRTStartup 0000000180036508     MSVCRT:dll_dllmain.obj
 0002:0000551c       $unwind$__security_init_cookie 000000018003651c     MSVCRT:gs_support.obj
 0002:0000552c       $unwind$__get_entropy      000000018003652c     MSVCRT:gs_support.obj
 0002:00005534       $unwind$DllMain            0000000180036534     MSVCRT:dll_dllmain_stub.obj
 0002:0000553c       $unwind$__scrt_initialize_default_local_stdio_options 000000018003653c     MSVCRT:default_local_stdio_options.obj
 0002:00005544       $unwind$atexit             0000000180036544     MSVCRT:utility.obj
 0002:0000554c       $unwind$_onexit            000000018003654c     MSVCRT:utility.obj
 0002:00005554       $unwind$__scrt_is_nonwritable_in_current_image 0000000180036554     MSVCRT:utility.obj
 0002:00005578       $unwind$__scrt_is_nonwritable_in_current_image$filt$0 0000000180036578     MSVCRT:utility.obj
 0002:00005580       $unwind$__scrt_acquire_startup_lock 0000000180036580     MSVCRT:utility.obj
 0002:00005588       $unwind$__scrt_release_startup_lock 0000000180036588     MSVCRT:utility.obj
 0002:00005590       $unwind$__scrt_initialize_crt 0000000180036590     MSVCRT:utility.obj
 0002:00005598       $unwind$__scrt_uninitialize_crt 0000000180036598     MSVCRT:utility.obj
 0002:000055a0       $unwind$__scrt_initialize_onexit_tables 00000001800365a0     MSVCRT:utility.obj
 0002:000055a8       $unwind$__scrt_dllmain_exception_filter 00000001800365a8     MSVCRT:utility.obj
 0002:000055c0       $unwind$__scrt_dllmain_before_initialize_c 00000001800365c0     MSVCRT:utility.obj
 0002:000055c8       $unwind$__scrt_dllmain_after_initialize_c 00000001800365c8     MSVCRT:utility.obj
 0002:000055d0       $unwind$__scrt_dllmain_uninitialize_c 00000001800365d0     MSVCRT:utility.obj
 0002:000055d8       $unwind$__scrt_dllmain_uninitialize_critical 00000001800365d8     MSVCRT:utility.obj
 0002:000055e0       $unwind$__scrt_dllmain_crt_thread_attach 00000001800365e0     MSVCRT:utility.obj
 0002:000055e8       $unwind$__scrt_dllmain_crt_thread_detach 00000001800365e8     MSVCRT:utility.obj
 0002:000055f0       $unwind$?configure_argv@__scrt_narrow_argv_policy@@SAHXZ 00000001800365f0     MSVCRT:utility.obj
 0002:000055f8       $unwind$__scrt_get_show_window_mode 00000001800365f8     MSVCRT:utility_desktop.obj
 0002:00005600       $unwind$__scrt_is_managed_app 0000000180036600     MSVCRT:utility_desktop.obj
 0002:00005608       $unwind$__scrt_fastfail    0000000180036608     MSVCRT:utility_desktop.obj
 0002:0000561c       $unwind$__scrt_unhandled_exception_filter 000000018003661c     MSVCRT:utility_desktop.obj
 0002:00005624       $unwind$_RTC_Initialize    0000000180036624     MSVCRT:initsect.obj
 0002:00005634       $unwind$_RTC_Terminate     0000000180036634     MSVCRT:initsect.obj
 0002:00005644       $unwind$__isa_available_init 0000000180036644     MSVCRT:cpu_disp.obj
 0002:00005658       $xdatasym                  0000000180036658     MSVCRT:guard_dispatch.obj
 0002:000058f0       .edata                     00000001800368f0     PhysX3CharacterKinematicCHECKED_x64.exp
 0002:00005918       rgpv                       0000000180036918     PhysX3CharacterKinematicCHECKED_x64.exp
 0002:00005990       rgszName                   0000000180036990     PhysX3CharacterKinematicCHECKED_x64.exp
 0002:00005a08       rgwOrd                     0000000180036a08     PhysX3CharacterKinematicCHECKED_x64.exp
 0002:00005a44       szName                     0000000180036a44     PhysX3CharacterKinematicCHECKED_x64.exp
 0002:00005a6c       $N00001                    0000000180036a6c     PhysX3CharacterKinematicCHECKED_x64.exp
 0002:00005a93       $N00002                    0000000180036a93     PhysX3CharacterKinematicCHECKED_x64.exp
 0002:00005ab9       $N00003                    0000000180036ab9     PhysX3CharacterKinematicCHECKED_x64.exp
 0002:00005ae6       $N00004                    0000000180036ae6     PhysX3CharacterKinematicCHECKED_x64.exp
 0002:00005b0c       $N00005                    0000000180036b0c     PhysX3CharacterKinematicCHECKED_x64.exp
 0002:00005b2b       $N00006                    0000000180036b2b     PhysX3CharacterKinematicCHECKED_x64.exp
 0002:00005b51       $N00007                    0000000180036b51     PhysX3CharacterKinematicCHECKED_x64.exp
 0002:00005b70       $N00008                    0000000180036b70     PhysX3CharacterKinematicCHECKED_x64.exp
 0002:00005ba4       $N00009                    0000000180036ba4     PhysX3CharacterKinematicCHECKED_x64.exp
 0002:00005bd6       $N00010                    0000000180036bd6     PhysX3CharacterKinematicCHECKED_x64.exp
 0002:00005c07       $N00011                    0000000180036c07     PhysX3CharacterKinematicCHECKED_x64.exp
 0002:00005c39       $N00012                    0000000180036c39     PhysX3CharacterKinematicCHECKED_x64.exp
 0002:00005c6c       $N00013                    0000000180036c6c     PhysX3CharacterKinematicCHECKED_x64.exp
 0002:00005c98       $N00014                    0000000180036c98     PhysX3CharacterKinematicCHECKED_x64.exp
 0002:00005cbb       $N00015                    0000000180036cbb     PhysX3CharacterKinematicCHECKED_x64.exp
 0002:00005cd7       $N00016                    0000000180036cd7     PhysX3CharacterKinematicCHECKED_x64.exp
 0002:00005cfb       $N00017                    0000000180036cfb     PhysX3CharacterKinematicCHECKED_x64.exp
 0002:00005d24       $N00018                    0000000180036d24     PhysX3CharacterKinematicCHECKED_x64.exp
 0002:00005d6c       $N00019                    0000000180036d6c     PhysX3CharacterKinematicCHECKED_x64.exp
 0002:00005dbc       $N00020                    0000000180036dbc     PhysX3CharacterKinematicCHECKED_x64.exp
 0002:00005e04       $N00021                    0000000180036e04     PhysX3CharacterKinematicCHECKED_x64.exp
 0002:00005e4a       $N00022                    0000000180036e4a     PhysX3CharacterKinematicCHECKED_x64.exp
 0002:00005e9a       $N00023                    0000000180036e9a     PhysX3CharacterKinematicCHECKED_x64.exp
 0002:00005f49       $N00024                    0000000180036f49     PhysX3CharacterKinematicCHECKED_x64.exp
 0002:00005fa7       $N00025                    0000000180036fa7     PhysX3CharacterKinematicCHECKED_x64.exp
 0002:00005fe3       $N00026                    0000000180036fe3     PhysX3CharacterKinematicCHECKED_x64.exp
 0002:0000605d       $N00027                    000000018003705d     PhysX3CharacterKinematicCHECKED_x64.exp
 0002:000060ba       $N00028                    00000001800370ba     PhysX3CharacterKinematicCHECKED_x64.exp
 0002:000060ff       $N00029                    00000001800370ff     PhysX3CharacterKinematicCHECKED_x64.exp
 0002:0000613c       $N00030                    000000018003713c     PhysX3CharacterKinematicCHECKED_x64.exp
 0003:00000000       ?gSweepMap@@3PAY05P6A_NPEBVSweepTest@Cct@physx@@PEBVSweptVolume@23@PEBUTouchedGeom@23@AEBUPxExtendedVec3@3@AEBVPxVec3@3@AEAUSweptContact@23@@ZA 0000000180038000     CctCharacterController.obj
 0003:00000470       ?maxV3Error@_VecMathTests@aos@shdfnd@physx@@3T__m128@@B 0000000180038470     CctCharacterControllerCallbacks.obj
 0003:00000480       ?minFError@_VecMathTests@aos@shdfnd@physx@@3T__m128@@B 0000000180038480     CctCharacterControllerCallbacks.obj
 0003:00000490       ?maxV4Error@_VecMathTests@aos@shdfnd@physx@@3T__m128@@B 0000000180038490     CctCharacterControllerCallbacks.obj
 0003:000004a0       ?minV4Error@_VecMathTests@aos@shdfnd@physx@@3T__m128@@B 00000001800384a0     CctCharacterControllerCallbacks.obj
 0003:000004b0       ?minV3Error@_VecMathTests@aos@shdfnd@physx@@3T__m128@@B 00000001800384b0     CctCharacterControllerCallbacks.obj
 0003:000004c0       ?maxFError@_VecMathTests@aos@shdfnd@physx@@3T__m128@@B 00000001800384c0     CctCharacterControllerCallbacks.obj
 0003:00000504       ?__proc_attached@@3HA      0000000180038504     MSVCRT:dll_dllmain.obj
 0003:00000538       ?is_initialized_as_dll@@3_NA 0000000180038538     MSVCRT:utility.obj
 0003:00000539       ?module_local_atexit_table_initialized@@3_NA 0000000180038539     MSVCRT:utility.obj
 0003:00000540       ?module_local_atexit_table@@3U_onexit_table_t@@A 0000000180038540     MSVCRT:utility.obj
 0003:00000558       ?module_local_at_quick_exit_table@@3U_onexit_table_t@@A 0000000180038558     MSVCRT:utility.obj
 0004:00000000       $pdata$??_H@YAXPEAX_K1P6APEAX0@Z@Z 0000000180039000     CctBoxController.obj
 0004:0000000c       $pdata$??_I@YAXPEAX_K1P6AX0@Z@Z 000000018003900c     CctBoxController.obj
 0004:00000018       $pdata$??_GPxController@physx@@MEAAPEAXI@Z 0000000180039018     CctBoxController.obj
 0004:00000024       $pdata$??_GPxControllerManager@physx@@MEAAPEAXI@Z 0000000180039024     CctBoxController.obj
 0004:00000030       $pdata$??_EPxControllerManager@physx@@MEAAPEAXI@Z 0000000180039030     CctBoxController.obj
 0004:0000003c       $pdata$0$??_EPxControllerManager@physx@@MEAAPEAXI@Z 000000018003903c     CctBoxController.obj
 0004:00000048       $pdata$1$??_EPxControllerManager@physx@@MEAAPEAXI@Z 0000000180039048     CctBoxController.obj
 0004:00000054       $pdata$??_GPxFoundation@physx@@MEAAPEAXI@Z 0000000180039054     CctBoxController.obj
 0004:00000060       $pdata$??_EPxFoundation@physx@@MEAAPEAXI@Z 0000000180039060     CctBoxController.obj
 0004:0000006c       $pdata$0$??_EPxFoundation@physx@@MEAAPEAXI@Z 000000018003906c     CctBoxController.obj
 0004:00000078       $pdata$1$??_EPxFoundation@physx@@MEAAPEAXI@Z 0000000180039078     CctBoxController.obj
 0004:00000084       $pdata$??_GPxBoxController@physx@@MEAAPEAXI@Z 0000000180039084     CctBoxController.obj
 0004:00000090       $pdata$??0BoxController@Cct@physx@@QEAA@AEBVPxControllerDesc@2@AEAVPxPhysics@2@PEAVPxScene@2@@Z 0000000180039090     CctBoxController.obj
 0004:0000009c       $pdata$??1BoxController@Cct@physx@@UEAA@XZ 000000018003909c     CctBoxController.obj
 0004:000000a8       $pdata$?getWorldBox@BoxController@Cct@physx@@UEBA_NAEAUPxExtendedBounds3@3@@Z 00000001800390a8     CctBoxController.obj
 0004:000000b4       $pdata$?setFootPosition@BoxController@Cct@physx@@UEAA_NAEBUPxExtendedVec3@3@@Z 00000001800390b4     CctBoxController.obj
 0004:000000c0       $pdata$?invalidateCache@BoxController@Cct@physx@@UEAAXXZ 00000001800390c0     CctBoxController.obj
 0004:000000cc       $pdata$?resize@BoxController@Cct@physx@@UEAAXM@Z 00000001800390cc     CctBoxController.obj
 0004:000000d8       $pdata$?updateKinematicProxy@BoxController@Cct@physx@@QEAA_NXZ 00000001800390d8     CctBoxController.obj
 0004:000000e4       $pdata$0$?updateKinematicProxy@BoxController@Cct@physx@@QEAA_NXZ 00000001800390e4     CctBoxController.obj
 0004:000000f0       $pdata$1$?updateKinematicProxy@BoxController@Cct@physx@@QEAA_NXZ 00000001800390f0     CctBoxController.obj
 0004:000000fc       $pdata$?getOBB@BoxController@Cct@physx@@QEBAXAEAVPxExtendedBox@3@@Z 00000001800390fc     CctBoxController.obj
 0004:00000108       $pdata$??_GBoxController@Cct@physx@@UEAAPEAXI@Z 0000000180039108     CctBoxController.obj
 0004:00000114       $pdata$??_GPxCapsuleController@physx@@MEAAPEAXI@Z 0000000180039114     CctCapsuleController.obj
 0004:00000120       $pdata$??0CapsuleController@Cct@physx@@QEAA@AEBVPxControllerDesc@2@AEAVPxPhysics@2@PEAVPxScene@2@@Z 0000000180039120     CctCapsuleController.obj
 0004:0000012c       $pdata$??1CapsuleController@Cct@physx@@UEAA@XZ 000000018003912c     CctCapsuleController.obj
 0004:00000138       $pdata$?setFootPosition@CapsuleController@Cct@physx@@UEAA_NAEBUPxExtendedVec3@3@@Z 0000000180039138     CctCapsuleController.obj
 0004:00000144       $pdata$?invalidateCache@CapsuleController@Cct@physx@@UEAAXXZ 0000000180039144     CctCapsuleController.obj
 0004:00000150       $pdata$?resize@CapsuleController@Cct@physx@@UEAAXM@Z 0000000180039150     CctCapsuleController.obj
 0004:0000015c       $pdata$?setRadius@CapsuleController@Cct@physx@@UEAA_NM@Z 000000018003915c     CctCapsuleController.obj
 0004:00000168       $pdata$0$?setRadius@CapsuleController@Cct@physx@@UEAA_NM@Z 0000000180039168     CctCapsuleController.obj
 0004:00000174       $pdata$1$?setRadius@CapsuleController@Cct@physx@@UEAA_NM@Z 0000000180039174     CctCapsuleController.obj
 0004:00000180       $pdata$?setHeight@CapsuleController@Cct@physx@@UEAA_NM@Z 0000000180039180     CctCapsuleController.obj
 0004:0000018c       $pdata$0$?setHeight@CapsuleController@Cct@physx@@UEAA_NM@Z 000000018003918c     CctCapsuleController.obj
 0004:00000198       $pdata$1$?setHeight@CapsuleController@Cct@physx@@UEAA_NM@Z 0000000180039198     CctCapsuleController.obj
 0004:000001a4       $pdata$?getCapsule@CapsuleController@Cct@physx@@QEBAXAEAUPxExtendedCapsule@3@@Z 00000001800391a4     CctCapsuleController.obj
 0004:000001b0       $pdata$??_GCapsuleController@Cct@physx@@UEAAPEAXI@Z 00000001800391b0     CctCapsuleController.obj
 0004:000001bc       $pdata$??DPxQuat@physx@@QEBA?AV01@AEBV01@@Z 00000001800391bc     CctCharacterController.obj
 0004:000001c8       $pdata$??_G?$PxHitCallback@UPxRaycastHit@physx@@@physx@@UEAAPEAXI@Z 00000001800391c8     CctCharacterController.obj
 0004:000001d4       $pdata$??_G?$PxHitBuffer@UPxRaycastHit@physx@@@physx@@UEAAPEAXI@Z 00000001800391d4     CctCharacterController.obj
 0004:000001e0       $pdata$??_GPxQueryFilterCallback@physx@@UEAAPEAXI@Z 00000001800391e0     CctCharacterController.obj
 0004:000001ec       $pdata$?getShapeGlobalPose@physx@@YA?AVPxTransform@1@AEBVPxShape@1@AEBVPxRigidActor@1@@Z 00000001800391ec     CctCharacterController.obj
 0004:000001f8       $pdata$?growAndPushBack@?$Array@PEBXVNamedAllocator@shdfnd@physx@@@shdfnd@physx@@IEAAAEAPEBXAEBQEBX@Z 00000001800391f8     CctCharacterController.obj
 0004:00000204       $pdata$?growAndPushBack@?$Array@VPxExtendedBox@physx@@VNamedAllocator@shdfnd@2@@shdfnd@physx@@IEAAAEAVPxExtendedBox@3@AEBV43@@Z 0000000180039204     CctCharacterController.obj
 0004:00000210       $pdata$?growAndPushBack@?$Array@UPxExtendedCapsule@physx@@VNamedAllocator@shdfnd@2@@shdfnd@physx@@IEAAAEAUPxExtendedCapsule@3@AEBU43@@Z 0000000180039210     CctCharacterController.obj
 0004:0000021c       $pdata$??0SweepTest@Cct@physx@@QEAA@_N@Z 000000018003921c     CctCharacterController.obj
 0004:00000228       $pdata$??1SweepTest@Cct@physx@@QEAA@XZ 0000000180039228     CctCharacterController.obj
 0004:00000234       $pdata$?moveCharacter@SweepTest@Cct@physx@@QEAA?AV?$PxFlags@W4Enum@PxControllerCollisionFlag@physx@@E@3@PEBUInternalCBData_FindTouchedGeom@23@PEAUInternalCBData_OnHit@23@AEAVSweptVolume@23@AEBVPxVec3@3@AEBUUserObstacles@23@MAEBVPxControllerFilters@3@_N6AEAPEBVPxRigidActor@3@AEAPEBVPxShape@3@_K@Z 0000000180039234     CctCharacterController.obj
 0004:00000240       $pdata$2$?moveCharacter@SweepTest@Cct@physx@@QEAA?AV?$PxFlags@W4Enum@PxControllerCollisionFlag@physx@@E@3@PEBUInternalCBData_FindTouchedGeom@23@PEAUInternalCBData_OnHit@23@AEAVSweptVolume@23@AEBVPxVec3@3@AEBUUserObstacles@23@MAEBVPxControllerFilters@3@_N6AEAPEBVPxRigidActor@3@AEAPEBVPxShape@3@_K@Z 0000000180039240     CctCharacterController.obj
 0004:0000024c       $pdata$5$?moveCharacter@SweepTest@Cct@physx@@QEAA?AV?$PxFlags@W4Enum@PxControllerCollisionFlag@physx@@E@3@PEBUInternalCBData_FindTouchedGeom@23@PEAUInternalCBData_OnHit@23@AEAVSweptVolume@23@AEBVPxVec3@3@AEBUUserObstacles@23@MAEBVPxControllerFilters@3@_N6AEAPEBVPxRigidActor@3@AEAPEBVPxShape@3@_K@Z 000000018003924c     CctCharacterController.obj
 0004:00000258       $pdata$6$?moveCharacter@SweepTest@Cct@physx@@QEAA?AV?$PxFlags@W4Enum@PxControllerCollisionFlag@physx@@E@3@PEBUInternalCBData_FindTouchedGeom@23@PEAUInternalCBData_OnHit@23@AEAVSweptVolume@23@AEBVPxVec3@3@AEBUUserObstacles@23@MAEBVPxControllerFilters@3@_N6AEAPEBVPxRigidActor@3@AEAPEBVPxShape@3@_K@Z 0000000180039258     CctCharacterController.obj
 0004:00000264       $pdata$7$?moveCharacter@SweepTest@Cct@physx@@QEAA?AV?$PxFlags@W4Enum@PxControllerCollisionFlag@physx@@E@3@PEBUInternalCBData_FindTouchedGeom@23@PEAUInternalCBData_OnHit@23@AEAVSweptVolume@23@AEBVPxVec3@3@AEBUUserObstacles@23@MAEBVPxControllerFilters@3@_N6AEAPEBVPxRigidActor@3@AEAPEBVPxShape@3@_K@Z 0000000180039264     CctCharacterController.obj
 0004:00000270       $pdata$8$?moveCharacter@SweepTest@Cct@physx@@QEAA?AV?$PxFlags@W4Enum@PxControllerCollisionFlag@physx@@E@3@PEBUInternalCBData_FindTouchedGeom@23@PEAUInternalCBData_OnHit@23@AEAVSweptVolume@23@AEBVPxVec3@3@AEBUUserObstacles@23@MAEBVPxControllerFilters@3@_N6AEAPEBVPxRigidActor@3@AEAPEBVPxShape@3@_K@Z 0000000180039270     CctCharacterController.obj
 0004:0000027c       $pdata$?doSweepTest@SweepTest@Cct@physx@@QEAA_NPEBUInternalCBData_FindTouchedGeom@23@PEAUInternalCBData_OnHit@23@AEBUUserObstacles@23@AEAVSweptVolume@23@AEBVPxVec3@3@4IPEAIMAEBVPxControllerFilters@3@W4SweepPass@23@AEAPEBVPxRigidActor@3@AEAPEBVPxShape@3@_K@Z 000000018003927c     CctCharacterController.obj
 0004:00000288       $pdata$9$?doSweepTest@SweepTest@Cct@physx@@QEAA_NPEBUInternalCBData_FindTouchedGeom@23@PEAUInternalCBData_OnHit@23@AEBUUserObstacles@23@AEAVSweptVolume@23@AEBVPxVec3@3@4IPEAIMAEBVPxControllerFilters@3@W4SweepPass@23@AEAPEBVPxRigidActor@3@AEAPEBVPxShape@3@_K@Z 0000000180039288     CctCharacterController.obj
 0004:00000294       $pdata$11$?doSweepTest@SweepTest@Cct@physx@@QEAA_NPEBUInternalCBData_FindTouchedGeom@23@PEAUInternalCBData_OnHit@23@AEBUUserObstacles@23@AEAVSweptVolume@23@AEBVPxVec3@3@4IPEAIMAEBVPxControllerFilters@3@W4SweepPass@23@AEAPEBVPxRigidActor@3@AEAPEBVPxShape@3@_K@Z 0000000180039294     CctCharacterController.obj
 0004:000002a0       $pdata$12$?doSweepTest@SweepTest@Cct@physx@@QEAA_NPEBUInternalCBData_FindTouchedGeom@23@PEAUInternalCBData_OnHit@23@AEBUUserObstacles@23@AEAVSweptVolume@23@AEBVPxVec3@3@4IPEAIMAEBVPxControllerFilters@3@W4SweepPass@23@AEAPEBVPxRigidActor@3@AEAPEBVPxShape@3@_K@Z 00000001800392a0     CctCharacterController.obj
 0004:000002ac       $pdata$13$?doSweepTest@SweepTest@Cct@physx@@QEAA_NPEBUInternalCBData_FindTouchedGeom@23@PEAUInternalCBData_OnHit@23@AEBUUserObstacles@23@AEAVSweptVolume@23@AEBVPxVec3@3@4IPEAIMAEBVPxControllerFilters@3@W4SweepPass@23@AEAPEBVPxRigidActor@3@AEAPEBVPxShape@3@_K@Z 00000001800392ac     CctCharacterController.obj
 0004:000002b8       $pdata$?findTouchedObstacles@SweepTest@Cct@physx@@QEAAXAEBUUserObstacles@23@AEBUPxExtendedBounds3@3@@Z 00000001800392b8     CctCharacterController.obj
 0004:000002c4       $pdata$2$?findTouchedObstacles@SweepTest@Cct@physx@@QEAAXAEBUUserObstacles@23@AEBUPxExtendedBounds3@3@@Z 00000001800392c4     CctCharacterController.obj
 0004:000002d0       $pdata$3$?findTouchedObstacles@SweepTest@Cct@physx@@QEAAXAEBUUserObstacles@23@AEBUPxExtendedBounds3@3@@Z 00000001800392d0     CctCharacterController.obj
 0004:000002dc       $pdata$4$?findTouchedObstacles@SweepTest@Cct@physx@@QEAAXAEBUUserObstacles@23@AEBUPxExtendedBounds3@3@@Z 00000001800392dc     CctCharacterController.obj
 0004:000002e8       $pdata$5$?findTouchedObstacles@SweepTest@Cct@physx@@QEAAXAEBUUserObstacles@23@AEBUPxExtendedBounds3@3@@Z 00000001800392e8     CctCharacterController.obj
 0004:000002f4       $pdata$?voidTestCache@SweepTest@Cct@physx@@QEAAXXZ 00000001800392f4     CctCharacterController.obj
 0004:00000300       $pdata$?onRelease@SweepTest@Cct@physx@@QEAAXAEBVPxBase@3@@Z 0000000180039300     CctCharacterController.obj
 0004:0000030c       $pdata$?updateCachedShapesRegistration@SweepTest@Cct@physx@@QEAAXI_N@Z 000000018003930c     CctCharacterController.obj
 0004:00000318       $pdata$1$?updateCachedShapesRegistration@SweepTest@Cct@physx@@QEAAXI_N@Z 0000000180039318     CctCharacterController.obj
 0004:00000324       $pdata$2$?updateCachedShapesRegistration@SweepTest@Cct@physx@@QEAAXI_N@Z 0000000180039324     CctCharacterController.obj
 0004:00000330       $pdata$3$?updateCachedShapesRegistration@SweepTest@Cct@physx@@QEAAXI_N@Z 0000000180039330     CctCharacterController.obj
 0004:0000033c       $pdata$4$?updateCachedShapesRegistration@SweepTest@Cct@physx@@QEAAXI_N@Z 000000018003933c     CctCharacterController.obj
 0004:00000348       $pdata$?onObstacleUpdated@SweepTest@Cct@physx@@QEAAXIPEBVPxObstacleContext@3@AEBVPxVec3@3@1M@Z 0000000180039348     CctCharacterController.obj
 0004:00000354       $pdata$?onObstacleAdded@SweepTest@Cct@physx@@QEAAXIPEBVPxObstacleContext@3@AEBVPxVec3@3@1M@Z 0000000180039354     CctCharacterController.obj
 0004:00000360       $pdata$0$?onObstacleAdded@SweepTest@Cct@physx@@QEAAXIPEBVPxObstacleContext@3@AEBVPxVec3@3@1M@Z 0000000180039360     CctCharacterController.obj
 0004:0000036c       $pdata$3$?onObstacleAdded@SweepTest@Cct@physx@@QEAAXIPEBVPxObstacleContext@3@AEBVPxVec3@3@1M@Z 000000018003936c     CctCharacterController.obj
 0004:00000378       $pdata$4$?onObstacleAdded@SweepTest@Cct@physx@@QEAAXIPEBVPxObstacleContext@3@AEBVPxVec3@3@1M@Z 0000000180039378     CctCharacterController.obj
 0004:00000384       $pdata$5$?onObstacleAdded@SweepTest@Cct@physx@@QEAAXIPEBVPxObstacleContext@3@AEBVPxVec3@3@1M@Z 0000000180039384     CctCharacterController.obj
 0004:00000390       $pdata$?updateTouchedGeoms@SweepTest@Cct@physx@@AEAAXPEBUInternalCBData_FindTouchedGeom@23@AEBUUserObstacles@23@AEBUPxExtendedBounds3@3@AEBVPxControllerFilters@3@AEBVPxVec3@3@@Z 0000000180039390     CctCharacterController.obj
 0004:0000039c       $pdata$2$?updateTouchedGeoms@SweepTest@Cct@physx@@AEAAXPEBUInternalCBData_FindTouchedGeom@23@AEBUUserObstacles@23@AEBUPxExtendedBounds3@3@AEBVPxControllerFilters@3@AEBVPxVec3@3@@Z 000000018003939c     CctCharacterController.obj
 0004:000003a8       $pdata$5$?updateTouchedGeoms@SweepTest@Cct@physx@@AEAAXPEBUInternalCBData_FindTouchedGeom@23@AEBUUserObstacles@23@AEBUPxExtendedBounds3@3@AEBVPxControllerFilters@3@AEBVPxVec3@3@@Z 00000001800393a8     CctCharacterController.obj
 0004:000003b4       $pdata$9$?updateTouchedGeoms@SweepTest@Cct@physx@@AEAAXPEBUInternalCBData_FindTouchedGeom@23@AEBUUserObstacles@23@AEBUPxExtendedBounds3@3@AEBVPxControllerFilters@3@AEBVPxVec3@3@@Z 00000001800393b4     CctCharacterController.obj
 0004:000003c0       $pdata$10$?updateTouchedGeoms@SweepTest@Cct@physx@@AEAAXPEBUInternalCBData_FindTouchedGeom@23@AEBUUserObstacles@23@AEBUPxExtendedBounds3@3@AEBVPxControllerFilters@3@AEBVPxVec3@3@@Z 00000001800393c0     CctCharacterController.obj
 0004:000003cc       $pdata$11$?updateTouchedGeoms@SweepTest@Cct@physx@@AEAAXPEBUInternalCBData_FindTouchedGeom@23@AEBUUserObstacles@23@AEBUPxExtendedBounds3@3@AEBVPxControllerFilters@3@AEBVPxVec3@3@@Z 00000001800393cc     CctCharacterController.obj
 0004:000003d8       $pdata$12$?updateTouchedGeoms@SweepTest@Cct@physx@@AEAAXPEBUInternalCBData_FindTouchedGeom@23@AEBUUserObstacles@23@AEBUPxExtendedBounds3@3@AEBVPxControllerFilters@3@AEBVPxVec3@3@@Z 00000001800393d8     CctCharacterController.obj
 0004:000003e4       $pdata$13$?updateTouchedGeoms@SweepTest@Cct@physx@@AEAAXPEBUInternalCBData_FindTouchedGeom@23@AEBUUserObstacles@23@AEBUPxExtendedBounds3@3@AEBVPxControllerFilters@3@AEBVPxVec3@3@@Z 00000001800393e4     CctCharacterController.obj
 0004:000003f0       $pdata$14$?updateTouchedGeoms@SweepTest@Cct@physx@@AEAAXPEBUInternalCBData_FindTouchedGeom@23@AEBUUserObstacles@23@AEBUPxExtendedBounds3@3@AEBVPxControllerFilters@3@AEBVPxVec3@3@@Z 00000001800393f0     CctCharacterController.obj
 0004:000003fc       $pdata$?findTouchedObject@Controller@Cct@physx@@IEAAXAEBVPxControllerFilters@3@PEBVPxObstacleContext@3@AEBVPxVec3@3@@Z 00000001800393fc     CctCharacterController.obj
 0004:00000408       $pdata$2$?findTouchedObject@Controller@Cct@physx@@IEAAXAEBVPxControllerFilters@3@PEBVPxObstacleContext@3@AEBVPxVec3@3@@Z 0000000180039408     CctCharacterController.obj
 0004:00000414       $pdata$10$?findTouchedObject@Controller@Cct@physx@@IEAAXAEBVPxControllerFilters@3@PEBVPxObstacleContext@3@AEBVPxVec3@3@@Z 0000000180039414     CctCharacterController.obj
 0004:00000420       $pdata$11$?findTouchedObject@Controller@Cct@physx@@IEAAXAEBVPxControllerFilters@3@PEBVPxObstacleContext@3@AEBVPxVec3@3@@Z 0000000180039420     CctCharacterController.obj
 0004:0000042c       $pdata$12$?findTouchedObject@Controller@Cct@physx@@IEAAXAEBVPxControllerFilters@3@PEBVPxObstacleContext@3@AEBVPxVec3@3@@Z 000000018003942c     CctCharacterController.obj
 0004:00000438       $pdata$?rideOnTouchedObject@Controller@Cct@physx@@IEAA_NAEAVSweptVolume@23@AEBVPxVec3@3@AEAV53@PEBVPxObstacleContext@3@@Z 0000000180039438     CctCharacterController.obj
 0004:00000444       $pdata$0$?rideOnTouchedObject@Controller@Cct@physx@@IEAA_NAEAVSweptVolume@23@AEBVPxVec3@3@AEAV53@PEBVPxObstacleContext@3@@Z 0000000180039444     CctCharacterController.obj
 0004:00000450       $pdata$1$?rideOnTouchedObject@Controller@Cct@physx@@IEAA_NAEAVSweptVolume@23@AEBVPxVec3@3@AEAV53@PEBVPxObstacleContext@3@@Z 0000000180039450     CctCharacterController.obj
 0004:0000045c       $pdata$?move@Controller@Cct@physx@@IEAA?AV?$PxFlags@W4Enum@PxControllerCollisionFlag@physx@@E@3@AEAVSweptVolume@23@AEBVPxVec3@3@MMAEBVPxControllerFilters@3@PEBVPxObstacleContext@3@_N@Z 000000018003945c     CctCharacterController.obj
 0004:00000468       $pdata$1$?move@Controller@Cct@physx@@IEAA?AV?$PxFlags@W4Enum@PxControllerCollisionFlag@physx@@E@3@AEAVSweptVolume@23@AEBVPxVec3@3@MMAEBVPxControllerFilters@3@PEBVPxObstacleContext@3@_N@Z 0000000180039468     CctCharacterController.obj
 0004:00000474       $pdata$8$?move@Controller@Cct@physx@@IEAA?AV?$PxFlags@W4Enum@PxControllerCollisionFlag@physx@@E@3@AEAVSweptVolume@23@AEBVPxVec3@3@MMAEBVPxControllerFilters@3@PEBVPxObstacleContext@3@_N@Z 0000000180039474     CctCharacterController.obj
 0004:00000480       $pdata$9$?move@Controller@Cct@physx@@IEAA?AV?$PxFlags@W4Enum@PxControllerCollisionFlag@physx@@E@3@AEAVSweptVolume@23@AEBVPxVec3@3@MMAEBVPxControllerFilters@3@PEBVPxObstacleContext@3@_N@Z 0000000180039480     CctCharacterController.obj
 0004:0000048c       $pdata$14$?move@Controller@Cct@physx@@IEAA?AV?$PxFlags@W4Enum@PxControllerCollisionFlag@physx@@E@3@AEAVSweptVolume@23@AEBVPxVec3@3@MMAEBVPxControllerFilters@3@PEBVPxObstacleContext@3@_N@Z 000000018003948c     CctCharacterController.obj
 0004:00000498       $pdata$15$?move@Controller@Cct@physx@@IEAA?AV?$PxFlags@W4Enum@PxControllerCollisionFlag@physx@@E@3@AEAVSweptVolume@23@AEBVPxVec3@3@MMAEBVPxControllerFilters@3@PEBVPxObstacleContext@3@_N@Z 0000000180039498     CctCharacterController.obj
 0004:000004a4       $pdata$16$?move@Controller@Cct@physx@@IEAA?AV?$PxFlags@W4Enum@PxControllerCollisionFlag@physx@@E@3@AEAVSweptVolume@23@AEBVPxVec3@3@MMAEBVPxControllerFilters@3@PEBVPxObstacleContext@3@_N@Z 00000001800394a4     CctCharacterController.obj
 0004:000004b0       $pdata$17$?move@Controller@Cct@physx@@IEAA?AV?$PxFlags@W4Enum@PxControllerCollisionFlag@physx@@E@3@AEAVSweptVolume@23@AEBVPxVec3@3@MMAEBVPxControllerFilters@3@PEBVPxObstacleContext@3@_N@Z 00000001800394b0     CctCharacterController.obj
 0004:000004bc       $pdata$18$?move@Controller@Cct@physx@@IEAA?AV?$PxFlags@W4Enum@PxControllerCollisionFlag@physx@@E@3@AEAVSweptVolume@23@AEBVPxVec3@3@MMAEBVPxControllerFilters@3@PEBVPxObstacleContext@3@_N@Z 00000001800394bc     CctCharacterController.obj
 0004:000004c8       $pdata$19$?move@Controller@Cct@physx@@IEAA?AV?$PxFlags@W4Enum@PxControllerCollisionFlag@physx@@E@3@AEAVSweptVolume@23@AEBVPxVec3@3@MMAEBVPxControllerFilters@3@PEBVPxObstacleContext@3@_N@Z 00000001800394c8     CctCharacterController.obj
 0004:000004d4       $pdata$?filterTouchedShape@Controller@Cct@physx@@IEAA_NAEBVPxControllerFilters@3@@Z 00000001800394d4     CctCharacterController.obj
 0004:000004e0       $pdata$?SweepBoxUserBox@@YA_NPEBVSweepTest@Cct@physx@@PEBVSweptVolume@23@PEBUTouchedGeom@23@AEBUPxExtendedVec3@3@AEBVPxVec3@3@AEAUSweptContact@23@@Z 00000001800394e0     CctCharacterController.obj
 0004:000004ec       $pdata$?SweepBoxUserCapsule@@YA_NPEBVSweepTest@Cct@physx@@PEBVSweptVolume@23@PEBUTouchedGeom@23@AEBUPxExtendedVec3@3@AEBVPxVec3@3@AEAUSweptContact@23@@Z 00000001800394ec     CctCharacterController.obj
 0004:000004f8       $pdata$?SweepBoxMesh@@YA_NPEBVSweepTest@Cct@physx@@PEBVSweptVolume@23@PEBUTouchedGeom@23@AEBUPxExtendedVec3@3@AEBVPxVec3@3@AEAUSweptContact@23@@Z 00000001800394f8     CctCharacterController.obj
 0004:00000504       $pdata$?SweepCapsuleMesh@@YA_NPEBVSweepTest@Cct@physx@@PEBVSweptVolume@23@PEBUTouchedGeom@23@AEBUPxExtendedVec3@3@AEBVPxVec3@3@AEAUSweptContact@23@@Z 0000000180039504     CctCharacterController.obj
 0004:00000510       $pdata$?SweepBoxBox@@YA_NPEBVSweepTest@Cct@physx@@PEBVSweptVolume@23@PEBUTouchedGeom@23@AEBUPxExtendedVec3@3@AEBVPxVec3@3@AEAUSweptContact@23@@Z 0000000180039510     CctCharacterController.obj
 0004:0000051c       $pdata$?SweepBoxSphere@@YA_NPEBVSweepTest@Cct@physx@@PEBVSweptVolume@23@PEBUTouchedGeom@23@AEBUPxExtendedVec3@3@AEBVPxVec3@3@AEAUSweptContact@23@@Z 000000018003951c     CctCharacterController.obj
 0004:00000528       $pdata$?SweepBoxCapsule@@YA_NPEBVSweepTest@Cct@physx@@PEBVSweptVolume@23@PEBUTouchedGeom@23@AEBUPxExtendedVec3@3@AEBVPxVec3@3@AEAUSweptContact@23@@Z 0000000180039528     CctCharacterController.obj
 0004:00000534       $pdata$?SweepCapsuleBox@@YA_NPEBVSweepTest@Cct@physx@@PEBVSweptVolume@23@PEBUTouchedGeom@23@AEBUPxExtendedVec3@3@AEBVPxVec3@3@AEAUSweptContact@23@@Z 0000000180039534     CctCharacterController.obj
 0004:00000540       $pdata$?SweepCapsuleSphere@@YA_NPEBVSweepTest@Cct@physx@@PEBVSweptVolume@23@PEBUTouchedGeom@23@AEBUPxExtendedVec3@3@AEBVPxVec3@3@AEAUSweptContact@23@@Z 0000000180039540     CctCharacterController.obj
 0004:0000054c       $pdata$?SweepCapsuleCapsule@@YA_NPEBVSweepTest@Cct@physx@@PEBVSweptVolume@23@PEBUTouchedGeom@23@AEBUPxExtendedVec3@3@AEBVPxVec3@3@AEAUSweptContact@23@@Z 000000018003954c     CctCharacterController.obj
 0004:00000558       $pdata$?SweepCapsuleUserCapsule@@YA_NPEBVSweepTest@Cct@physx@@PEBVSweptVolume@23@PEBUTouchedGeom@23@AEBUPxExtendedVec3@3@AEBVPxVec3@3@AEAUSweptContact@23@@Z 0000000180039558     CctCharacterController.obj
 0004:00000564       $pdata$?SweepCapsuleUserBox@@YA_NPEBVSweepTest@Cct@physx@@PEBVSweptVolume@23@PEBUTouchedGeom@23@AEBUPxExtendedVec3@3@AEBVPxVec3@3@AEAUSweptContact@23@@Z 0000000180039564     CctCharacterController.obj
 0004:00000570       $pdata$?move@BoxController@Cct@physx@@UEAA?AV?$PxFlags@W4Enum@PxControllerCollisionFlag@physx@@E@3@AEBVPxVec3@3@MMAEBVPxControllerFilters@3@PEBVPxObstacleContext@3@@Z 0000000180039570     CctCharacterController.obj
 0004:0000057c       $pdata$1$?move@BoxController@Cct@physx@@UEAA?AV?$PxFlags@W4Enum@PxControllerCollisionFlag@physx@@E@3@AEBVPxVec3@3@MMAEBVPxControllerFilters@3@PEBVPxObstacleContext@3@@Z 000000018003957c     CctCharacterController.obj
 0004:00000588       $pdata$2$?move@BoxController@Cct@physx@@UEAA?AV?$PxFlags@W4Enum@PxControllerCollisionFlag@physx@@E@3@AEBVPxVec3@3@MMAEBVPxControllerFilters@3@PEBVPxObstacleContext@3@@Z 0000000180039588     CctCharacterController.obj
 0004:00000594       $pdata$?move@CapsuleController@Cct@physx@@UEAA?AV?$PxFlags@W4Enum@PxControllerCollisionFlag@physx@@E@3@AEBVPxVec3@3@MMAEBVPxControllerFilters@3@PEBVPxObstacleContext@3@@Z 0000000180039594     CctCharacterController.obj
 0004:000005a0       $pdata$1$?move@CapsuleController@Cct@physx@@UEAA?AV?$PxFlags@W4Enum@PxControllerCollisionFlag@physx@@E@3@AEBVPxVec3@3@MMAEBVPxControllerFilters@3@PEBVPxObstacleContext@3@@Z 00000001800395a0     CctCharacterController.obj
 0004:000005ac       $pdata$2$?move@CapsuleController@Cct@physx@@UEAA?AV?$PxFlags@W4Enum@PxControllerCollisionFlag@physx@@E@3@AEBVPxVec3@3@MMAEBVPxControllerFilters@3@PEBVPxObstacleContext@3@@Z 00000001800395ac     CctCharacterController.obj
 0004:000005b8       $pdata$?recreate@?$Array@IVNamedAllocator@shdfnd@physx@@@shdfnd@physx@@IEAAXI@Z 00000001800395b8     CctCharacterController.obj
 0004:000005c4       $pdata$0$?recreate@?$Array@IVNamedAllocator@shdfnd@physx@@@shdfnd@physx@@IEAAXI@Z 00000001800395c4     CctCharacterController.obj
 0004:000005d0       $pdata$1$?recreate@?$Array@IVNamedAllocator@shdfnd@physx@@@shdfnd@physx@@IEAAXI@Z 00000001800395d0     CctCharacterController.obj
 0004:000005dc       $pdata$?worldToLocal@@YA?AVPxVec3@physx@@AEBVPxObstacle@2@AEBUPxExtendedVec3@2@@Z 00000001800395dc     CctCharacterController.obj
 0004:000005e8       $pdata$?collisionResponse@@YAXAEAUPxExtendedVec3@physx@@AEBU12@AEBVPxVec3@2@2MM_N@Z 00000001800395e8     CctCharacterController.obj
 0004:000005f4       $pdata$2$?collisionResponse@@YAXAEAUPxExtendedVec3@physx@@AEBU12@AEBVPxVec3@2@2MM_N@Z 00000001800395f4     CctCharacterController.obj
 0004:00000600       $pdata$3$?collisionResponse@@YAXAEAUPxExtendedVec3@physx@@AEBU12@AEBVPxVec3@2@2MM_N@Z 0000000180039600     CctCharacterController.obj
 0004:0000060c       $pdata$4$?collisionResponse@@YAXAEAUPxExtendedVec3@physx@@AEBU12@AEBVPxVec3@2@2MM_N@Z 000000018003960c     CctCharacterController.obj
 0004:00000618       $pdata$5$?collisionResponse@@YAXAEAUPxExtendedVec3@physx@@AEBU12@AEBVPxVec3@2@2MM_N@Z 0000000180039618     CctCharacterController.obj
 0004:00000624       $pdata$?sweepVolumeVsMesh@@YA_NPEBVSweepTest@Cct@physx@@PEBUTouchedMesh@23@AEAUSweptContact@23@AEBVPxVec3@3@AEBVPxGeometry@3@AEBVPxTransform@3@IPEBVPxTriangle@3@I@Z 0000000180039624     CctCharacterController.obj
 0004:00000630       $pdata$?computeMTD@@YA?AVPxVec3@physx@@PEBVSweepTest@Cct@2@AEBVSweptVolume@42@AEBV?$Array@IVNamedAllocator@shdfnd@physx@@@shdfnd@2@AEBUPxExtendedVec3@2@M@Z 0000000180039630     CctCharacterController.obj
 0004:0000063c       $pdata$??$reserveContainerMemory@I@Cm@physx@@YAPEAIAEAV?$Array@IVNamedAllocator@shdfnd@physx@@@shdfnd@1@I@Z 000000018003963c     CctCharacterController.obj
 0004:00000648       $pdata$?preFilter@ControllerFilter@@UEAA?AW4Enum@PxQueryHitType@physx@@AEBUPxFilterData@4@PEBVPxShape@4@PEBVPxRigidActor@4@AEAV?$PxFlags@W4Enum@PxHitFlag@physx@@G@4@@Z 0000000180039648     CctCharacterController.obj
 0004:00000654       $pdata$??_GControllerFilter@@UEAAPEAXI@Z 0000000180039654     CctCharacterController.obj
 0004:00000660       $pdata$??_G?$PxHitCallback@UPxOverlapHit@physx@@@physx@@UEAAPEAXI@Z 0000000180039660     CctCharacterControllerCallbacks.obj
 0004:0000066c       $pdata$??_G?$PxHitBuffer@UPxOverlapHit@physx@@@physx@@UEAAPEAXI@Z 000000018003966c     CctCharacterControllerCallbacks.obj
 0004:00000678       $pdata$?recreate@?$Array@VPxTriangle@physx@@VNamedAllocator@shdfnd@2@@shdfnd@physx@@IEAAXI@Z 0000000180039678     CctCharacterControllerCallbacks.obj
 0004:00000684       $pdata$?growAndPushBack@?$Array@IVNamedAllocator@shdfnd@physx@@@shdfnd@physx@@IEAAAEAIAEBI@Z 0000000180039684     CctCharacterControllerCallbacks.obj
 0004:00000690       $pdata$?findTouchedGeometry@Cct@physx@@YAXPEBUInternalCBData_FindTouchedGeom@12@AEBUPxExtendedBounds3@2@AEAVTriArray@12@AEAV?$Array@IVNamedAllocator@shdfnd@physx@@@shdfnd@2@3AEBVCCTFilter@12@AEBUCCTParams@12@AEAG@Z 0000000180039690     CctCharacterControllerCallbacks.obj
 0004:0000069c       $pdata$12$?findTouchedGeometry@Cct@physx@@YAXPEBUInternalCBData_FindTouchedGeom@12@AEBUPxExtendedBounds3@2@AEAVTriArray@12@AEAV?$Array@IVNamedAllocator@shdfnd@physx@@@shdfnd@2@3AEBVCCTFilter@12@AEBUCCTParams@12@AEAG@Z 000000018003969c     CctCharacterControllerCallbacks.obj
 0004:000006a8       $pdata$15$?findTouchedGeometry@Cct@physx@@YAXPEBUInternalCBData_FindTouchedGeom@12@AEBUPxExtendedBounds3@2@AEAVTriArray@12@AEAV?$Array@IVNamedAllocator@shdfnd@physx@@@shdfnd@2@3AEBVCCTFilter@12@AEBUCCTParams@12@AEAG@Z 00000001800396a8     CctCharacterControllerCallbacks.obj
 0004:000006b4       $pdata$16$?findTouchedGeometry@Cct@physx@@YAXPEBUInternalCBData_FindTouchedGeom@12@AEBUPxExtendedBounds3@2@AEAVTriArray@12@AEAV?$Array@IVNamedAllocator@shdfnd@physx@@@shdfnd@2@3AEBVCCTFilter@12@AEBUCCTParams@12@AEAG@Z 00000001800396b4     CctCharacterControllerCallbacks.obj
 0004:000006c0       $pdata$17$?findTouchedGeometry@Cct@physx@@YAXPEBUInternalCBData_FindTouchedGeom@12@AEBUPxExtendedBounds3@2@AEAVTriArray@12@AEAV?$Array@IVNamedAllocator@shdfnd@physx@@@shdfnd@2@3AEBVCCTFilter@12@AEBUCCTParams@12@AEAG@Z 00000001800396c0     CctCharacterControllerCallbacks.obj
 0004:000006cc       $pdata$?shapeHitCallback@Cct@physx@@YAIPEBUInternalCBData_OnHit@12@AEBUSweptContact@12@AEBVPxVec3@2@M@Z 00000001800396cc     CctCharacterControllerCallbacks.obj
 0004:000006d8       $pdata$?userHitCallback@Cct@physx@@YAIPEBUInternalCBData_OnHit@12@AEBUSweptContact@12@AEBVPxVec3@2@M@Z 00000001800396d8     CctCharacterControllerCallbacks.obj
 0004:000006e4       $pdata$?tessellateTriangleRecursive@@YAXPEAUTessParams@@AEBVPxVec3@physx@@11@Z 00000001800396e4     CctCharacterControllerCallbacks.obj
 0004:000006f0       $pdata$8$?tessellateTriangleRecursive@@YAXPEAUTessParams@@AEBVPxVec3@physx@@11@Z 00000001800396f0     CctCharacterControllerCallbacks.obj
 0004:000006fc       $pdata$9$?tessellateTriangleRecursive@@YAXPEAUTessParams@@AEBVPxVec3@physx@@11@Z 00000001800396fc     CctCharacterControllerCallbacks.obj
 0004:00000708       $pdata$10$?tessellateTriangleRecursive@@YAXPEAUTessParams@@AEBVPxVec3@physx@@11@Z 0000000180039708     CctCharacterControllerCallbacks.obj
 0004:00000714       $pdata$11$?tessellateTriangleRecursive@@YAXPEAUTessParams@@AEBVPxVec3@physx@@11@Z 0000000180039714     CctCharacterControllerCallbacks.obj
 0004:00000720       $pdata$?outputPlaneToStream@@YAXPEAVPxShape@physx@@PEBVPxRigidActor@2@AEBVPxTransform@2@AEAV?$Array@IVNamedAllocator@shdfnd@physx@@@shdfnd@2@AEAVTriArray@Cct@2@3AEBUPxExtendedVec3@2@AEBVPxBounds3@2@AEBUCCTParams@82@PEAVRenderBuffer@Cm@2@@Z 0000000180039720     CctCharacterControllerCallbacks.obj
 0004:0000072c       $pdata$?outputCapsuleToStream@@YAXPEAVPxShape@physx@@PEBVPxRigidActor@2@AEBVPxTransform@2@AEAV?$Array@IVNamedAllocator@shdfnd@physx@@@shdfnd@2@AEBUPxExtendedVec3@2@@Z 000000018003972c     CctCharacterControllerCallbacks.obj
 0004:00000738       $pdata$?outputBoxToStream@@YAXPEAVPxShape@physx@@PEBVPxRigidActor@2@AEBVPxTransform@2@AEAV?$Array@IVNamedAllocator@shdfnd@physx@@@shdfnd@2@AEAVTriArray@Cct@2@3AEBUPxExtendedVec3@2@AEBVPxBounds3@2@AEBUCCTParams@82@AEAG@Z 0000000180039738     CctCharacterControllerCallbacks.obj
 0004:00000744       $pdata$?createInvisibleWalls@@YAIAEBUCCTParams@Cct@physx@@AEBVPxTriangle@3@AEAVTriArray@23@AEAV?$Array@IVNamedAllocator@shdfnd@physx@@@shdfnd@3@@Z 0000000180039744     CctCharacterControllerCallbacks.obj
 0004:00000750       $pdata$8$?createInvisibleWalls@@YAIAEBUCCTParams@Cct@physx@@AEBVPxTriangle@3@AEAVTriArray@23@AEAV?$Array@IVNamedAllocator@shdfnd@physx@@@shdfnd@3@@Z 0000000180039750     CctCharacterControllerCallbacks.obj
 0004:0000075c       $pdata$9$?createInvisibleWalls@@YAIAEBUCCTParams@Cct@physx@@AEBVPxTriangle@3@AEAVTriArray@23@AEAV?$Array@IVNamedAllocator@shdfnd@physx@@@shdfnd@3@@Z 000000018003975c     CctCharacterControllerCallbacks.obj
 0004:00000768       $pdata$10$?createInvisibleWalls@@YAIAEBUCCTParams@Cct@physx@@AEBVPxTriangle@3@AEAVTriArray@23@AEAV?$Array@IVNamedAllocator@shdfnd@physx@@@shdfnd@3@@Z 0000000180039768     CctCharacterControllerCallbacks.obj
 0004:00000774       $pdata$11$?createInvisibleWalls@@YAIAEBUCCTParams@Cct@physx@@AEBVPxTriangle@3@AEAVTriArray@23@AEAV?$Array@IVNamedAllocator@shdfnd@physx@@@shdfnd@3@@Z 0000000180039774     CctCharacterControllerCallbacks.obj
 0004:00000780       $pdata$?outputMeshToStream@@YAXPEAVPxShape@physx@@PEBVPxRigidActor@2@AEBVPxTransform@2@AEAV?$Array@IVNamedAllocator@shdfnd@physx@@@shdfnd@2@AEAVTriArray@Cct@2@3AEBUPxExtendedVec3@2@AEBVPxBounds3@2@AEBUCCTParams@82@PEAVRenderBuffer@Cm@2@AEAG@Z 0000000180039780     CctCharacterControllerCallbacks.obj
 0004:0000078c       $pdata$4$?outputMeshToStream@@YAXPEAVPxShape@physx@@PEBVPxRigidActor@2@AEBVPxTransform@2@AEAV?$Array@IVNamedAllocator@shdfnd@physx@@@shdfnd@2@AEAVTriArray@Cct@2@3AEBUPxExtendedVec3@2@AEBVPxBounds3@2@AEBUCCTParams@82@PEAVRenderBuffer@Cm@2@AEAG@Z 000000018003978c     CctCharacterControllerCallbacks.obj
 0004:00000798       $pdata$?outputHeightFieldToStream@@YAXPEAVPxShape@physx@@PEBVPxRigidActor@2@AEBVPxTransform@2@AEAV?$Array@IVNamedAllocator@shdfnd@physx@@@shdfnd@2@AEAVTriArray@Cct@2@3AEBUPxExtendedVec3@2@AEBVPxBounds3@2@AEBUCCTParams@82@PEAVRenderBuffer@Cm@2@AEAG@Z 0000000180039798     CctCharacterControllerCallbacks.obj
 0004:000007a4       $pdata$5$?outputHeightFieldToStream@@YAXPEAVPxShape@physx@@PEBVPxRigidActor@2@AEBVPxTransform@2@AEAV?$Array@IVNamedAllocator@shdfnd@physx@@@shdfnd@2@AEAVTriArray@Cct@2@3AEBUPxExtendedVec3@2@AEBVPxBounds3@2@AEBUCCTParams@82@PEAVRenderBuffer@Cm@2@AEAG@Z 00000001800397a4     CctCharacterControllerCallbacks.obj
 0004:000007b0       $pdata$?outputConvexToStream@@YAXPEAVPxShape@physx@@PEBVPxRigidActor@2@AEBVPxTransform@2@AEAV?$Array@IVNamedAllocator@shdfnd@physx@@@shdfnd@2@AEAVTriArray@Cct@2@3AEBUPxExtendedVec3@2@AEBVPxBounds3@2@AEBUCCTParams@82@PEAVRenderBuffer@Cm@2@AEAG@Z 00000001800397b0     CctCharacterControllerCallbacks.obj
 0004:000007bc       $pdata$??_GPxRenderBuffer@physx@@UEAAPEAXI@Z 00000001800397bc     CctCharacterControllerManager.obj
 0004:000007c8       $pdata$PxCreateControllerManager 00000001800397c8     CctCharacterControllerManager.obj
 0004:000007d4       $pdata$??0CharacterControllerManager@Cct@physx@@QEAA@AEAVPxScene@2@_N@Z 00000001800397d4     CctCharacterControllerManager.obj
 0004:000007e0       $pdata$??1CharacterControllerManager@Cct@physx@@UEAA@XZ 00000001800397e0     CctCharacterControllerManager.obj
 0004:000007ec       $pdata$?release@CharacterControllerManager@Cct@physx@@UEAAXXZ 00000001800397ec     CctCharacterControllerManager.obj
 0004:000007f8       $pdata$3$?release@CharacterControllerManager@Cct@physx@@UEAAXXZ 00000001800397f8     CctCharacterControllerManager.obj
 0004:00000804       $pdata$4$?release@CharacterControllerManager@Cct@physx@@UEAAXXZ 0000000180039804     CctCharacterControllerManager.obj
 0004:00000810       $pdata$?getController@CharacterControllerManager@Cct@physx@@UEAAPEAVPxController@3@I@Z 0000000180039810     CctCharacterControllerManager.obj
 0004:0000081c       $pdata$?createController@CharacterControllerManager@Cct@physx@@UEAAPEAVPxController@3@AEBVPxControllerDesc@3@@Z 000000018003981c     CctCharacterControllerManager.obj
 0004:00000828       $pdata$?purgeControllers@CharacterControllerManager@Cct@physx@@UEAAXXZ 0000000180039828     CctCharacterControllerManager.obj
 0004:00000834       $pdata$3$?purgeControllers@CharacterControllerManager@Cct@physx@@UEAAXXZ 0000000180039834     CctCharacterControllerManager.obj
 0004:00000840       $pdata$4$?purgeControllers@CharacterControllerManager@Cct@physx@@UEAAXXZ 0000000180039840     CctCharacterControllerManager.obj
 0004:0000084c       $pdata$?getRenderBuffer@CharacterControllerManager@Cct@physx@@UEAAAEAVPxRenderBuffer@3@XZ 000000018003984c     CctCharacterControllerManager.obj
 0004:00000858       $pdata$2$?getRenderBuffer@CharacterControllerManager@Cct@physx@@UEAAAEAVPxRenderBuffer@3@XZ 0000000180039858     CctCharacterControllerManager.obj
 0004:00000864       $pdata$3$?getRenderBuffer@CharacterControllerManager@Cct@physx@@UEAAAEAVPxRenderBuffer@3@XZ 0000000180039864     CctCharacterControllerManager.obj
 0004:00000870       $pdata$?setDebugRenderingFlags@CharacterControllerManager@Cct@physx@@UEAAXV?$PxFlags@W4Enum@PxControllerDebugRenderFlag@physx@@I@3@@Z 0000000180039870     CctCharacterControllerManager.obj
 0004:0000087c       $pdata$?getObstacleContext@CharacterControllerManager@Cct@physx@@UEAAPEAVPxObstacleContext@3@I@Z 000000018003987c     CctCharacterControllerManager.obj
 0004:00000888       $pdata$?createObstacleContext@CharacterControllerManager@Cct@physx@@UEAAPEAVPxObstacleContext@3@XZ 0000000180039888     CctCharacterControllerManager.obj
 0004:00000894       $pdata$?computeInteractions@CharacterControllerManager@Cct@physx@@UEAAXMPEAVPxControllerFilterCallback@3@@Z 0000000180039894     CctCharacterControllerManager.obj
 0004:000008a0       $pdata$?shiftOrigin@CharacterControllerManager@Cct@physx@@UEAAXAEBVPxVec3@3@@Z 00000001800398a0     CctCharacterControllerManager.obj
 0004:000008ac       $pdata$?onRelease@CharacterControllerManager@Cct@physx@@UEAAXPEBVPxBase@3@PEAXW4Enum@PxDeletionEventFlag@3@@Z 00000001800398ac     CctCharacterControllerManager.obj
 0004:000008b8       $pdata$1$?onRelease@CharacterControllerManager@Cct@physx@@UEAAXPEBVPxBase@3@PEAXW4Enum@PxDeletionEventFlag@3@@Z 00000001800398b8     CctCharacterControllerManager.obj
 0004:000008c4       $pdata$2$?onRelease@CharacterControllerManager@Cct@physx@@UEAAXPEBVPxBase@3@PEAXW4Enum@PxDeletionEventFlag@3@@Z 00000001800398c4     CctCharacterControllerManager.obj
 0004:000008d0       $pdata$?registerObservedObject@CharacterControllerManager@Cct@physx@@QEAAXPEBVPxBase@3@@Z 00000001800398d0     CctCharacterControllerManager.obj
 0004:000008dc       $pdata$?unregisterObservedObject@CharacterControllerManager@Cct@physx@@QEAAXPEBVPxBase@3@@Z 00000001800398dc     CctCharacterControllerManager.obj
 0004:000008e8       $pdata$?onObstacleRemoved@CharacterControllerManager@Cct@physx@@QEBAXI@Z 00000001800398e8     CctCharacterControllerManager.obj
 0004:000008f4       $pdata$?onObstacleUpdated@CharacterControllerManager@Cct@physx@@QEBAXIPEBVPxObstacleContext@3@@Z 00000001800398f4     CctCharacterControllerManager.obj
 0004:00000900       $pdata$2$?onObstacleUpdated@CharacterControllerManager@Cct@physx@@QEBAXIPEBVPxObstacleContext@3@@Z 0000000180039900     CctCharacterControllerManager.obj
 0004:0000090c       $pdata$3$?onObstacleUpdated@CharacterControllerManager@Cct@physx@@QEBAXIPEBVPxObstacleContext@3@@Z 000000018003990c     CctCharacterControllerManager.obj
 0004:00000918       $pdata$?onObstacleAdded@CharacterControllerManager@Cct@physx@@QEBAXIPEBVPxObstacleContext@3@@Z 0000000180039918     CctCharacterControllerManager.obj
 0004:00000924       $pdata$2$?onObstacleAdded@CharacterControllerManager@Cct@physx@@QEBAXIPEBVPxObstacleContext@3@@Z 0000000180039924     CctCharacterControllerManager.obj
 0004:00000930       $pdata$3$?onObstacleAdded@CharacterControllerManager@Cct@physx@@QEBAXIPEBVPxObstacleContext@3@@Z 0000000180039930     CctCharacterControllerManager.obj
 0004:0000093c       $pdata$?releaseController@CharacterControllerManager@Cct@physx@@QEAAXAEAVPxController@3@@Z 000000018003993c     CctCharacterControllerManager.obj
 0004:00000948       $pdata$0$?releaseController@CharacterControllerManager@Cct@physx@@QEAAXAEAVPxController@3@@Z 0000000180039948     CctCharacterControllerManager.obj
 0004:00000954       $pdata$1$?releaseController@CharacterControllerManager@Cct@physx@@QEAAXAEAVPxController@3@@Z 0000000180039954     CctCharacterControllerManager.obj
 0004:00000960       $pdata$2$?releaseController@CharacterControllerManager@Cct@physx@@QEAAXAEAVPxController@3@@Z 0000000180039960     CctCharacterControllerManager.obj
 0004:0000096c       $pdata$3$?releaseController@CharacterControllerManager@Cct@physx@@QEAAXAEAVPxController@3@@Z 000000018003996c     CctCharacterControllerManager.obj
 0004:00000978       $pdata$4$?releaseController@CharacterControllerManager@Cct@physx@@QEAAXAEAVPxController@3@@Z 0000000180039978     CctCharacterControllerManager.obj
 0004:00000984       $pdata$5$?releaseController@CharacterControllerManager@Cct@physx@@QEAAXAEAVPxController@3@@Z 0000000180039984     CctCharacterControllerManager.obj
 0004:00000990       $pdata$?resetObstaclesBuffers@CharacterControllerManager@Cct@physx@@QEAAXXZ 0000000180039990     CctCharacterControllerManager.obj
 0004:0000099c       $pdata$??_GPxDeletionListener@physx@@MEAAPEAXI@Z 000000018003999c     CctCharacterControllerManager.obj
 0004:000009a8       $pdata$?append@RenderBuffer@Cm@physx@@UEAAXAEBVPxRenderBuffer@3@@Z 00000001800399a8     CctCharacterControllerManager.obj
 0004:000009b4       $pdata$?growAndPushBack@?$Array@UPxDebugPoint@physx@@VNamedAllocator@shdfnd@2@@shdfnd@physx@@IEAAAEAUPxDebugPoint@3@AEBU43@@Z 00000001800399b4     CctCharacterControllerManager.obj
 0004:000009c0       $pdata$0$?growAndPushBack@?$Array@UPxDebugPoint@physx@@VNamedAllocator@shdfnd@2@@shdfnd@physx@@IEAAAEAUPxDebugPoint@3@AEBU43@@Z 00000001800399c0     CctCharacterControllerManager.obj
 0004:000009cc       $pdata$1$?growAndPushBack@?$Array@UPxDebugPoint@physx@@VNamedAllocator@shdfnd@2@@shdfnd@physx@@IEAAAEAUPxDebugPoint@3@AEBU43@@Z 00000001800399cc     CctCharacterControllerManager.obj
 0004:000009d8       $pdata$2$?growAndPushBack@?$Array@UPxDebugPoint@physx@@VNamedAllocator@shdfnd@2@@shdfnd@physx@@IEAAAEAUPxDebugPoint@3@AEBU43@@Z 00000001800399d8     CctCharacterControllerManager.obj
 0004:000009e4       $pdata$3$?growAndPushBack@?$Array@UPxDebugPoint@physx@@VNamedAllocator@shdfnd@2@@shdfnd@physx@@IEAAAEAUPxDebugPoint@3@AEBU43@@Z 00000001800399e4     CctCharacterControllerManager.obj
 0004:000009f0       $pdata$?recreate@?$Array@UPxDebugPoint@physx@@VNamedAllocator@shdfnd@2@@shdfnd@physx@@IEAAXI@Z 00000001800399f0     CctCharacterControllerManager.obj
 0004:000009fc       $pdata$0$?recreate@?$Array@UPxDebugPoint@physx@@VNamedAllocator@shdfnd@2@@shdfnd@physx@@IEAAXI@Z 00000001800399fc     CctCharacterControllerManager.obj
 0004:00000a08       $pdata$1$?recreate@?$Array@UPxDebugPoint@physx@@VNamedAllocator@shdfnd@2@@shdfnd@physx@@IEAAXI@Z 0000000180039a08     CctCharacterControllerManager.obj
 0004:00000a14       $pdata$?growAndPushBack@?$Array@UPxDebugLine@physx@@VNamedAllocator@shdfnd@2@@shdfnd@physx@@IEAAAEAUPxDebugLine@3@AEBU43@@Z 0000000180039a14     CctCharacterControllerManager.obj
 0004:00000a20       $pdata$0$?growAndPushBack@?$Array@UPxDebugLine@physx@@VNamedAllocator@shdfnd@2@@shdfnd@physx@@IEAAAEAUPxDebugLine@3@AEBU43@@Z 0000000180039a20     CctCharacterControllerManager.obj
 0004:00000a2c       $pdata$1$?growAndPushBack@?$Array@UPxDebugLine@physx@@VNamedAllocator@shdfnd@2@@shdfnd@physx@@IEAAAEAUPxDebugLine@3@AEBU43@@Z 0000000180039a2c     CctCharacterControllerManager.obj
 0004:00000a38       $pdata$2$?growAndPushBack@?$Array@UPxDebugLine@physx@@VNamedAllocator@shdfnd@2@@shdfnd@physx@@IEAAAEAUPxDebugLine@3@AEBU43@@Z 0000000180039a38     CctCharacterControllerManager.obj
 0004:00000a44       $pdata$3$?growAndPushBack@?$Array@UPxDebugLine@physx@@VNamedAllocator@shdfnd@2@@shdfnd@physx@@IEAAAEAUPxDebugLine@3@AEBU43@@Z 0000000180039a44     CctCharacterControllerManager.obj
 0004:00000a50       $pdata$?recreate@?$Array@UPxDebugLine@physx@@VNamedAllocator@shdfnd@2@@shdfnd@physx@@IEAAXI@Z 0000000180039a50     CctCharacterControllerManager.obj
 0004:00000a5c       $pdata$0$?recreate@?$Array@UPxDebugLine@physx@@VNamedAllocator@shdfnd@2@@shdfnd@physx@@IEAAXI@Z 0000000180039a5c     CctCharacterControllerManager.obj
 0004:00000a68       $pdata$1$?recreate@?$Array@UPxDebugLine@physx@@VNamedAllocator@shdfnd@2@@shdfnd@physx@@IEAAXI@Z 0000000180039a68     CctCharacterControllerManager.obj
 0004:00000a74       $pdata$?growAndPushBack@?$Array@UPxDebugTriangle@physx@@VNamedAllocator@shdfnd@2@@shdfnd@physx@@IEAAAEAUPxDebugTriangle@3@AEBU43@@Z 0000000180039a74     CctCharacterControllerManager.obj
 0004:00000a80       $pdata$0$?growAndPushBack@?$Array@UPxDebugTriangle@physx@@VNamedAllocator@shdfnd@2@@shdfnd@physx@@IEAAAEAUPxDebugTriangle@3@AEBU43@@Z 0000000180039a80     CctCharacterControllerManager.obj
 0004:00000a8c       $pdata$1$?growAndPushBack@?$Array@UPxDebugTriangle@physx@@VNamedAllocator@shdfnd@2@@shdfnd@physx@@IEAAAEAUPxDebugTriangle@3@AEBU43@@Z 0000000180039a8c     CctCharacterControllerManager.obj
 0004:00000a98       $pdata$2$?growAndPushBack@?$Array@UPxDebugTriangle@physx@@VNamedAllocator@shdfnd@2@@shdfnd@physx@@IEAAAEAUPxDebugTriangle@3@AEBU43@@Z 0000000180039a98     CctCharacterControllerManager.obj
 0004:00000aa4       $pdata$3$?growAndPushBack@?$Array@UPxDebugTriangle@physx@@VNamedAllocator@shdfnd@2@@shdfnd@physx@@IEAAAEAUPxDebugTriangle@3@AEBU43@@Z 0000000180039aa4     CctCharacterControllerManager.obj
 0004:00000ab0       $pdata$?recreate@?$Array@UPxDebugTriangle@physx@@VNamedAllocator@shdfnd@2@@shdfnd@physx@@IEAAXI@Z 0000000180039ab0     CctCharacterControllerManager.obj
 0004:00000abc       $pdata$0$?recreate@?$Array@UPxDebugTriangle@physx@@VNamedAllocator@shdfnd@2@@shdfnd@physx@@IEAAXI@Z 0000000180039abc     CctCharacterControllerManager.obj
 0004:00000ac8       $pdata$1$?recreate@?$Array@UPxDebugTriangle@physx@@VNamedAllocator@shdfnd@2@@shdfnd@physx@@IEAAXI@Z 0000000180039ac8     CctCharacterControllerManager.obj
 0004:00000ad4       $pdata$?growAndPushBack@?$Array@UPxDebugText@physx@@VNamedAllocator@shdfnd@2@@shdfnd@physx@@IEAAAEAUPxDebugText@3@AEBU43@@Z 0000000180039ad4     CctCharacterControllerManager.obj
 0004:00000ae0       $pdata$0$?growAndPushBack@?$Array@UPxDebugText@physx@@VNamedAllocator@shdfnd@2@@shdfnd@physx@@IEAAAEAUPxDebugText@3@AEBU43@@Z 0000000180039ae0     CctCharacterControllerManager.obj
 0004:00000aec       $pdata$1$?growAndPushBack@?$Array@UPxDebugText@physx@@VNamedAllocator@shdfnd@2@@shdfnd@physx@@IEAAAEAUPxDebugText@3@AEBU43@@Z 0000000180039aec     CctCharacterControllerManager.obj
 0004:00000af8       $pdata$2$?growAndPushBack@?$Array@UPxDebugText@physx@@VNamedAllocator@shdfnd@2@@shdfnd@physx@@IEAAAEAUPxDebugText@3@AEBU43@@Z 0000000180039af8     CctCharacterControllerManager.obj
 0004:00000b04       $pdata$3$?growAndPushBack@?$Array@UPxDebugText@physx@@VNamedAllocator@shdfnd@2@@shdfnd@physx@@IEAAAEAUPxDebugText@3@AEBU43@@Z 0000000180039b04     CctCharacterControllerManager.obj
 0004:00000b10       $pdata$?recreate@?$Array@UPxDebugText@physx@@VNamedAllocator@shdfnd@2@@shdfnd@physx@@IEAAXI@Z 0000000180039b10     CctCharacterControllerManager.obj
 0004:00000b1c       $pdata$0$?recreate@?$Array@UPxDebugText@physx@@VNamedAllocator@shdfnd@2@@shdfnd@physx@@IEAAXI@Z 0000000180039b1c     CctCharacterControllerManager.obj
 0004:00000b28       $pdata$1$?recreate@?$Array@UPxDebugText@physx@@VNamedAllocator@shdfnd@2@@shdfnd@physx@@IEAAXI@Z 0000000180039b28     CctCharacterControllerManager.obj
 0004:00000b34       $pdata$??_GRenderBuffer@Cm@physx@@UEAAPEAXI@Z 0000000180039b34     CctCharacterControllerManager.obj
 0004:00000b40       $pdata$?resize@?$Array@PEBXVNamedAllocator@shdfnd@physx@@@shdfnd@physx@@QEAAXIAEBQEBX@Z 0000000180039b40     CctCharacterControllerManager.obj
 0004:00000b4c       $pdata$?recreate@?$Array@PEBXVNamedAllocator@shdfnd@physx@@@shdfnd@physx@@IEAAXI@Z 0000000180039b4c     CctCharacterControllerManager.obj
 0004:00000b58       $pdata$0$?recreate@?$Array@PEBXVNamedAllocator@shdfnd@physx@@@shdfnd@physx@@IEAAXI@Z 0000000180039b58     CctCharacterControllerManager.obj
 0004:00000b64       $pdata$1$?recreate@?$Array@PEBXVNamedAllocator@shdfnd@physx@@@shdfnd@physx@@IEAAXI@Z 0000000180039b64     CctCharacterControllerManager.obj
 0004:00000b70       $pdata$?resize@?$Array@VPxExtendedBox@physx@@VNamedAllocator@shdfnd@2@@shdfnd@physx@@QEAAXIAEBVPxExtendedBox@3@@Z 0000000180039b70     CctCharacterControllerManager.obj
 0004:00000b7c       $pdata$?recreate@?$Array@VPxExtendedBox@physx@@VNamedAllocator@shdfnd@2@@shdfnd@physx@@IEAAXI@Z 0000000180039b7c     CctCharacterControllerManager.obj
 0004:00000b88       $pdata$?resize@?$Array@UPxExtendedCapsule@physx@@VNamedAllocator@shdfnd@2@@shdfnd@physx@@QEAAXIAEBUPxExtendedCapsule@3@@Z 0000000180039b88     CctCharacterControllerManager.obj
 0004:00000b94       $pdata$?recreate@?$Array@UPxExtendedCapsule@physx@@VNamedAllocator@shdfnd@2@@shdfnd@physx@@IEAAXI@Z 0000000180039b94     CctCharacterControllerManager.obj
 0004:00000ba0       $pdata$?growAndPushBack@?$Array@PEAVController@Cct@physx@@VNamedAllocator@shdfnd@3@@shdfnd@physx@@IEAAAEAPEAVController@Cct@3@AEBQEAV453@@Z 0000000180039ba0     CctCharacterControllerManager.obj
 0004:00000bac       $pdata$?create@?$HashBase@PEAVPxShape@physx@@PEAV12@U?$Hash@PEAVPxShape@physx@@@shdfnd@2@UGetKey@?$HashSetBase@PEAVPxShape@physx@@U?$Hash@PEAVPxShape@physx@@@shdfnd@2@VNonTrackingAllocator@42@$0A@@internal@42@VNonTrackingAllocator@42@$0A@@internal@shdfnd@physx@@QEAAPEAPEAVPxShape@4@AEBQEAV54@AEA_N@Z 0000000180039bac     CctCharacterControllerManager.obj
 0004:00000bb8       $pdata$?reserveInternal@?$HashBase@PEAVPxShape@physx@@PEAV12@U?$Hash@PEAVPxShape@physx@@@shdfnd@2@UGetKey@?$HashSetBase@PEAVPxShape@physx@@U?$Hash@PEAVPxShape@physx@@@shdfnd@2@VNonTrackingAllocator@42@$0A@@internal@42@VNonTrackingAllocator@42@$0A@@internal@shdfnd@physx@@AEAAXI@Z 0000000180039bb8     CctCharacterControllerManager.obj
 0004:00000bc4       $pdata$?growAndPushBack@?$Array@PEAVObstacleContext@Cct@physx@@VNamedAllocator@shdfnd@3@@shdfnd@physx@@IEAAAEAPEAVObstacleContext@Cct@3@AEBQEAV453@@Z 0000000180039bc4     CctCharacterControllerManager.obj
 0004:00000bd0       $pdata$?create@?$HashBase@V?$Pair@QEBVPxBase@physx@@UObservedRefCounter@Cct@2@@shdfnd@physx@@PEBVPxBase@3@U?$Hash@PEBVPxBase@physx@@@23@UGetKey@?$HashMapBase@PEBVPxBase@physx@@UObservedRefCounter@Cct@2@U?$Hash@PEBVPxBase@physx@@@shdfnd@2@VNonTrackingAllocator@62@@internal@23@VNonTrackingAllocator@23@$00@internal@shdfnd@physx@@QEAAPEAV?$Pair@QEBVPxBase@physx@@UObservedRefCounter@Cct@2@@34@AEBQEBVPxBase@4@AEA_N@Z 0000000180039bd0     CctCharacterControllerManager.obj
 0004:00000bdc       $pdata$?reserveInternal@?$HashBase@V?$Pair@QEBVPxBase@physx@@UObservedRefCounter@Cct@2@@shdfnd@physx@@PEBVPxBase@3@U?$Hash@PEBVPxBase@physx@@@23@UGetKey@?$HashMapBase@PEBVPxBase@physx@@UObservedRefCounter@Cct@2@U?$Hash@PEBVPxBase@physx@@@shdfnd@2@VNonTrackingAllocator@62@@internal@23@VNonTrackingAllocator@23@$00@internal@shdfnd@physx@@AEAAXI@Z 0000000180039bdc     CctCharacterControllerManager.obj
 0004:00000be8       $pdata$??_GCharacterControllerManager@Cct@physx@@UEAAPEAXI@Z 0000000180039be8     CctCharacterControllerManager.obj
 0004:00000bf4       $pdata$??$resetOrClear@V?$Array@PEBXVNamedAllocator@shdfnd@physx@@@shdfnd@physx@@@@YAXAEAV?$Array@PEBXVNamedAllocator@shdfnd@physx@@@shdfnd@physx@@@Z 0000000180039bf4     CctCharacterControllerManager.obj
 0004:00000c00       $pdata$??$resetOrClear@V?$Array@VPxExtendedBox@physx@@VNamedAllocator@shdfnd@2@@shdfnd@physx@@@@YAXAEAV?$Array@VPxExtendedBox@physx@@VNamedAllocator@shdfnd@2@@shdfnd@physx@@@Z 0000000180039c00     CctCharacterControllerManager.obj
 0004:00000c0c       $pdata$??$resetOrClear@V?$Array@UPxExtendedCapsule@physx@@VNamedAllocator@shdfnd@2@@shdfnd@physx@@@@YAXAEAV?$Array@UPxExtendedCapsule@physx@@VNamedAllocator@shdfnd@2@@shdfnd@physx@@@Z 0000000180039c0c     CctCharacterControllerManager.obj
 0004:00000c18       $pdata$?computeMTD@@YA_NAEAVPxVec3@physx@@AEAMAEBV12@2AEBVPxMat33@2@223@Z 0000000180039c18     CctCharacterControllerManager.obj
 0004:00000c24       $pdata$?InteractionCharacterCharacter@@YAXPEAVController@Cct@physx@@0M@Z 0000000180039c24     CctCharacterControllerManager.obj
 0004:00000c30       $pdata$??0Controller@Cct@physx@@QEAA@AEBVPxControllerDesc@2@PEAVPxScene@2@@Z 0000000180039c30     CctController.obj
 0004:00000c3c       $pdata$??1Controller@Cct@physx@@UEAA@XZ 0000000180039c3c     CctController.obj
 0004:00000c48       $pdata$?releaseInternal@Controller@Cct@physx@@QEAAXXZ 0000000180039c48     CctController.obj
 0004:00000c54       $pdata$?getInternalState@Controller@Cct@physx@@QEBAXAEAUPxControllerState@3@@Z 0000000180039c54     CctController.obj
 0004:00000c60       $pdata$?onOriginShift@Controller@Cct@physx@@QEAAXAEBVPxVec3@3@@Z 0000000180039c60     CctController.obj
 0004:00000c6c       $pdata$?setUpDirectionInternal@Controller@Cct@physx@@IEAAXAEBVPxVec3@3@@Z 0000000180039c6c     CctController.obj
 0004:00000c78       $pdata$?getKineShape@Controller@Cct@physx@@IEBAPEAVPxShape@3@XZ 0000000180039c78     CctController.obj
 0004:00000c84       $pdata$?createProxyActor@Controller@Cct@physx@@IEAA_NAEAVPxPhysics@3@AEBVPxGeometry@3@AEBVPxMaterial@3@@Z 0000000180039c84     CctController.obj
 0004:00000c90       $pdata$?setPos@Controller@Cct@physx@@IEAA_NAEBUPxExtendedVec3@3@@Z 0000000180039c90     CctController.obj
 0004:00000c9c       $pdata$??_GController@Cct@physx@@UEAAPEAXI@Z 0000000180039c9c     CctController.obj
 0004:00000ca8       $pdata$??_GPxObstacleContext@physx@@UEAAPEAXI@Z 0000000180039ca8     CctObstacleContext.obj
 0004:00000cb4       $pdata$??0HandleManager@Cct@physx@@QEAA@XZ 0000000180039cb4     CctObstacleContext.obj
 0004:00000cc0       $pdata$??1HandleManager@Cct@physx@@QEAA@XZ 0000000180039cc0     CctObstacleContext.obj
 0004:00000ccc       $pdata$?Add@HandleManager@Cct@physx@@QEAAIPEAX@Z 0000000180039ccc     CctObstacleContext.obj
 0004:00000cd8       $pdata$3$?Add@HandleManager@Cct@physx@@QEAAIPEAX@Z 0000000180039cd8     CctObstacleContext.obj
 0004:00000ce4       $pdata$4$?Add@HandleManager@Cct@physx@@QEAAIPEAX@Z 0000000180039ce4     CctObstacleContext.obj
 0004:00000cf0       $pdata$?Remove@HandleManager@Cct@physx@@QEAAXI@Z 0000000180039cf0     CctObstacleContext.obj
 0004:00000cfc       $pdata$1$?Remove@HandleManager@Cct@physx@@QEAAXI@Z 0000000180039cfc     CctObstacleContext.obj
 0004:00000d08       $pdata$2$?Remove@HandleManager@Cct@physx@@QEAAXI@Z 0000000180039d08     CctObstacleContext.obj
 0004:00000d14       $pdata$?SetupLists@HandleManager@Cct@physx@@AEAA_NPEAPEAXPEAG11@Z 0000000180039d14     CctObstacleContext.obj
 0004:00000d20       $pdata$??0ObstacleContext@Cct@physx@@QEAA@AEAVCharacterControllerManager@12@@Z 0000000180039d20     CctObstacleContext.obj
 0004:00000d2c       $pdata$??1ObstacleContext@Cct@physx@@UEAA@XZ 0000000180039d2c     CctObstacleContext.obj
 0004:00000d38       $pdata$?addObstacle@ObstacleContext@Cct@physx@@UEAAIAEBVPxObstacle@3@@Z 0000000180039d38     CctObstacleContext.obj
 0004:00000d44       $pdata$0$?addObstacle@ObstacleContext@Cct@physx@@UEAAIAEBVPxObstacle@3@@Z 0000000180039d44     CctObstacleContext.obj
 0004:00000d50       $pdata$1$?addObstacle@ObstacleContext@Cct@physx@@UEAAIAEBVPxObstacle@3@@Z 0000000180039d50     CctObstacleContext.obj
 0004:00000d5c       $pdata$?removeObstacle@ObstacleContext@Cct@physx@@UEAA_NI@Z 0000000180039d5c     CctObstacleContext.obj
 0004:00000d68       $pdata$?updateObstacle@ObstacleContext@Cct@physx@@UEAA_NIAEBVPxObstacle@3@@Z 0000000180039d68     CctObstacleContext.obj
 0004:00000d74       $pdata$?raycastSingle@ObstacleContext@Cct@physx@@QEBAPEBVPxObstacle@3@AEAUPxRaycastHit@3@AEBVPxVec3@3@1MAEAI@Z 0000000180039d74     CctObstacleContext.obj
 0004:00000d80       $pdata$?raycastSingle@ObstacleContext@Cct@physx@@QEBAPEBVPxObstacle@3@AEAUPxRaycastHit@3@AEBIAEBVPxVec3@3@2M@Z 0000000180039d80     CctObstacleContext.obj
 0004:00000d8c       $pdata$?growAndPushBack@?$Array@UInternalBoxObstacle@ObstacleContext@Cct@physx@@VNamedAllocator@shdfnd@4@@shdfnd@physx@@IEAAAEAUInternalBoxObstacle@ObstacleContext@Cct@3@AEBU4563@@Z 0000000180039d8c     CctObstacleContext.obj
 0004:00000d98       $pdata$?growAndPushBack@?$Array@UInternalCapsuleObstacle@ObstacleContext@Cct@physx@@VNamedAllocator@shdfnd@4@@shdfnd@physx@@IEAAAEAUInternalCapsuleObstacle@ObstacleContext@Cct@3@AEBU4563@@Z 0000000180039d98     CctObstacleContext.obj
 0004:00000da4       $pdata$??_GObstacleContext@Cct@physx@@UEAAPEAXI@Z 0000000180039da4     CctObstacleContext.obj
 0004:00000db0       $pdata$??0SweptBox@Cct@physx@@QEAA@XZ 0000000180039db0     CctSweptBox.obj
 0004:00000dbc       $pdata$?computeTemporalBox@SweptBox@Cct@physx@@UEBAXAEBVSweepTest@23@AEAUPxExtendedBounds3@3@AEBUPxExtendedVec3@3@AEBVPxVec3@3@@Z 0000000180039dbc     CctSweptBox.obj
 0004:00000dc8       $pdata$??_GSweptBox@Cct@physx@@UEAAPEAXI@Z 0000000180039dc8     CctSweptBox.obj
 0004:00000dd4       $pdata$??0SweptCapsule@Cct@physx@@QEAA@XZ 0000000180039dd4     CctSweptCapsule.obj
 0004:00000de0       $pdata$?computeTemporalBox@SweptCapsule@Cct@physx@@UEBAXAEBVSweepTest@23@AEAUPxExtendedBounds3@3@AEBUPxExtendedVec3@3@AEBVPxVec3@3@@Z 0000000180039de0     CctSweptCapsule.obj
 0004:00000dec       $pdata$??_GSweptCapsule@Cct@physx@@UEAAPEAXI@Z 0000000180039dec     CctSweptCapsule.obj
 0004:00000df8       $pdata$??_GSweptVolume@Cct@physx@@UEAAPEAXI@Z 0000000180039df8     CctSweptVolume.obj
 0004:00000e04       $pdata$?computeTemporalBox@Cct@physx@@YAXAEAUPxExtendedBounds3@2@MMMMAEBVPxVec3@2@AEBUPxExtendedVec3@2@1@Z 0000000180039e04     CctSweptVolume.obj
 0004:00000e10       $pdata$??1PxMeshOverlapUtil@physx@@QEAA@XZ 0000000180039e10     PhysX3ExtensionsCHECKED:ExtTriangleMeshExt.obj
 0004:00000e1c       $pdata$?findOverlap@PxMeshOverlapUtil@physx@@QEAAIAEBVPxGeometry@2@AEBVPxTransform@2@AEBVPxTriangleMeshGeometry@2@1@Z 0000000180039e1c     PhysX3ExtensionsCHECKED:ExtTriangleMeshExt.obj
 0004:00000e28       $pdata$0$?findOverlap@PxMeshOverlapUtil@physx@@QEAAIAEBVPxGeometry@2@AEBVPxTransform@2@AEBVPxTriangleMeshGeometry@2@1@Z 0000000180039e28     PhysX3ExtensionsCHECKED:ExtTriangleMeshExt.obj
 0004:00000e34       $pdata$1$?findOverlap@PxMeshOverlapUtil@physx@@QEAAIAEBVPxGeometry@2@AEBVPxTransform@2@AEBVPxTriangleMeshGeometry@2@1@Z 0000000180039e34     PhysX3ExtensionsCHECKED:ExtTriangleMeshExt.obj
 0004:00000e40       $pdata$?findOverlap@PxMeshOverlapUtil@physx@@QEAAIAEBVPxGeometry@2@AEBVPxTransform@2@AEBVPxHeightFieldGeometry@2@1@Z 0000000180039e40     PhysX3ExtensionsCHECKED:ExtTriangleMeshExt.obj
 0004:00000e4c       $pdata$?PxComputeMeshPenetration@physx@@YA?AVPxVec3@1@IAEBVPxGeometry@1@AEBVPxTransform@1@AEBVPxTriangleMeshGeometry@1@1AEAI@Z 0000000180039e4c     PhysX3ExtensionsCHECKED:ExtTriangleMeshExt.obj
 0004:00000e58       $pdata$?PxComputeHeightFieldPenetration@physx@@YA?AVPxVec3@1@IAEBVPxGeometry@1@AEBVPxTransform@1@AEBVPxHeightFieldGeometry@1@1AEAI@Z 0000000180039e58     PhysX3ExtensionsCHECKED:ExtTriangleMeshExt.obj
 0004:00000e64       $pdata$??$computeMeshPenetrationT@VPxTriangleMeshGeometry@physx@@@?A0x05e637a1@@YA_NAEAVPxVec3@physx@@AEAMAEBVPxGeometry@2@AEBVPxTransform@2@AEBVPxTriangleMeshGeometry@2@3IPEAI@Z 0000000180039e64     PhysX3ExtensionsCHECKED:ExtTriangleMeshExt.obj
 0004:00000e70       $pdata$1$??$computeMeshPenetrationT@VPxTriangleMeshGeometry@physx@@@?A0x05e637a1@@YA_NAEAVPxVec3@physx@@AEAMAEBVPxGeometry@2@AEBVPxTransform@2@AEBVPxTriangleMeshGeometry@2@3IPEAI@Z 0000000180039e70     PhysX3ExtensionsCHECKED:ExtTriangleMeshExt.obj
 0004:00000e7c       $pdata$3$??$computeMeshPenetrationT@VPxTriangleMeshGeometry@physx@@@?A0x05e637a1@@YA_NAEAVPxVec3@physx@@AEAMAEBVPxGeometry@2@AEBVPxTransform@2@AEBVPxTriangleMeshGeometry@2@3IPEAI@Z 0000000180039e7c     PhysX3ExtensionsCHECKED:ExtTriangleMeshExt.obj
 0004:00000e88       $pdata$5$??$computeMeshPenetrationT@VPxTriangleMeshGeometry@physx@@@?A0x05e637a1@@YA_NAEAVPxVec3@physx@@AEAMAEBVPxGeometry@2@AEBVPxTransform@2@AEBVPxTriangleMeshGeometry@2@3IPEAI@Z 0000000180039e88     PhysX3ExtensionsCHECKED:ExtTriangleMeshExt.obj
 0004:00000e94       $pdata$6$??$computeMeshPenetrationT@VPxTriangleMeshGeometry@physx@@@?A0x05e637a1@@YA_NAEAVPxVec3@physx@@AEAMAEBVPxGeometry@2@AEBVPxTransform@2@AEBVPxTriangleMeshGeometry@2@3IPEAI@Z 0000000180039e94     PhysX3ExtensionsCHECKED:ExtTriangleMeshExt.obj
 0004:00000ea0       $pdata$7$??$computeMeshPenetrationT@VPxTriangleMeshGeometry@physx@@@?A0x05e637a1@@YA_NAEAVPxVec3@physx@@AEAMAEBVPxGeometry@2@AEBVPxTransform@2@AEBVPxTriangleMeshGeometry@2@3IPEAI@Z 0000000180039ea0     PhysX3ExtensionsCHECKED:ExtTriangleMeshExt.obj
 0004:00000eac       $pdata$8$??$computeMeshPenetrationT@VPxTriangleMeshGeometry@physx@@@?A0x05e637a1@@YA_NAEAVPxVec3@physx@@AEAMAEBVPxGeometry@2@AEBVPxTransform@2@AEBVPxTriangleMeshGeometry@2@3IPEAI@Z 0000000180039eac     PhysX3ExtensionsCHECKED:ExtTriangleMeshExt.obj
 0004:00000eb8       $pdata$??$computeMeshPenetrationT@VPxHeightFieldGeometry@physx@@@?A0x05e637a1@@YA_NAEAVPxVec3@physx@@AEAMAEBVPxGeometry@2@AEBVPxTransform@2@AEBVPxHeightFieldGeometry@2@3IPEAI@Z 0000000180039eb8     PhysX3ExtensionsCHECKED:ExtTriangleMeshExt.obj
 0004:00000ec4       $pdata$1$??$computeMeshPenetrationT@VPxHeightFieldGeometry@physx@@@?A0x05e637a1@@YA_NAEAVPxVec3@physx@@AEAMAEBVPxGeometry@2@AEBVPxTransform@2@AEBVPxHeightFieldGeometry@2@3IPEAI@Z 0000000180039ec4     PhysX3ExtensionsCHECKED:ExtTriangleMeshExt.obj
 0004:00000ed0       $pdata$3$??$computeMeshPenetrationT@VPxHeightFieldGeometry@physx@@@?A0x05e637a1@@YA_NAEAVPxVec3@physx@@AEAMAEBVPxGeometry@2@AEBVPxTransform@2@AEBVPxHeightFieldGeometry@2@3IPEAI@Z 0000000180039ed0     PhysX3ExtensionsCHECKED:ExtTriangleMeshExt.obj
 0004:00000edc       $pdata$5$??$computeMeshPenetrationT@VPxHeightFieldGeometry@physx@@@?A0x05e637a1@@YA_NAEAVPxVec3@physx@@AEAMAEBVPxGeometry@2@AEBVPxTransform@2@AEBVPxHeightFieldGeometry@2@3IPEAI@Z 0000000180039edc     PhysX3ExtensionsCHECKED:ExtTriangleMeshExt.obj
 0004:00000ee8       $pdata$6$??$computeMeshPenetrationT@VPxHeightFieldGeometry@physx@@@?A0x05e637a1@@YA_NAEAVPxVec3@physx@@AEAMAEBVPxGeometry@2@AEBVPxTransform@2@AEBVPxHeightFieldGeometry@2@3IPEAI@Z 0000000180039ee8     PhysX3ExtensionsCHECKED:ExtTriangleMeshExt.obj
 0004:00000ef4       $pdata$7$??$computeMeshPenetrationT@VPxHeightFieldGeometry@physx@@@?A0x05e637a1@@YA_NAEAVPxVec3@physx@@AEAMAEBVPxGeometry@2@AEBVPxTransform@2@AEBVPxHeightFieldGeometry@2@3IPEAI@Z 0000000180039ef4     PhysX3ExtensionsCHECKED:ExtTriangleMeshExt.obj
 0004:00000f00       $pdata$8$??$computeMeshPenetrationT@VPxHeightFieldGeometry@physx@@@?A0x05e637a1@@YA_NAEAVPxVec3@physx@@AEAMAEBVPxGeometry@2@AEBVPxTransform@2@AEBVPxHeightFieldGeometry@2@3IPEAI@Z 0000000180039f00     PhysX3ExtensionsCHECKED:ExtTriangleMeshExt.obj
 0004:00000f0c       $pdata$?transformFast@PxBounds3@physx@@SA?AV12@AEBVPxTransform@2@AEBV12@@Z 0000000180039f0c     PhysX3ExtensionsCHECKED:ExtRigidBodyExt.obj
 0004:00000f18       $pdata$??_G?$PxHitCallback@UPxSweepHit@physx@@@physx@@UEAAPEAXI@Z 0000000180039f18     PhysX3ExtensionsCHECKED:ExtRigidBodyExt.obj
 0004:00000f24       $pdata$??_G?$PxHitBuffer@UPxSweepHit@physx@@@physx@@UEAAPEAXI@Z 0000000180039f24     PhysX3ExtensionsCHECKED:ExtRigidBodyExt.obj
 0004:00000f30       $pdata$??0PxMassProperties@physx@@QEAA@AEBVPxGeometry@1@@Z 0000000180039f30     PhysX3ExtensionsCHECKED:ExtRigidBodyExt.obj
 0004:00000f3c       $pdata$8$??0PxMassProperties@physx@@QEAA@AEBVPxGeometry@1@@Z 0000000180039f3c     PhysX3ExtensionsCHECKED:ExtRigidBodyExt.obj
 0004:00000f48       $pdata$9$??0PxMassProperties@physx@@QEAA@AEBVPxGeometry@1@@Z 0000000180039f48     PhysX3ExtensionsCHECKED:ExtRigidBodyExt.obj
 0004:00000f54       $pdata$?scaleInertia@PxMassProperties@physx@@SA?AVPxMat33@2@AEBV32@AEBVPxQuat@2@AEBVPxVec3@2@@Z 0000000180039f54     PhysX3ExtensionsCHECKED:ExtRigidBodyExt.obj
 0004:00000f60       $pdata$?sum@PxMassProperties@physx@@SA?AV12@PEBV12@PEBVPxTransform@2@I@Z 0000000180039f60     PhysX3ExtensionsCHECKED:ExtRigidBodyExt.obj
 0004:00000f6c       $pdata$?updateMassAndInertia@PxRigidBodyExt@physx@@SA_NAEAVPxRigidBody@2@PEBMIPEBVPxVec3@2@_N@Z 0000000180039f6c     PhysX3ExtensionsCHECKED:ExtRigidBodyExt.obj
 0004:00000f78       $pdata$?updateMassAndInertia@PxRigidBodyExt@physx@@SA_NAEAVPxRigidBody@2@MPEBVPxVec3@2@_N@Z 0000000180039f78     PhysX3ExtensionsCHECKED:ExtRigidBodyExt.obj
 0004:00000f84       $pdata$?setMassAndUpdateInertia@PxRigidBodyExt@physx@@SA_NAEAVPxRigidBody@2@PEBMIPEBVPxVec3@2@_N@Z 0000000180039f84     PhysX3ExtensionsCHECKED:ExtRigidBodyExt.obj
 0004:00000f90       $pdata$?setMassAndUpdateInertia@PxRigidBodyExt@physx@@SA_NAEAVPxRigidBody@2@MPEBVPxVec3@2@_N@Z 0000000180039f90     PhysX3ExtensionsCHECKED:ExtRigidBodyExt.obj
 0004:00000f9c       $pdata$?computeMassPropertiesFromShapes@PxRigidBodyExt@physx@@SA?AVPxMassProperties@2@PEBQEBVPxShape@2@I@Z 0000000180039f9c     PhysX3ExtensionsCHECKED:ExtRigidBodyExt.obj
 0004:00000fa8       $pdata$?addForceAtLocalPos@PxRigidBodyExt@physx@@SAXAEAVPxRigidBody@2@AEBVPxVec3@2@1W4Enum@PxForceMode@2@_N@Z 0000000180039fa8     PhysX3ExtensionsCHECKED:ExtRigidBodyExt.obj
 0004:00000fb4       $pdata$?addLocalForceAtPos@PxRigidBodyExt@physx@@SAXAEAVPxRigidBody@2@AEBVPxVec3@2@1W4Enum@PxForceMode@2@_N@Z 0000000180039fb4     PhysX3ExtensionsCHECKED:ExtRigidBodyExt.obj
 0004:00000fc0       $pdata$?addLocalForceAtLocalPos@PxRigidBodyExt@physx@@SAXAEAVPxRigidBody@2@AEBVPxVec3@2@1W4Enum@PxForceMode@2@_N@Z 0000000180039fc0     PhysX3ExtensionsCHECKED:ExtRigidBodyExt.obj
 0004:00000fcc       $pdata$?getVelocityAtPos@PxRigidBodyExt@physx@@SA?AVPxVec3@2@AEBVPxRigidBody@2@AEBV32@@Z 0000000180039fcc     PhysX3ExtensionsCHECKED:ExtRigidBodyExt.obj
 0004:00000fd8       $pdata$?getLocalVelocityAtLocalPos@PxRigidBodyExt@physx@@SA?AVPxVec3@2@AEBVPxRigidBody@2@AEBV32@@Z 0000000180039fd8     PhysX3ExtensionsCHECKED:ExtRigidBodyExt.obj
 0004:00000fe4       $pdata$?getVelocityAtOffset@PxRigidBodyExt@physx@@SA?AVPxVec3@2@AEBVPxRigidBody@2@AEBV32@@Z 0000000180039fe4     PhysX3ExtensionsCHECKED:ExtRigidBodyExt.obj
 0004:00000ff0       $pdata$?linearSweepSingle@PxRigidBodyExt@physx@@SA_NAEAVPxRigidBody@2@AEAVPxScene@2@AEBVPxVec3@2@MV?$PxFlags@W4Enum@PxHitFlag@physx@@G@2@AEAUPxSweepHit@2@AEAIAEBUPxQueryFilterData@2@PEAVPxQueryFilterCallback@2@PEBUPxQueryCache@2@M@Z 0000000180039ff0     PhysX3ExtensionsCHECKED:ExtRigidBodyExt.obj
 0004:00000ffc       $pdata$8$?linearSweepSingle@PxRigidBodyExt@physx@@SA_NAEAVPxRigidBody@2@AEAVPxScene@2@AEBVPxVec3@2@MV?$PxFlags@W4Enum@PxHitFlag@physx@@G@2@AEAUPxSweepHit@2@AEAIAEBUPxQueryFilterData@2@PEAVPxQueryFilterCallback@2@PEBUPxQueryCache@2@M@Z 0000000180039ffc     PhysX3ExtensionsCHECKED:ExtRigidBodyExt.obj
 0004:00001008       $pdata$9$?linearSweepSingle@PxRigidBodyExt@physx@@SA_NAEAVPxRigidBody@2@AEAVPxScene@2@AEBVPxVec3@2@MV?$PxFlags@W4Enum@PxHitFlag@physx@@G@2@AEAUPxSweepHit@2@AEAIAEBUPxQueryFilterData@2@PEAVPxQueryFilterCallback@2@PEBUPxQueryCache@2@M@Z 000000018003a008     PhysX3ExtensionsCHECKED:ExtRigidBodyExt.obj
 0004:00001014       $pdata$?linearSweepMultiple@PxRigidBodyExt@physx@@SAIAEAVPxRigidBody@2@AEAVPxScene@2@AEBVPxVec3@2@MV?$PxFlags@W4Enum@PxHitFlag@physx@@G@2@PEAUPxSweepHit@2@PEAIIAEAU72@AEAHAEA_NAEBUPxQueryFilterData@2@PEAVPxQueryFilterCallback@2@PEBUPxQueryCache@2@M@Z 000000018003a014     PhysX3ExtensionsCHECKED:ExtRigidBodyExt.obj
 0004:00001020       $pdata$10$?linearSweepMultiple@PxRigidBodyExt@physx@@SAIAEAVPxRigidBody@2@AEAVPxScene@2@AEBVPxVec3@2@MV?$PxFlags@W4Enum@PxHitFlag@physx@@G@2@PEAUPxSweepHit@2@PEAIIAEAU72@AEAHAEA_NAEBUPxQueryFilterData@2@PEAVPxQueryFilterCallback@2@PEBUPxQueryCache@2@M@Z 000000018003a020     PhysX3ExtensionsCHECKED:ExtRigidBodyExt.obj
 0004:0000102c       $pdata$11$?linearSweepMultiple@PxRigidBodyExt@physx@@SAIAEAVPxRigidBody@2@AEAVPxScene@2@AEBVPxVec3@2@MV?$PxFlags@W4Enum@PxHitFlag@physx@@G@2@PEAUPxSweepHit@2@PEAIIAEAU72@AEAHAEA_NAEBUPxQueryFilterData@2@PEAVPxQueryFilterCallback@2@PEBUPxQueryCache@2@M@Z 000000018003a02c     PhysX3ExtensionsCHECKED:ExtRigidBodyExt.obj
 0004:00001038       $pdata$?computeVelocityDeltaFromImpulse@PxRigidBodyExt@physx@@SAXAEBVPxRigidBody@2@AEBVPxVec3@2@1AEAV42@2@Z 000000018003a038     PhysX3ExtensionsCHECKED:ExtRigidBodyExt.obj
 0004:00001044       $pdata$?computeVelocityDeltaFromImpulse@PxRigidBodyExt@physx@@SAXAEBVPxRigidBody@2@AEBVPxTransform@2@AEBVPxVec3@2@2MMAEAV52@3@Z 000000018003a044     PhysX3ExtensionsCHECKED:ExtRigidBodyExt.obj
 0004:00001050       $pdata$?computeLinearAngularImpulse@PxRigidBodyExt@physx@@SAXAEBVPxRigidBody@2@AEBVPxTransform@2@AEBVPxVec3@2@2MMAEAV52@3@Z 000000018003a050     PhysX3ExtensionsCHECKED:ExtRigidBodyExt.obj
 0004:0000105c       $pdata$?translate@InertiaTensorComputer@Ext@physx@@QEAAXAEBVPxVec3@3@@Z 000000018003a05c     PhysX3ExtensionsCHECKED:ExtRigidBodyExt.obj
 0004:00001068       $pdata$5$?translate@InertiaTensorComputer@Ext@physx@@QEAAXAEBVPxVec3@3@@Z 000000018003a068     PhysX3ExtensionsCHECKED:ExtRigidBodyExt.obj
 0004:00001074       $pdata$9$?translate@InertiaTensorComputer@Ext@physx@@QEAAXAEBVPxVec3@3@@Z 000000018003a074     PhysX3ExtensionsCHECKED:ExtRigidBodyExt.obj
 0004:00001080       $pdata$10$?translate@InertiaTensorComputer@Ext@physx@@QEAAXAEBVPxVec3@3@@Z 000000018003a080     PhysX3ExtensionsCHECKED:ExtRigidBodyExt.obj
 0004:0000108c       $pdata$11$?translate@InertiaTensorComputer@Ext@physx@@QEAAXAEBVPxVec3@3@@Z 000000018003a08c     PhysX3ExtensionsCHECKED:ExtRigidBodyExt.obj
 0004:00001098       $pdata$?setCapsule@InertiaTensorComputer@Ext@physx@@QEAAXHMM@Z 000000018003a098     PhysX3ExtensionsCHECKED:ExtRigidBodyExt.obj
 0004:000010a4       $pdata$?rotate@InertiaTensorComputer@Ext@physx@@QEAAXAEBVPxMat33@3@@Z 000000018003a0a4     PhysX3ExtensionsCHECKED:ExtRigidBodyExt.obj
 0004:000010b0       $pdata$?transform@InertiaTensorComputer@Ext@physx@@QEAAXAEBVPxTransform@3@@Z 000000018003a0b0     PhysX3ExtensionsCHECKED:ExtRigidBodyExt.obj
 0004:000010bc       $pdata$?computeMassAndDiagInertia@@YA_NAEAVInertiaTensorComputer@Ext@physx@@AEAVPxVec3@3@AEAVPxQuat@3@AEAM1_NAEBVPxRigidBody@3@PEBD@Z 000000018003a0bc     PhysX3ExtensionsCHECKED:ExtRigidBodyExt.obj
 0004:000010c8       $pdata$0$?computeMassAndDiagInertia@@YA_NAEAVInertiaTensorComputer@Ext@physx@@AEAVPxVec3@3@AEAVPxQuat@3@AEAM1_NAEBVPxRigidBody@3@PEBD@Z 000000018003a0c8     PhysX3ExtensionsCHECKED:ExtRigidBodyExt.obj
 0004:000010d4       $pdata$7$?computeMassAndDiagInertia@@YA_NAEAVInertiaTensorComputer@Ext@physx@@AEAVPxVec3@3@AEAVPxQuat@3@AEAM1_NAEBVPxRigidBody@3@PEBD@Z 000000018003a0d4     PhysX3ExtensionsCHECKED:ExtRigidBodyExt.obj
 0004:000010e0       $pdata$8$?computeMassAndDiagInertia@@YA_NAEAVInertiaTensorComputer@Ext@physx@@AEAVPxVec3@3@AEAVPxQuat@3@AEAM1_NAEBVPxRigidBody@3@PEBD@Z 000000018003a0e0     PhysX3ExtensionsCHECKED:ExtRigidBodyExt.obj
 0004:000010ec       $pdata$9$?computeMassAndDiagInertia@@YA_NAEAVInertiaTensorComputer@Ext@physx@@AEAVPxVec3@3@AEAVPxQuat@3@AEAM1_NAEBVPxRigidBody@3@PEBD@Z 000000018003a0ec     PhysX3ExtensionsCHECKED:ExtRigidBodyExt.obj
 0004:000010f8       $pdata$?computeMassAndInertia@@YA_N_NAEAVPxRigidBody@physx@@PEBM2I0AEAVInertiaTensorComputer@Ext@2@@Z 000000018003a0f8     PhysX3ExtensionsCHECKED:ExtRigidBodyExt.obj
 0004:00001104       $pdata$7$?computeMassAndInertia@@YA_N_NAEAVPxRigidBody@physx@@PEBM2I0AEAVInertiaTensorComputer@Ext@2@@Z 000000018003a104     PhysX3ExtensionsCHECKED:ExtRigidBodyExt.obj
 0004:00001110       $pdata$15$?computeMassAndInertia@@YA_N_NAEAVPxRigidBody@physx@@PEBM2I0AEAVInertiaTensorComputer@Ext@2@@Z 000000018003a110     PhysX3ExtensionsCHECKED:ExtRigidBodyExt.obj
 0004:0000111c       $pdata$16$?computeMassAndInertia@@YA_N_NAEAVPxRigidBody@physx@@PEBM2I0AEAVInertiaTensorComputer@Ext@2@@Z 000000018003a11c     PhysX3ExtensionsCHECKED:ExtRigidBodyExt.obj
 0004:00001128       $pdata$?resize@?$Array@PEAVPxShape@physx@@V?$InlineAllocator@$0IA@VNamedAllocator@shdfnd@physx@@@shdfnd@2@@shdfnd@physx@@QEAAXIAEBQEAVPxShape@3@@Z 000000018003a128     PhysX3ExtensionsCHECKED:ExtRigidBodyExt.obj
 0004:00001134       $pdata$?allocate@?$Array@PEAVPxShape@physx@@V?$InlineAllocator@$0IA@VNamedAllocator@shdfnd@physx@@@shdfnd@2@@shdfnd@physx@@IEAAPEAPEAVPxShape@3@I@Z 000000018003a134     PhysX3ExtensionsCHECKED:ExtRigidBodyExt.obj
 0004:00001140       $pdata$?recreate@?$Array@PEAVPxShape@physx@@V?$InlineAllocator@$0IA@VNamedAllocator@shdfnd@physx@@@shdfnd@2@@shdfnd@physx@@IEAAXI@Z 000000018003a140     PhysX3ExtensionsCHECKED:ExtRigidBodyExt.obj
 0004:0000114c       $pdata$?updateMassAndInertia@@YA_N_NAEAVPxRigidBody@physx@@PEBMIPEBVPxVec3@2@0@Z 000000018003a14c     PhysX3ExtensionsCHECKED:ExtRigidBodyExt.obj
 0004:00001158       $pdata$?setMassAndUpdateInertia@@YA_N_NAEAVPxRigidBody@physx@@PEBMIPEBVPxVec3@2@0@Z 000000018003a158     PhysX3ExtensionsCHECKED:ExtRigidBodyExt.obj
 0004:00001164       $pdata$?allocate@?$Array@VPxMassProperties@physx@@V?$InlineAllocator@$0DEA@VNamedAllocator@shdfnd@physx@@@shdfnd@2@@shdfnd@physx@@IEAAPEAVPxMassProperties@3@I@Z 000000018003a164     PhysX3ExtensionsCHECKED:ExtRigidBodyExt.obj
 0004:00001170       $pdata$?growAndPushBack@?$Array@VPxMassProperties@physx@@V?$InlineAllocator@$0DEA@VNamedAllocator@shdfnd@physx@@@shdfnd@2@@shdfnd@physx@@IEAAAEAVPxMassProperties@3@AEBV43@@Z 000000018003a170     PhysX3ExtensionsCHECKED:ExtRigidBodyExt.obj
 0004:0000117c       $pdata$?recreate@?$Array@VPxMassProperties@physx@@V?$InlineAllocator@$0DEA@VNamedAllocator@shdfnd@physx@@@shdfnd@2@@shdfnd@physx@@IEAAXI@Z 000000018003a17c     PhysX3ExtensionsCHECKED:ExtRigidBodyExt.obj
 0004:00001188       $pdata$?allocate@?$Array@VPxTransform@physx@@V?$InlineAllocator@$0BMA@VNamedAllocator@shdfnd@physx@@@shdfnd@2@@shdfnd@physx@@IEAAPEAVPxTransform@3@I@Z 000000018003a188     PhysX3ExtensionsCHECKED:ExtRigidBodyExt.obj
 0004:00001194       $pdata$?growAndPushBack@?$Array@VPxTransform@physx@@V?$InlineAllocator@$0BMA@VNamedAllocator@shdfnd@physx@@@shdfnd@2@@shdfnd@physx@@IEAAAEAVPxTransform@3@AEBV43@@Z 000000018003a194     PhysX3ExtensionsCHECKED:ExtRigidBodyExt.obj
 0004:000011a0       $pdata$?recreate@?$Array@VPxTransform@physx@@V?$InlineAllocator@$0BMA@VNamedAllocator@shdfnd@physx@@@shdfnd@2@@shdfnd@physx@@IEAAXI@Z 000000018003a1a0     PhysX3ExtensionsCHECKED:ExtRigidBodyExt.obj
 0004:000011ac       $pdata$?addForceAtPosInternal@@YAXAEAVPxRigidBody@physx@@AEBVPxVec3@2@1W4Enum@PxForceMode@2@_N@Z 000000018003a1ac     PhysX3ExtensionsCHECKED:ExtRigidBodyExt.obj
 0004:000011b8       $pdata$8$?addForceAtPosInternal@@YAXAEAVPxRigidBody@physx@@AEBVPxVec3@2@1W4Enum@PxForceMode@2@_N@Z 000000018003a1b8     PhysX3ExtensionsCHECKED:ExtRigidBodyExt.obj
 0004:000011c4       $pdata$9$?addForceAtPosInternal@@YAXAEAVPxRigidBody@physx@@AEBVPxVec3@2@1W4Enum@PxForceMode@2@_N@Z 000000018003a1c4     PhysX3ExtensionsCHECKED:ExtRigidBodyExt.obj
 0004:000011d0       $pdata$?getVelocityAtPosInternal@@YA?AVPxVec3@physx@@AEBVPxRigidBody@2@AEBV12@@Z 000000018003a1d0     PhysX3ExtensionsCHECKED:ExtRigidBodyExt.obj
 0004:000011e8       $pdata$??_Gtype_info@@UEAAPEAXI@Z 000000018003a1e8     MSVCRT:std_type_info_static.obj
 0004:000011f4       $pdata$?dllmain_crt_process_attach@@YAHQEAUHINSTANCE__@@QEAX@Z 000000018003a1f4     MSVCRT:dll_dllmain.obj
 0004:00001200       $pdata$?fin$0@?0??dllmain_crt_process_attach@@YAHQEAUHINSTANCE__@@QEAX@Z@4HA 000000018003a200     MSVCRT:dll_dllmain.obj
 0004:0000120c       $pdata$?dllmain_crt_process_detach@@YAH_N@Z 000000018003a20c     MSVCRT:dll_dllmain.obj
 0004:00001218       $pdata$?fin$0@?0??dllmain_crt_process_detach@@YAH_N@Z@4HA 000000018003a218     MSVCRT:dll_dllmain.obj
 0004:00001224       $pdata$?dllmain_crt_dispatch@@YAHQEAUHINSTANCE__@@KQEAX@Z 000000018003a224     MSVCRT:dll_dllmain.obj
 0004:00001230       $pdata$?dllmain_dispatch@@YAHQEAUHINSTANCE__@@KQEAX@Z 000000018003a230     MSVCRT:dll_dllmain.obj
 0004:0000123c       $pdata$?filt$0@?0??dllmain_dispatch@@YAHQEAUHINSTANCE__@@KQEAX@Z@4HA 000000018003a23c     MSVCRT:dll_dllmain.obj
 0004:00001248       $pdata$_DllMainCRTStartup  000000018003a248     MSVCRT:dll_dllmain.obj
 0004:00001254       $pdata$__security_init_cookie 000000018003a254     MSVCRT:gs_support.obj
 0004:00001260       $pdata$__get_entropy       000000018003a260     MSVCRT:gs_support.obj
 0004:0000126c       $pdata$DllMain             000000018003a26c     MSVCRT:dll_dllmain_stub.obj
 0004:00001278       $pdata$__scrt_initialize_default_local_stdio_options 000000018003a278     MSVCRT:default_local_stdio_options.obj
 0004:00001284       $pdata$atexit              000000018003a284     MSVCRT:utility.obj
 0004:00001290       $pdata$_onexit             000000018003a290     MSVCRT:utility.obj
 0004:0000129c       $pdata$__scrt_is_nonwritable_in_current_image 000000018003a29c     MSVCRT:utility.obj
 0004:000012a8       $pdata$__scrt_is_nonwritable_in_current_image$filt$0 000000018003a2a8     MSVCRT:utility.obj
 0004:000012b4       $pdata$__scrt_acquire_startup_lock 000000018003a2b4     MSVCRT:utility.obj
 0004:000012c0       $pdata$__scrt_release_startup_lock 000000018003a2c0     MSVCRT:utility.obj
 0004:000012cc       $pdata$__scrt_initialize_crt 000000018003a2cc     MSVCRT:utility.obj
 0004:000012d8       $pdata$__scrt_uninitialize_crt 000000018003a2d8     MSVCRT:utility.obj
 0004:000012e4       $pdata$__scrt_initialize_onexit_tables 000000018003a2e4     MSVCRT:utility.obj
 0004:000012f0       $pdata$__scrt_dllmain_exception_filter 000000018003a2f0     MSVCRT:utility.obj
 0004:000012fc       $pdata$__scrt_dllmain_before_initialize_c 000000018003a2fc     MSVCRT:utility.obj
 0004:00001308       $pdata$__scrt_dllmain_after_initialize_c 000000018003a308     MSVCRT:utility.obj
 0004:00001314       $pdata$__scrt_dllmain_uninitialize_c 000000018003a314     MSVCRT:utility.obj
 0004:00001320       $pdata$__scrt_dllmain_uninitialize_critical 000000018003a320     MSVCRT:utility.obj
 0004:0000132c       $pdata$__scrt_dllmain_crt_thread_attach 000000018003a32c     MSVCRT:utility.obj
 0004:00001338       $pdata$__scrt_dllmain_crt_thread_detach 000000018003a338     MSVCRT:utility.obj
 0004:00001344       $pdata$?configure_argv@__scrt_narrow_argv_policy@@SAHXZ 000000018003a344     MSVCRT:utility.obj
 0004:00001350       $pdata$__scrt_get_show_window_mode 000000018003a350     MSVCRT:utility_desktop.obj
 0004:0000135c       $pdata$__scrt_is_managed_app 000000018003a35c     MSVCRT:utility_desktop.obj
 0004:00001368       $pdata$__scrt_fastfail     000000018003a368     MSVCRT:utility_desktop.obj
 0004:00001374       $pdata$__scrt_unhandled_exception_filter 000000018003a374     MSVCRT:utility_desktop.obj
 0004:00001380       $pdata$_RTC_Initialize     000000018003a380     MSVCRT:initsect.obj
 0004:0000138c       $pdata$_RTC_Terminate      000000018003a38c     MSVCRT:initsect.obj
 0004:00001398       $pdata$__isa_available_init 000000018003a398     MSVCRT:cpu_disp.obj
 0005:00000e76       .idata$6                   000000018003be76     PxFoundationCHECKED_x64:PxFoundationCHECKED_x64.dll
 0005:00001634       .idata$6                   000000018003c634     PhysX3CommonCHECKED_x64:PhysX3CommonCHECKED_x64.dll
 0005:000016c0       .idata$6                   000000018003c6c0     vcruntime:VCRUNTIME140.dll
 0005:000017d8       .idata$6                   000000018003c7d8     ucrt:api-ms-win-crt-math-l1-1-0.dll
 0005:000017f8       .idata$6                   000000018003c7f8     ucrt:api-ms-win-crt-runtime-l1-1-0.dll
 0005:0000181a       .idata$6                   000000018003c81a     ucrt:api-ms-win-crt-heap-l1-1-0.dll
 0005:0000199e       .idata$6                   000000018003c99e     kernel32:KERNEL32.dll
 0007:000001c0       $R000000                   000000018003e1c0     PhysX3CharacterKinematic.res
 0007:00000540       $R000380                   000000018003e540     PhysX3CharacterKinematic.res
