 PhysX3CookingCHECKED_x64

 Timestamp is 5f36ca83 (Sat Aug 15 01:31:47 2020)

 Preferred load address is 0000000180000000

 Start         Length     Name                   Class
 0001:00000000 00002e10H .text$di                CODE
 0001:00002e10 0003e120H .text$mn                CODE
 0001:00040f30 00001016H .text$mn$00             CODE
 0001:00041f46 000010a1H .text$x                 CODE
 0002:00000000 00000110H .CRT$XCA                DATA
 0002:00000110 00000308H .CRT$XCU                DATA
 0002:00000418 00000110H .CRT$XCZ                DATA
 0002:00000528 00000110H .CRT$XIA                DATA
 0002:00000638 00000110H .CRT$XIZ                DATA
 0002:00000748 00000110H .CRT$XPA                DATA
 0002:00000858 00000110H .CRT$XPZ                DATA
 0002:00000968 00000110H .CRT$XTA                DATA
 0002:00000a78 00000118H .CRT$XTZ                DATA
 0002:00000b90 00002df0H .rdata                  DATA
 0002:00003980 00000188H .rdata$r                DATA
 0002:00003b08 000001b8H .rdata$zzzdbg           DATA
 0002:00003cc0 00000110H .rtc$IAA                DATA
 0002:00003dd0 00000110H .rtc$IZZ                DATA
 0002:00003ee0 00000110H .rtc$TAA                DATA
 0002:00003ff0 00000110H .rtc$TZZ                DATA
 0002:00004100 00004450H .xdata                  DATA
 0002:00008550 000001a3H .edata                  DATA
 0003:00000000 00000168H .data                   DATA
 0003:00000168 00000568H .data$r                 DATA
 0003:000006d0 000004f9H .bss                    DATA
 0004:00000000 00002634H .pdata                  DATA
 0005:00000000 00000370H .idata$5                DATA
 0005:00000370 00000064H .idata$2                DATA
 0005:000003d4 00000014H .idata$3                DATA
 0005:000003e8 00000370H .idata$4                DATA
 0005:00000758 0000057eH .idata$6                DATA
 0006:00000000 00000040H .didat$2                DATA
 0006:00000040 00000020H .didat$3                DATA
 0006:00000060 00000280H .didat$4                DATA
 0006:000002e0 00000280H .didat$5                DATA
 0006:00000560 00000b90H .didat$6                DATA
 0006:000010f0 000002c0H .didat$7                DATA
 0007:00000000 0000011bH .00cfg                  DATA
 0008:00000000 00000940H _RDATA                  DATA
 0009:00000000 000001c0H .rsrc$01                DATA
 0009:000001c0 000006a9H .rsrc$02                DATA

  Address         Publics by Value              Rva+Base               Lib:Object

 0000:00000000       __guard_fids_table         0000000000000000     <absolute>
 0000:00000000       __hybrid_code_map_count    0000000000000000     <absolute>
 0000:00000000       __hybrid_code_map          0000000000000000     <absolute>
 0000:00000000       __enclave_config           0000000000000000     <absolute>
 0000:00000000       __guard_fids_count         0000000000000000     <absolute>
 0000:00000000       __guard_iat_table          0000000000000000     <absolute>
 0000:00000000       __dynamic_value_reloc_table 0000000000000000     <absolute>
 0000:00000000       __guard_longjmp_table      0000000000000000     <absolute>
 0000:00000000       ___safe_se_handler_count   0000000000000000     <absolute>
 0000:00000000       __volatile_metadata        0000000000000000     <absolute>
 0000:00000000       __hybrid_auxiliary_iat     0000000000000000     <absolute>
 0000:00000000       __guard_longjmp_count      0000000000000000     <absolute>
 0000:00000000       ___safe_se_handler_table   0000000000000000     <absolute>
 0000:00000000       __guard_iat_count          0000000000000000     <absolute>
 0000:00000100       __guard_flags              0000000000000100     <absolute>
 0000:00000000       __ImageBase                0000000180000000     <linker-defined>
 0001:00002e10       PxSetPhysXCookingDelayLoadHook 0000000180003e10 f   WindowsCookingDelayLoadHook.obj
 0001:00002e20       ?delayHook@@YAP6A_JXZIPEAUDelayLoadInfo@@@Z 0000000180003e20 f   WindowsCookingDelayLoadHook.obj
 0001:00002e80       ?physXCommonDliNotePreLoadLibrary@Cm@physx@@YAP6A_JXZPEBDPEBVPxDelayLoadHook@2@@Z 0000000180003e80 f i WindowsCookingDelayLoadHook.obj
 0001:000031a0       ?saveHeightField@physx@@YA_NAEBVHeightField@Gu@1@AEAVPxOutputStream@1@_N@Z 00000001800041a0 f   HeightFieldCooking.obj
 0001:00003480       ?__empty_global_delete@@YAXPEAX@Z 0000000180004480 f i HeightFieldCooking.obj
 0001:00003490       ?__empty_global_delete@@YAXPEAX_K@Z 0000000180004490 f i HeightFieldCooking.obj
 0001:00003490       ?__global_array_delete@@YAXPEAX_K@Z 0000000180004490 f i HeightFieldCooking.obj
 0001:00003490       ?__global_delete@@YAXPEAX_K@Z 0000000180004490 f i HeightFieldCooking.obj
 0001:000034a0       ?buildFromTriangles@RTreeCooker@physx@@SAXAEAURTree@Gu@2@PEBVPxVec3@2@IPEBGPEBIIAEAV?$Array@IVNamedAllocator@shdfnd@physx@@@shdfnd@2@PEAURemapCallback@12@MW4Enum@PxMeshCookingHint@2@@Z 00000001800044a0 f   RTreeCooking.obj
 0001:00003830       ??$partition@UBoundsLTE@physx@@@quickSelect@physx@@YAIPEIAIIIIAEBUBoundsLTE@1@@Z 0000000180004830 f i RTreeCooking.obj
 0001:00003a30       ??$quickSelectFirstK@UBoundsLTE@physx@@@quickSelect@physx@@YAXPEIAIIIIAEBUBoundsLTE@1@@Z 0000000180004a30 f i RTreeCooking.obj
 0001:00003c90       ??$smallSort@I$$CBUSortBoundsPredicate@physx@@@internal@shdfnd@physx@@YAXPEAIHHAEBUSortBoundsPredicate@2@@Z 0000000180004c90 f i RTreeCooking.obj
 0001:00004010       ??$sort@I@shdfnd@physx@@YAXPEAII@Z 0000000180005010 f i RTreeCooking.obj
 0001:00004070       ??$sort@IU?$Less@I@shdfnd@physx@@VNamedAllocator@23@@shdfnd@physx@@YAXPEAIIAEBU?$Less@I@01@AEBVNamedAllocator@01@I@Z 0000000180005070 f i RTreeCooking.obj
 0001:000044f0       ??$sort@IUSortBoundsPredicate@physx@@@shdfnd@physx@@YAXPEAIIAEBUSortBoundsPredicate@1@@Z 00000001800054f0 f i RTreeCooking.obj
 0001:00004560       ??$sort@IUSortBoundsPredicate@physx@@VNamedAllocator@shdfnd@2@@shdfnd@physx@@YAXPEAIIAEBUSortBoundsPredicate@1@AEBVNamedAllocator@01@I@Z 0000000180005560 f i RTreeCooking.obj
 0001:00004ac0       ??0?$InlineArray@UInterval@physx@@$0EAA@VNamedAllocator@shdfnd@2@@shdfnd@physx@@QEAA@AEBVNamedAllocator@12@@Z 0000000180005ac0 f i RTreeCooking.obj
 0001:00004be0       ??_H@YAXPEAX_K1P6APEAX0@Z@Z 0000000180005be0 f i RTreeCooking.obj
 0001:00004c40       ?allocate@?$Array@UInterval@physx@@V?$InlineAllocator@$0CAAA@VNamedAllocator@shdfnd@physx@@@shdfnd@2@@shdfnd@physx@@IEAAPEAUInterval@3@I@Z 0000000180005c40 f i RTreeCooking.obj
 0001:00005e40       ?copy@?$Array@URTreeNodeNQ@physx@@VNamedAllocator@shdfnd@2@@shdfnd@physx@@KAXPEAURTreeNodeNQ@3@0PEBU43@@Z 0000000180006e40 f i RTreeCooking.obj
 0001:00006070       ?copy@?$Array@VPxVec3@physx@@VNamedAllocator@shdfnd@2@@shdfnd@physx@@KAXPEAVPxVec3@3@0PEBV43@@Z 0000000180007070 f i RTreeCooking.obj
 0001:00006170       ?growAndPushBack@?$Array@IVNamedAllocator@shdfnd@physx@@@shdfnd@physx@@IEAAAEAIAEBI@Z 0000000180007170 f i RTreeCooking.obj
 0001:00006290       ?growAndPushBack@?$Array@UInterval@physx@@V?$InlineAllocator@$0CAAA@VNamedAllocator@shdfnd@physx@@@shdfnd@2@@shdfnd@physx@@IEAAAEAUInterval@3@AEBU43@@Z 0000000180007290 f i RTreeCooking.obj
 0001:000063c0       ?growAndPushBack@?$Array@UPxBounds3V@physx@@VNamedAllocator@shdfnd@2@@shdfnd@physx@@IEAAAEAUPxBounds3V@3@AEBU43@@Z 00000001800073c0 f i RTreeCooking.obj
 0001:000064f0       ?growAndPushBack@?$Array@URTreeNodeNQ@physx@@VNamedAllocator@shdfnd@2@@shdfnd@physx@@IEAAAEAURTreeNodeNQ@3@AEBU43@@Z 00000001800074f0 f i RTreeCooking.obj
 0001:00006630       ?growAndPushBack@?$Array@URTreeNodeQ@Gu@physx@@VNamedAllocator@shdfnd@3@@shdfnd@physx@@IEAAAEAURTreeNodeQ@Gu@3@AEBU453@@Z 0000000180007630 f i RTreeCooking.obj
 0001:00006780       ?growAndPushBack@?$Array@VPxVec3@physx@@VNamedAllocator@shdfnd@2@@shdfnd@physx@@IEAAAEAVPxVec3@3@AEBV43@@Z 0000000180007780 f i RTreeCooking.obj
 0001:00006890       ?recreate@?$Array@IVNamedAllocator@shdfnd@physx@@@shdfnd@physx@@IEAAXI@Z 0000000180007890 f i RTreeCooking.obj
 0001:000069a0       ?recreate@?$Array@UPxBounds3V@physx@@VNamedAllocator@shdfnd@2@@shdfnd@physx@@IEAAXI@Z 00000001800079a0 f i RTreeCooking.obj
 0001:00006ab0       ?recreate@?$Array@URTreeNodeNQ@physx@@VNamedAllocator@shdfnd@2@@shdfnd@physx@@IEAAXI@Z 0000000180007ab0 f i RTreeCooking.obj
 0001:00006b70       ?recreate@?$Array@URTreeNodeQ@Gu@physx@@VNamedAllocator@shdfnd@3@@shdfnd@physx@@IEAAXI@Z 0000000180007b70 f i RTreeCooking.obj
 0001:00006c80       ?recreate@?$Array@VPxVec3@physx@@VNamedAllocator@shdfnd@2@@shdfnd@physx@@IEAAXI@Z 0000000180007c80 f i RTreeCooking.obj
 0001:00006d50       ?resize@?$Array@IVNamedAllocator@shdfnd@physx@@@shdfnd@physx@@QEAAXIAEBI@Z 0000000180007d50 f i RTreeCooking.obj
 0001:00006e60       ?resizeUninitialized@?$Array@URTreeNodeNQ@physx@@VNamedAllocator@shdfnd@2@@shdfnd@physx@@QEAAXI@Z 0000000180007e60 f i RTreeCooking.obj
 0001:00006eb0       ?sort4@SubSortQuick@physx@@QEAAXPEIAIIAEAV?$Array@URTreeNodeNQ@physx@@VNamedAllocator@shdfnd@2@@shdfnd@2@AEAIAEAUPxBounds3V@2@I@Z 0000000180007eb0 f i RTreeCooking.obj
 0001:00007330       ?sort4@SubSortSAH@physx@@QEAAXPEAIIAEAV?$Array@URTreeNodeNQ@physx@@VNamedAllocator@shdfnd@2@@shdfnd@2@AEAIIPEAURTreeNodeNQ@2@@Z 0000000180008330 f i RTreeCooking.obj
 0001:00007c00       ?split@SubSortSAH@physx@@QEAAIPEAII@Z 0000000180008c00 f i RTreeCooking.obj
 0001:00008590       ??0TriangleMeshBuilder@physx@@QEAA@AEAVTriangleMeshData@Gu@1@AEBUPxCookingParams@1@@Z 0000000180009590 f   TriangleMeshBuilder.obj
 0001:000085c0       ??1TriangleMeshBuilder@physx@@UEAA@XZ 00000001800095c0 f   TriangleMeshBuilder.obj
 0001:00008630       ?cleanMesh@TriangleMeshBuilder@physx@@QEAA_N_NPEAW4Enum@PxTriangleMeshCookingResult@2@@Z 0000000180009630 f   TriangleMeshBuilder.obj
 0001:00008af0       ?remapTopology@TriangleMeshBuilder@physx@@QEAAXPEBI@Z 0000000180009af0 f   TriangleMeshBuilder.obj
 0001:00008d50       ?createSharedEdgeData@TriangleMeshBuilder@physx@@QEAAX_N0@Z 0000000180009d50 f   TriangleMeshBuilder.obj
 0001:000091c0       ?recordTriangleIndices@TriangleMeshBuilder@physx@@QEAAXXZ 000000018000a1c0 f   TriangleMeshBuilder.obj
 0001:00009260       ?createGRBMidPhaseAndData@TriangleMeshBuilder@physx@@QEAAXI@Z 000000018000a260 f   TriangleMeshBuilder.obj
 0001:00009600       ?createGRBData@TriangleMeshBuilder@physx@@QEAAXXZ 000000018000a600 f   TriangleMeshBuilder.obj
 0001:000096f0       ?loadFromDesc@TriangleMeshBuilder@physx@@QEAA_NAEBVPxTriangleMeshDesc@2@PEAW4Enum@PxTriangleMeshCookingResult@2@_N@Z 000000018000a6f0 f   TriangleMeshBuilder.obj
 0001:00009b60       ?save@TriangleMeshBuilder@physx@@QEBA_NAEAVPxOutputStream@2@_NAEBUPxCookingParams@2@@Z 000000018000ab60 f   TriangleMeshBuilder.obj
 0001:0000a160       ?checkMeshIndicesSize@TriangleMeshBuilder@physx@@QEAAXXZ 000000018000b160 f   TriangleMeshBuilder.obj
 0001:0000a270       ?computeLocalBounds@TriangleMeshBuilder@physx@@IEAAXXZ 000000018000b270 f   TriangleMeshBuilder.obj
 0001:0000a310       ?importMesh@TriangleMeshBuilder@physx@@IEAA_NAEBVPxTriangleMeshDesc@2@AEBUPxCookingParams@2@PEAW4Enum@PxTriangleMeshCookingResult@2@_N@Z 000000018000b310 f   TriangleMeshBuilder.obj
 0001:0000a630       ?releaseEdgeList@TriangleMeshBuilder@physx@@IEAAXXZ 000000018000b630 f   TriangleMeshBuilder.obj
 0001:0000a690       ?createEdgeList@TriangleMeshBuilder@physx@@IEAAXXZ 000000018000b690 f   TriangleMeshBuilder.obj
 0001:0000a7b0       ??0RTreeTriangleMeshBuilder@physx@@QEAA@AEBUPxCookingParams@1@@Z 000000018000b7b0 f   TriangleMeshBuilder.obj
 0001:0000a870       ??1RTreeTriangleMeshBuilder@physx@@UEAA@XZ 000000018000b870 f   TriangleMeshBuilder.obj
 0001:0000a8a0       ?createMidPhaseStructure@RTreeTriangleMeshBuilder@physx@@UEAAXXZ 000000018000b8a0 f   TriangleMeshBuilder.obj
 0001:0000a9e0       ?saveMidPhaseStructure@RTreeTriangleMeshBuilder@physx@@UEBAXAEAVPxOutputStream@2@_N@Z 000000018000b9e0 f   TriangleMeshBuilder.obj
 0001:0000ac30       ??0BV4TriangleMeshBuilder@physx@@QEAA@AEBUPxCookingParams@1@@Z 000000018000bc30 f   TriangleMeshBuilder.obj
 0001:0000ad00       ??1BV4TriangleMeshBuilder@physx@@UEAA@XZ 000000018000bd00 f   TriangleMeshBuilder.obj
 0001:0000ad60       ?createMidPhaseStructure@BV4TriangleMeshBuilder@physx@@UEAAXXZ 000000018000bd60 f   TriangleMeshBuilder.obj
 0001:0000aff0       ?saveMidPhaseStructure@BV4TriangleMeshBuilder@physx@@UEBAXAEAVPxOutputStream@2@_N@Z 000000018000bff0 f   TriangleMeshBuilder.obj
 0001:0000b1f0       ?onMeshIndexFormatChange@BV4TriangleMeshBuilder@physx@@UEAAXXZ 000000018000c1f0 f   TriangleMeshBuilder.obj
 0001:0000b230       ?createMidPhaseStructure@BV32TriangleMeshBuilder@physx@@SAXAEBUPxCookingParams@2@AEAVTriangleMeshData@Gu@2@AEAVBV32Tree@52@@Z 000000018000c230 f   TriangleMeshBuilder.obj
 0001:0000b3b0       ?saveMidPhaseStructure@BV32TriangleMeshBuilder@physx@@SAXPEAVBV32Tree@Gu@2@AEAVPxOutputStream@2@_N@Z 000000018000c3b0 f   TriangleMeshBuilder.obj
 0001:0000b550       ?findSharpVertices@GrbTrimeshCookerHelper@physx@@YAXAEAV?$Array@USortedNeighbor@GrbTrimeshCookerHelper@physx@@VNamedAllocator@shdfnd@3@@shdfnd@2@AEAV?$Array@USharpEdgeRange@GrbTrimeshCookerHelper@physx@@VNamedAllocator@shdfnd@3@@42@PEBUuint3@2@PEBUuint4@2@II@Z 000000018000c550 f   TriangleMeshBuilder.obj
 0001:0000b910       ?buildVertexConnectionNew_p1@GrbTrimeshCookerHelper@physx@@YAIAEAV?$Array@USortedNeighbor@GrbTrimeshCookerHelper@physx@@VNamedAllocator@shdfnd@3@@shdfnd@2@AEAV?$Array@USharpEdgeRange@GrbTrimeshCookerHelper@physx@@VNamedAllocator@shdfnd@3@@42@PEBUuint3@2@PEBUuint4@2@II@Z 000000018000c910 f   TriangleMeshBuilder.obj
 0001:0000bac0       ?buildVertexConnectionNew_p2@GrbTrimeshCookerHelper@physx@@YAXPEAI00AEAV?$Array@USortedNeighbor@GrbTrimeshCookerHelper@physx@@VNamedAllocator@shdfnd@3@@shdfnd@2@AEAV?$Array@USharpEdgeRange@GrbTrimeshCookerHelper@physx@@VNamedAllocator@shdfnd@3@@42@I@Z 000000018000cac0 f   TriangleMeshBuilder.obj
 0001:0000c8e0       ??$?_UG@@YAPEAX_KV?$ReflectionAllocator@G@shdfnd@physx@@PEBDH@Z 000000018000d8e0 f i TriangleMeshBuilder.obj
 0001:0000c9a0       ??$?_UI@@YAPEAX_KV?$ReflectionAllocator@I@shdfnd@physx@@PEBDH@Z 000000018000d9a0 f i TriangleMeshBuilder.obj
 0001:0000ca60       ??$median3@USortedNeighbor@GrbTrimeshCookerHelper@physx@@$$CBU?$Less@USortedNeighbor@GrbTrimeshCookerHelper@physx@@@shdfnd@3@@internal@shdfnd@physx@@YAXPEAUSortedNeighbor@GrbTrimeshCookerHelper@2@HHAEBU?$Less@USortedNeighbor@GrbTrimeshCookerHelper@physx@@@12@@Z 000000018000da60 f i TriangleMeshBuilder.obj
 0001:0000cbe0       ??$sort@UEdgeTriLookup@physx@@@shdfnd@physx@@YAXPEAUEdgeTriLookup@1@I@Z 000000018000dbe0 f i TriangleMeshBuilder.obj
 0001:0000cc40       ??$sort@UEdgeTriLookup@physx@@U?$Less@UEdgeTriLookup@physx@@@shdfnd@2@VNamedAllocator@42@@shdfnd@physx@@YAXPEAUEdgeTriLookup@1@IAEBU?$Less@UEdgeTriLookup@physx@@@01@AEBVNamedAllocator@01@I@Z 000000018000dc40 f i TriangleMeshBuilder.obj
 0001:0000d260       ??$sort@USortedNeighbor@GrbTrimeshCookerHelper@physx@@@shdfnd@physx@@YAXPEAUSortedNeighbor@GrbTrimeshCookerHelper@1@I@Z 000000018000e260 f i TriangleMeshBuilder.obj
 0001:0000d2c0       ??$sort@USortedNeighbor@GrbTrimeshCookerHelper@physx@@U?$Less@USortedNeighbor@GrbTrimeshCookerHelper@physx@@@shdfnd@3@VNamedAllocator@53@@shdfnd@physx@@YAXPEAUSortedNeighbor@GrbTrimeshCookerHelper@1@IAEBU?$Less@USortedNeighbor@GrbTrimeshCookerHelper@physx@@@01@AEBVNamedAllocator@01@I@Z 000000018000e2c0 f i TriangleMeshBuilder.obj
 0001:0000d840       ??0PxVec4@physx@@QEAA@XZ   000000018000e840 f i TriangleMeshBuilder.obj
 0001:0000d850       ??1BV4TriangleData@Gu@physx@@UEAA@XZ 000000018000e850 f i TriangleMeshBuilder.obj
 0001:0000d8a0       ??1RTreeTriangleData@Gu@physx@@UEAA@XZ 000000018000e8a0 f i TriangleMeshBuilder.obj
 0001:0000d920       ??1RemapCallback@RTreeCooker@physx@@UEAA@XZ 000000018000e920 f i TriangleMeshBuilder.obj
 0001:0000d930       ??1TriangleMeshData@Gu@physx@@UEAA@XZ 000000018000e930 f i TriangleMeshBuilder.obj
 0001:0000db00       ??_GBV4TriangleData@Gu@physx@@UEAAPEAXI@Z 000000018000eb00 f i TriangleMeshBuilder.obj
 0001:0000db00       ??_EBV4TriangleData@Gu@physx@@UEAAPEAXI@Z 000000018000eb00 f i TriangleMeshBuilder.obj
 0001:0000dbb0       ??_GBV4TriangleMeshBuilder@physx@@UEAAPEAXI@Z 000000018000ebb0 f i TriangleMeshBuilder.obj
 0001:0000dbb0       ??_EBV4TriangleMeshBuilder@physx@@UEAAPEAXI@Z 000000018000ebb0 f i TriangleMeshBuilder.obj
 0001:0000dc50       ??_GRTreeCookerRemap@physx@@UEAAPEAXI@Z 000000018000ec50 f i TriangleMeshBuilder.obj
 0001:0000dc50       ??_ERTreeCookerRemap@physx@@UEAAPEAXI@Z 000000018000ec50 f i TriangleMeshBuilder.obj
 0001:0000dc90       ??_ERTreeTriangleData@Gu@physx@@UEAAPEAXI@Z 000000018000ec90 f i TriangleMeshBuilder.obj
 0001:0000dc90       ??_GRTreeTriangleData@Gu@physx@@UEAAPEAXI@Z 000000018000ec90 f i TriangleMeshBuilder.obj
 0001:0000dd10       ??_ERTreeTriangleMeshBuilder@physx@@UEAAPEAXI@Z 000000018000ed10 f i TriangleMeshBuilder.obj
 0001:0000dd10       ??_GRTreeTriangleMeshBuilder@physx@@UEAAPEAXI@Z 000000018000ed10 f i TriangleMeshBuilder.obj
 0001:0000dd70       ??_GRemapCallback@RTreeCooker@physx@@UEAAPEAXI@Z 000000018000ed70 f i TriangleMeshBuilder.obj
 0001:0000dd70       ??_ERemapCallback@RTreeCooker@physx@@UEAAPEAXI@Z 000000018000ed70 f i TriangleMeshBuilder.obj
 0001:0000ddb0       ??_GTriangleMeshBuilder@physx@@UEAAPEAXI@Z 000000018000edb0 f i TriangleMeshBuilder.obj
 0001:0000ddb0       ??_ETriangleMeshBuilder@physx@@UEAAPEAXI@Z 000000018000edb0 f i TriangleMeshBuilder.obj
 0001:0000de00       ??_ETriangleMeshData@Gu@physx@@UEAAPEAXI@Z 000000018000ee00 f i TriangleMeshBuilder.obj
 0001:0000de00       ??_GTriangleMeshData@Gu@physx@@UEAAPEAXI@Z 000000018000ee00 f i TriangleMeshBuilder.obj
 0001:0000de80       ?allocateTriangles@TriangleMeshData@Gu@physx@@QEAAPEAXI_NI@Z 000000018000ee80 f i TriangleMeshBuilder.obj
 0001:0000df90       ?allocateVertices@TriangleMeshData@Gu@physx@@QEAAPEAVPxVec3@3@I@Z 000000018000ef90 f i TriangleMeshBuilder.obj
 0001:0000e840       ?getMidphaseID@BV4TriangleMeshBuilder@physx@@UEBA?AW4Enum@PxMeshMidPhase@2@XZ 000000018000f840 f i TriangleMeshBuilder.obj
 0001:0000e850       ?getMidphaseID@RTreeTriangleMeshBuilder@physx@@UEBA?AW4Enum@PxMeshMidPhase@2@XZ 000000018000f850 f i TriangleMeshBuilder.obj
 0001:0000e860       ?growAndPushBack@?$Array@USortedNeighbor@GrbTrimeshCookerHelper@physx@@VNamedAllocator@shdfnd@3@@shdfnd@physx@@IEAAAEAUSortedNeighbor@GrbTrimeshCookerHelper@3@AEBU453@@Z 000000018000f860 f i TriangleMeshBuilder.obj
 0001:0000e990       ?onMeshIndexFormatChange@TriangleMeshBuilder@physx@@UEAAXXZ 000000018000f990 f i TriangleMeshBuilder.obj
 0001:0000e9a0       ?recreate@?$Array@USharpEdgeRange@GrbTrimeshCookerHelper@physx@@VNamedAllocator@shdfnd@3@@shdfnd@physx@@IEAAXI@Z 000000018000f9a0 f i TriangleMeshBuilder.obj
 0001:0000eab0       ?recreate@?$Array@USortedNeighbor@GrbTrimeshCookerHelper@physx@@VNamedAllocator@shdfnd@3@@shdfnd@physx@@IEAAXI@Z 000000018000fab0 f i TriangleMeshBuilder.obj
 0001:0000ebd0       ?remap@RTreeCookerRemap@physx@@UEAAXPEAIII@Z 000000018000fbd0 f i TriangleMeshBuilder.obj
 0001:0000ebf0       ?resize@?$Array@USharpEdgeRange@GrbTrimeshCookerHelper@physx@@VNamedAllocator@shdfnd@3@@shdfnd@physx@@QEAAXIAEBUSharpEdgeRange@GrbTrimeshCookerHelper@3@@Z 000000018000fbf0 f i TriangleMeshBuilder.obj
 0001:0000ed00       ?resizeUninitialized@?$Array@USortedNeighbor@GrbTrimeshCookerHelper@physx@@VNamedAllocator@shdfnd@3@@shdfnd@physx@@QEAAXI@Z 000000018000fd00 f i TriangleMeshBuilder.obj
 0001:0000ed50       ??0BigConvexDataBuilder@physx@@QEAA@PEBUConvexHullData@Gu@1@PEAVBigConvexData@1@PEBVPxVec3@1@@Z 000000018000fd50 f   BigConvexDataBuilder.obj
 0001:0000ed70       ??1BigConvexDataBuilder@physx@@QEAA@XZ 000000018000fd70 f   BigConvexDataBuilder.obj
 0001:0000ed80       ?precompute@BigConvexDataBuilder@physx@@QEAA_NI@Z 000000018000fd80 f   BigConvexDataBuilder.obj
 0001:0000f9d0       ?initialize@BigConvexDataBuilder@physx@@QEAA_NXZ 00000001800109d0 f   BigConvexDataBuilder.obj
 0001:0000fa80       ?save@BigConvexDataBuilder@physx@@QEBA_NAEAVPxOutputStream@2@_N@Z 0000000180010a80 f   BigConvexDataBuilder.obj
 0001:0000fcd0       ?computeValencies@BigConvexDataBuilder@physx@@QEAA_NAEBVConvexHullBuilder@2@@Z 0000000180010cd0 f   BigConvexDataBuilder.obj
 0001:000100d0       ?saveValencies@BigConvexDataBuilder@physx@@QEBA_NAEAVPxOutputStream@2@_N@Z 00000001800110d0 f   BigConvexDataBuilder.obj
 0001:000107c0       ??0ConvexHullBuilder@physx@@QEAA@PEAUConvexHullData@Gu@1@_N@Z 00000001800117c0 f   ConvexHullBuilder.obj
 0001:000107f0       ??1ConvexHullBuilder@physx@@QEAA@XZ 00000001800117f0 f   ConvexHullBuilder.obj
 0001:00010900       ?init@ConvexHullBuilder@physx@@QEAA_NIPEBVPxVec3@2@PEBIIIPEBUPxHullPolygon@2@_NPEAVConvexHullLib@2@@Z 0000000180011900 f   ConvexHullBuilder.obj
 0001:00010ce0       ?save@ConvexHullBuilder@physx@@QEBA_NAEAVPxOutputStream@2@_N@Z 0000000180011ce0 f   ConvexHullBuilder.obj
 0001:00011020       ?copy@ConvexHullBuilder@physx@@QEAA_NAEAUConvexHullData@Gu@2@AEAI@Z 0000000180012020 f   ConvexHullBuilder.obj
 0001:00011290       ?createEdgeList@ConvexHullBuilder@physx@@QEAA_N_NI@Z 0000000180012290 f   ConvexHullBuilder.obj
 0001:00011aa0       ?checkHullPolygons@ConvexHullBuilder@physx@@QEBA_NXZ 0000000180012aa0 f   ConvexHullBuilder.obj
 0001:00012080       ?calculateVertexMapTable@ConvexHullBuilder@physx@@QEAA_NI_N@Z 0000000180013080 f   ConvexHullBuilder.obj
 0001:00012240       ?computeGeomCenter@ConvexHullBuilder@physx@@IEBA_NAEAVPxVec3@2@IPEAUHullTriangleData@2@@Z 0000000180013240 f   ConvexHullBuilder.obj
 0001:00012c50       ??$?_UE@@YAPEAX_KV?$ReflectionAllocator@E@shdfnd@physx@@PEBDH@Z 0000000180013c50 f i ConvexHullBuilder.obj
 0001:00012d10       ??0PxVec3@physx@@QEAA@XZ   0000000180013d10 f i ConvexHullBuilder.obj
 0001:00012d20       ??1ConvexHullLib@physx@@UEAA@XZ 0000000180013d20 f   ConvexHullLib.obj
 0001:00012d80       ?cleanupVertices@ConvexHullLib@physx@@IEAA_NIPEBVPxVec3@2@IAEAIPEAV32@AEAV32@3@Z 0000000180013d80 f   ConvexHullLib.obj
 0001:000131d0       ?shiftAndcleanupVertices@ConvexHullLib@physx@@IEAA_NIPEBVPxVec3@2@IAEAIPEAV32@AEAV32@3@Z 00000001800141d0 f   ConvexHullLib.obj
 0001:000136e0       ?swapLargestFace@ConvexHullLib@physx@@IEAAXAEAVPxConvexMeshDesc@2@@Z 00000001800146e0 f   ConvexHullLib.obj
 0001:000138d0       ?shiftConvexMeshDesc@ConvexHullLib@physx@@IEAAXAEAVPxConvexMeshDesc@2@@Z 00000001800148d0 f   ConvexHullLib.obj
 0001:00013cb0       ??_EConvexHullLib@physx@@UEAAPEAXI@Z 0000000180014cb0 f i ConvexHullLib.obj
 0001:00013cb0       ??_GConvexHullLib@physx@@UEAAPEAXI@Z 0000000180014cb0 f i ConvexHullLib.obj
 0001:00014380       ??0ConvexHull@physx@@QEAA@AEBVPxVec3@1@0AEBV?$Array@VPxPlane@physx@@VNamedAllocator@shdfnd@2@@shdfnd@1@@Z 0000000180015380 f   ConvexHullUtils.obj
 0001:00014df0       ??0ConvexHull@physx@@QEAA@AEBVPxVec3@1@AEBVPxTransform@1@AEBV?$Array@VPxPlane@physx@@VNamedAllocator@shdfnd@2@@shdfnd@1@@Z 0000000180015df0 f   ConvexHullUtils.obj
 0001:00016130       ?findCandidatePlane@ConvexHull@physx@@QEBAHMM@Z 0000000180017130 f   ConvexHullUtils.obj
 0001:00016590       ?assertIntact@ConvexHull@physx@@QEBA_NM@Z 0000000180017590 f   ConvexHullUtils.obj
 0001:000168b0       ?maxNumVertsPerFace@ConvexHull@physx@@QEBAIXZ 00000001800178b0 f   ConvexHullUtils.obj
 0001:00016930       ?convexHullCrop@physx@@YAPEAVConvexHull@1@AEBV21@AEBVPxPlane@1@M@Z 0000000180017930 f   ConvexHullUtils.obj
 0001:000177c0       ?computeOBBFromConvex@physx@@YA_NAEBVPxConvexMeshDesc@1@AEAVPxVec3@1@AEAVPxTransform@1@@Z 00000001800187c0 f   ConvexHullUtils.obj
 0001:00017eb0       ?computeOBBSIMD@local@@YAXIPEBT__m128@@AEAT2@AEBT2@1@Z 0000000180018eb0 f   ConvexHullUtils.obj
 0001:00019070       ??0HalfEdge@ConvexHull@physx@@QEAA@XZ 000000018001a070 f i ConvexHullUtils.obj
 0001:00019080       ??0PxPlane@physx@@QEAA@XZ  000000018001a080 f i ConvexHullUtils.obj
 0001:00019090       ?copy@?$Array@VPxPlane@physx@@VNamedAllocator@shdfnd@2@@shdfnd@physx@@KAXPEAVPxPlane@3@0PEBV43@@Z 000000018001a090 f i ConvexHullUtils.obj
 0001:000191d0       ?getInverse@PxMat33@physx@@QEBA?BV12@XZ 000000018001a1d0 f i ConvexHullUtils.obj
 0001:000194b0       ?growAndPushBack@?$Array@VHalfEdge@ConvexHull@physx@@VNamedAllocator@shdfnd@3@@shdfnd@physx@@IEAAAEAVHalfEdge@ConvexHull@3@AEBV453@@Z 000000018001a4b0 f i ConvexHullUtils.obj
 0001:000195d0       ?growAndPushBack@?$Array@VPxPlane@physx@@VNamedAllocator@shdfnd@2@@shdfnd@physx@@IEAAAEAVPxPlane@3@AEBV43@@Z 000000018001a5d0 f i ConvexHullUtils.obj
 0001:000196f0       ?recreate@?$Array@VHalfEdge@ConvexHull@physx@@VNamedAllocator@shdfnd@3@@shdfnd@physx@@IEAAXI@Z 000000018001a6f0 f i ConvexHullUtils.obj
 0001:00019800       ?recreate@?$Array@VPxPlane@physx@@VNamedAllocator@shdfnd@2@@shdfnd@physx@@IEAAXI@Z 000000018001a800 f i ConvexHullUtils.obj
 0001:000198c0       ?resize@?$Array@VHalfEdge@ConvexHull@physx@@VNamedAllocator@shdfnd@3@@shdfnd@physx@@QEAAXIAEBVHalfEdge@ConvexHull@3@@Z 000000018001a8c0 f i ConvexHullUtils.obj
 0001:000199d0       ?resize@?$Array@VPxPlane@physx@@VNamedAllocator@shdfnd@2@@shdfnd@physx@@QEAAXIAEBVPxPlane@3@@Z 000000018001a9d0 f i ConvexHullUtils.obj
 0001:00019b30       ?resize@?$Array@VPxVec3@physx@@VNamedAllocator@shdfnd@2@@shdfnd@physx@@QEAAXIAEBVPxVec3@3@@Z 000000018001ab30 f i ConvexHullUtils.obj
 0001:00019c50       ??0ConvexMeshBuilder@physx@@QEAA@_N@Z 000000018001ac50 f   ConvexMeshBuilder.obj
 0001:00019cc0       ??1ConvexMeshBuilder@physx@@QEAA@XZ 000000018001acc0 f   ConvexMeshBuilder.obj
 0001:00019d20       ?build@ConvexMeshBuilder@physx@@QEAA_NAEBVPxConvexMeshDesc@2@I_NPEAVConvexHullLib@2@@Z 000000018001ad20 f   ConvexMeshBuilder.obj
 0001:0001a070       ?save@ConvexMeshBuilder@physx@@QEBA_NAEAVPxOutputStream@2@_N@Z 000000018001b070 f   ConvexMeshBuilder.obj
 0001:0001a2a0       ?copy@ConvexMeshBuilder@physx@@QEAA_NAEAUConvexHullData@Gu@2@AEAI@Z 000000018001b2a0 f   ConvexMeshBuilder.obj
 0001:0001a330       ?loadConvexHull@ConvexMeshBuilder@physx@@QEAA_NAEBVPxConvexMeshDesc@2@PEAVConvexHullLib@2@@Z 000000018001b330 f   ConvexMeshBuilder.obj
 0001:0001a5e0       ?computeHullPolygons@ConvexMeshBuilder@physx@@QEAA_NAEBIPEBVPxVec3@2@0PEBIAEAVPxAllocatorCallback@2@AEAIAEAPEAV32@4AEAPEAI4AEAPEAUPxHullPolygon@2@@Z 000000018001b5e0 f   ConvexMeshBuilder.obj
 0001:0001a800       ?computeGaussMaps@ConvexMeshBuilder@physx@@QEAA_NXZ 000000018001b800 f   ConvexMeshBuilder.obj
 0001:0001a920       ?computeMassInfo@ConvexMeshBuilder@physx@@QEAAX_N@Z 000000018001b920 f   ConvexMeshBuilder.obj
 0001:0001ad00       ?computeInternalObjects@ConvexMeshBuilder@physx@@QEAAXXZ 000000018001bd00 f   ConvexMeshBuilder.obj
 0001:0001b6d0       ?isFinite@PxVec3@physx@@QEBA_NXZ 000000018001c6d0 f i ConvexMeshBuilder.obj
 0001:0001b740       ??0ConvexPolygonsBuilder@physx@@QEAA@PEAUConvexHullData@Gu@1@_N@Z 000000018001c740 f   ConvexPolygonsBuilder.obj
 0001:0001b770       ??1ConvexPolygonsBuilder@physx@@QEAA@XZ 000000018001c770 f   ConvexPolygonsBuilder.obj
 0001:0001b7c0       ?computeHullPolygons@ConvexPolygonsBuilder@physx@@QEAA_NAEBIPEBVPxVec3@2@0PEBI@Z 000000018001c7c0 f   ConvexPolygonsBuilder.obj
 0001:0001ba80       ?createPolygonData@ConvexPolygonsBuilder@physx@@AEAA_NXZ 000000018001ca80 f   ConvexPolygonsBuilder.obj
 0001:0001c680       ?createTrianglesFromPolygons@ConvexPolygonsBuilder@physx@@AEAA_NXZ 000000018001d680 f   ConvexPolygonsBuilder.obj
 0001:0001d520       ??$?_UUHullTriangleData@physx@@@@YAPEAX_KV?$ReflectionAllocator@UHullTriangleData@physx@@@shdfnd@physx@@PEBDH@Z 000000018001e520 f i ConvexPolygonsBuilder.obj
 0001:0001d5e0       ??$copy@VNamedAllocator@shdfnd@physx@@@?$Array@VPair@@VNamedAllocator@shdfnd@physx@@@shdfnd@physx@@IEAAXAEBV012@@Z 000000018001e5e0 f i ConvexPolygonsBuilder.obj
 0001:000202a0       ?growAndPushBack@?$Array@VPair@@VNamedAllocator@shdfnd@physx@@@shdfnd@physx@@IEAAAEAVPair@@AEBV4@@Z 00000001800212a0 f i ConvexPolygonsBuilder.obj
 0001:000203e0       ??0InflationConvexHullLib@physx@@QEAA@AEBVPxConvexMeshDesc@1@AEBUPxCookingParams@1@@Z 00000001800213e0 f   InflationConvexHullLib.obj
 0001:00020420       ??1InflationConvexHullLib@physx@@UEAA@XZ 0000000180021420 f   InflationConvexHullLib.obj
 0001:000204b0       ?createConvexHull@InflationConvexHullLib@physx@@UEAA?AW4Enum@PxConvexMeshCookingResult@2@XZ 00000001800214b0 f   InflationConvexHullLib.obj
 0001:000205d0       ?fillConvexMeshDesc@InflationConvexHullLib@physx@@UEAAXAEAVPxConvexMeshDesc@2@@Z 00000001800215d0 f   InflationConvexHullLib.obj
 0001:00020650       ?computeHull@InflationConvexHullLib@physx@@IEAA?AW4ErrorCode@ConvexHullLibResult@2@IPEBVPxVec3@2@@Z 0000000180021650 f   InflationConvexHullLib.obj
 0001:00020890       ?calchull@InflationConvexHullLib@physx@@IEAA?AW4ErrorCode@ConvexHullLibResult@2@PEBVPxVec3@2@IAEAPEAVConvexHull@2@@Z 0000000180021890 f   InflationConvexHullLib.obj
 0001:00020b50       ?calchullgen@InflationConvexHullLib@physx@@IEAA?AW4ErrorCode@ConvexHullLibResult@2@PEBVPxVec3@2@IAEAVHullTriangles@local@@@Z 0000000180021b50 f   InflationConvexHullLib.obj
 0001:00021c00       ?calchullplanes@InflationConvexHullLib@physx@@IEAA_NPEBVPxVec3@2@AEAVHullTriangles@local@@AEAV?$Array@VPxPlane@physx@@VNamedAllocator@shdfnd@2@@shdfnd@2@@Z 0000000180022c00 f   InflationConvexHullLib.obj
 0001:00022320       ?overhull@InflationConvexHullLib@physx@@IEAA_NPEBVPxVec3@2@IAEBV?$Array@VPxPlane@physx@@VNamedAllocator@shdfnd@2@@shdfnd@2@AEAPEAVConvexHull@2@@Z 0000000180023320 f   InflationConvexHullLib.obj
 0001:000229a0       ?expandHull@InflationConvexHullLib@physx@@IEAA?AW4ErrorCode@ConvexHullLibResult@2@PEBVPxVec3@2@IAEBVHullTriangles@local@@AEAPEAVConvexHull@2@@Z 00000001800239a0 f   InflationConvexHullLib.obj
 0001:00023a90       ?expandHullOBB@InflationConvexHullLib@physx@@IEAA?AW4ErrorCode@ConvexHullLibResult@2@PEBVPxVec3@2@IAEBVHullTriangles@local@@AEAPEAVConvexHull@2@@Z 0000000180024a90 f   InflationConvexHullLib.obj
 0001:000241c0       ?maxIndexInDirFiltered@local@@YAHPEBVPxVec3@physx@@IAEBV23@PEA_N@Z 00000001800251c0 f   InflationConvexHullLib.obj
 0001:00024470       ?maxIndexInDirSterid@local@@YAHPEBVPxVec3@physx@@IAEBV23@AEAV?$Array@EVNamedAllocator@shdfnd@physx@@@shdfnd@3@@Z 0000000180025470 f   InflationConvexHullLib.obj
 0001:00025a60       ??_GConvexHull@physx@@QEAAPEAXI@Z 0000000180026a60 f i InflationConvexHullLib.obj
 0001:00025b70       ??_EInflationConvexHullLib@physx@@UEAAPEAXI@Z 0000000180026b70 f i InflationConvexHullLib.obj
 0001:00025b70       ??_GInflationConvexHullLib@physx@@UEAAPEAXI@Z 0000000180026b70 f i InflationConvexHullLib.obj
 0001:00025c70       ?b2bfix@HullTriangles@local@@IEAAXPEAVTri@2@0@Z 0000000180026c70 f i InflationConvexHullLib.obj
 0001:00026140       ?createEdgeList@InflationConvexHullLib@physx@@UEAA_NIPEBEPEAPEAEPEAPEAG2@Z 0000000180027140 f i InflationConvexHullLib.obj
 0001:00026150       ?createTri@HullTriangles@local@@QEAAPEAVTri@2@HHH@Z 0000000180027150 f i InflationConvexHullLib.obj
 0001:00026290       ?findExtrudable@HullTriangles@local@@QEBAPEAVTri@2@M@Z 0000000180027290 f i InflationConvexHullLib.obj
 0001:00026da0       ?getNormal@Tri@local@@QEBA?AVPxVec3@physx@@PEBV34@@Z 0000000180027da0 f i InflationConvexHullLib.obj
 0001:00026ef0       ?growAndPushBack@?$Array@EVNamedAllocator@shdfnd@physx@@@shdfnd@physx@@IEAAAEAEAEBE@Z 0000000180027ef0 f i InflationConvexHullLib.obj
 0001:00027030       ?growAndPushBack@?$Array@HVNamedAllocator@shdfnd@physx@@@shdfnd@physx@@IEAAAEAHAEBH@Z 0000000180028030 f i InflationConvexHullLib.obj
 0001:00027150       ?growAndPushBack@?$Array@PEAVTri@local@@VNamedAllocator@shdfnd@physx@@@shdfnd@physx@@IEAAAEAPEAVTri@local@@AEBQEAV45@@Z 0000000180028150 f i InflationConvexHullLib.obj
 0001:00027280       ?growAndPushBack@?$Array@UExpandPlane@local@@VNamedAllocator@shdfnd@physx@@@shdfnd@physx@@IEAAAEAUExpandPlane@local@@AEBU45@@Z 0000000180028280 f i InflationConvexHullLib.obj
 0001:00027640       ?neib@Tri@local@@QEAAAEAHHH@Z 0000000180028640 f i InflationConvexHullLib.obj
 0001:00027720       ?recreate@?$Array@EVNamedAllocator@shdfnd@physx@@@shdfnd@physx@@IEAAXI@Z 0000000180028720 f i InflationConvexHullLib.obj
 0001:00027830       ?recreate@?$Array@HVNamedAllocator@shdfnd@physx@@@shdfnd@physx@@IEAAXI@Z 0000000180028830 f i InflationConvexHullLib.obj
 0001:00027940       ?recreate@?$Array@PEAVTri@local@@VNamedAllocator@shdfnd@physx@@@shdfnd@physx@@IEAAXI@Z 0000000180028940 f i InflationConvexHullLib.obj
 0001:00027a50       ?removeb2b@HullTriangles@local@@IEAAXPEAVTri@2@0@Z 0000000180028a50 f i InflationConvexHullLib.obj
 0001:00027ae0       ?resize@?$Array@HVNamedAllocator@shdfnd@physx@@@shdfnd@physx@@QEAAXIAEBH@Z 0000000180028ae0 f i InflationConvexHullLib.obj
 0001:00027bf0       ??0QuickHullConvexHullLib@physx@@QEAA@AEBVPxConvexMeshDesc@1@AEBUPxCookingParams@1@@Z 0000000180028bf0 f   QuickHullConvexHullLib.obj
 0001:00027cf0       ??1QuickHullConvexHullLib@physx@@UEAA@XZ 0000000180028cf0 f   QuickHullConvexHullLib.obj
 0001:00027dc0       ?createConvexHull@QuickHullConvexHullLib@physx@@UEAA?AW4Enum@PxConvexMeshCookingResult@2@XZ 0000000180028dc0 f   QuickHullConvexHullLib.obj
 0001:00028370       ?fillConvexMeshDesc@QuickHullConvexHullLib@physx@@UEAAXAEAVPxConvexMeshDesc@2@@Z 0000000180029370 f   QuickHullConvexHullLib.obj
 0001:000283c0       ?createEdgeList@QuickHullConvexHullLib@physx@@UEAA_NIPEBEPEAPEAEPEAPEAG2@Z 00000001800293c0 f   QuickHullConvexHullLib.obj
 0001:00028600       ?expandHullOBB@QuickHullConvexHullLib@physx@@IEAA?AW4Enum@PxConvexMeshCookingResult@2@XZ 0000000180029600 f   QuickHullConvexHullLib.obj
 0001:00028a80       ?expandHull@QuickHullConvexHullLib@physx@@IEAA?AW4Enum@PxConvexMeshCookingResult@2@XZ 0000000180029a80 f   QuickHullConvexHullLib.obj
 0001:00029340       ?cleanupForSimplex@QuickHullConvexHullLib@physx@@IEAA_NPEAVPxVec3@2@IPEAUQuickHullVertex@local@@1AEAM2@Z 000000018002a340 f   QuickHullConvexHullLib.obj
 0001:00029ec0       ?fillConvexMeshDescFromQuickHull@QuickHullConvexHullLib@physx@@IEAAXAEAVPxConvexMeshDesc@2@@Z 000000018002aec0 f   QuickHullConvexHullLib.obj
 0001:0002a260       ?fillConvexMeshDescFromCroppedHull@QuickHullConvexHullLib@physx@@IEAAXAEAVPxConvexMeshDesc@2@@Z 000000018002b260 f   QuickHullConvexHullLib.obj
 0001:0002a460       ?getOppositeFaceDistance@QuickHullHalfEdge@local@@QEBAMXZ 000000018002b460 f   QuickHullConvexHullLib.obj
 0001:0002a4a0       ?mergeAdjacentFace@QuickHullFace@local@@QEAA_NPEAUQuickHullHalfEdge@2@AEAV?$Array@PEAUQuickHullFace@local@@VNamedAllocator@shdfnd@physx@@@shdfnd@physx@@@Z 000000018002b4a0 f   QuickHullConvexHullLib.obj
 0001:0002a8f0       ?checkFaceConsistency@QuickHullFace@local@@QEAA_NXZ 000000018002b8f0 f   QuickHullConvexHullLib.obj
 0001:0002a900       ?connectHalfEdges@QuickHullFace@local@@AEAAPEAU12@PEAUQuickHullHalfEdge@2@0@Z 000000018002b900 f   QuickHullConvexHullLib.obj
 0001:0002ac70       ??0QuickHull@local@@QEAA@AEBUPxCookingParams@physx@@AEBVPxConvexMeshDesc@3@@Z 000000018002bc70 f   QuickHullConvexHullLib.obj
 0001:0002ae80       ??1QuickHull@local@@QEAA@XZ 000000018002be80 f   QuickHullConvexHullLib.obj
 0001:0002afe0       ?preallocate@QuickHull@local@@QEAAXI@Z 000000018002bfe0 f   QuickHullConvexHullLib.obj
 0001:0002b130       ?parseInputVertices@QuickHull@local@@QEAAXPEBVPxVec3@physx@@I@Z 000000018002c130 f   QuickHullConvexHullLib.obj
 0001:0002b2a0       ?releaseHull@QuickHull@local@@QEAAXXZ 000000018002c2a0 f   QuickHullConvexHullLib.obj
 0001:0002b300       ?setPrecomputedMinMax@QuickHull@local@@QEAAXPEBUQuickHullVertex@2@0MM@Z 000000018002c300 f   QuickHullConvexHullLib.obj
 0001:0002b490       ?buildHull@QuickHull@local@@QEAA?AW4Enum@QuickHullResult@2@XZ 000000018002c490 f   QuickHullConvexHullLib.obj
 0001:0002b6f0       ?maxNumVertsPerFace@QuickHull@local@@QEBAIXZ 000000018002c6f0 f   QuickHullConvexHullLib.obj
 0001:0002b730       ?computeMinMaxVerts@QuickHull@local@@IEAAXXZ 000000018002c730 f   QuickHullConvexHullLib.obj
 0001:0002bb10       ?findSimplex@QuickHull@local@@IEAA_NXZ 000000018002cb10 f   QuickHullConvexHullLib.obj
 0001:0002c7b0       ?addSimplex@QuickHull@local@@IEAAXPEAUQuickHullVertex@2@_N@Z 000000018002d7b0 f   QuickHullConvexHullLib.obj
 0001:0002cc80       ?nextPointToAdd@QuickHull@local@@IEAAPEAUQuickHullVertex@2@AEAPEAUQuickHullFace@2@@Z 000000018002dc80 f   QuickHullConvexHullLib.obj
 0001:0002cde0       ?addPointToHull@QuickHull@local@@IEAA_NPEBUQuickHullVertex@2@AEAUQuickHullFace@2@AEA_N@Z 000000018002dde0 f   QuickHullConvexHullLib.obj
 0001:0002d1d0       ?createTriangle@QuickHull@local@@IEAAPEAUQuickHullFace@2@AEBUQuickHullVertex@2@00@Z 000000018002e1d0 f   QuickHullConvexHullLib.obj
 0001:0002d580       ?addPointToFace@QuickHull@local@@IEAAXAEAUQuickHullFace@2@PEAUQuickHullVertex@2@M@Z 000000018002e580 f   QuickHullConvexHullLib.obj
 0001:0002d5d0       ?removeEyePointFromFace@QuickHull@local@@IEAAXAEAUQuickHullFace@2@PEBUQuickHullVertex@2@@Z 000000018002e5d0 f   QuickHullConvexHullLib.obj
 0001:0002d5f0       ?calculateHorizon@QuickHull@local@@IEAAXAEBVPxVec3@physx@@PEAUQuickHullHalfEdge@2@AEAUQuickHullFace@2@AEAV?$Array@PEAUQuickHullHalfEdge@local@@VNamedAllocator@shdfnd@physx@@@shdfnd@4@AEAV?$Array@PEAUQuickHullFace@local@@VNamedAllocator@shdfnd@physx@@@84@@Z 000000018002e5f0 f   QuickHullConvexHullLib.obj
 0001:0002d7a0       ?addNewFacesFromHorizon@QuickHull@local@@IEAAXPEBUQuickHullVertex@2@AEBV?$Array@PEAUQuickHullHalfEdge@local@@VNamedAllocator@shdfnd@physx@@@shdfnd@physx@@AEAV?$Array@PEAUQuickHullFace@local@@VNamedAllocator@shdfnd@physx@@@56@@Z 000000018002e7a0 f   QuickHullConvexHullLib.obj
 0001:0002d8f0       ?doAdjacentMerge@QuickHull@local@@IEAA_NAEAUQuickHullFace@2@_NAEA_N@Z 000000018002e8f0 f   QuickHullConvexHullLib.obj
 0001:0002db60       ?doPostAdjacentMerge@QuickHull@local@@IEAA_NAEAUQuickHullFace@2@M@Z 000000018002eb60 f   QuickHullConvexHullLib.obj
 0001:0002dca0       ?deleteFacePoints@QuickHull@local@@IEAAXAEAUQuickHullFace@2@PEAU32@@Z 000000018002eca0 f   QuickHullConvexHullLib.obj
 0001:0002ddb0       ?resolveUnclaimedPoints@QuickHull@local@@IEAAXAEBV?$Array@PEAUQuickHullFace@local@@VNamedAllocator@shdfnd@physx@@@shdfnd@physx@@@Z 000000018002edb0 f   QuickHullConvexHullLib.obj
 0001:0002e000       ?postMergeHull@QuickHull@local@@IEAAXXZ 000000018002f000 f   QuickHullConvexHullLib.obj
 0001:0002e180       ?canMergeFaces@QuickHull@local@@IEAA_NAEBUQuickHullHalfEdge@2@@Z 000000018002f180 f   QuickHullConvexHullLib.obj
 0001:0002e9c0       ?getExpandPoint@local@@YAXAEBUQuickHullHalfEdge@1@AEAUExpandPoint@1@PEBV?$Array@IVNamedAllocator@shdfnd@physx@@@shdfnd@physx@@@Z 000000018002f9c0 f   QuickHullConvexHullLib.obj
 0001:0002ea50       ?addExpandPoint@local@@YAXAEBUExpandPoint@1@AEAV?$Array@UExpandPoint@local@@VNamedAllocator@shdfnd@physx@@@shdfnd@physx@@@Z 000000018002fa50 f   QuickHullConvexHullLib.obj
 0001:00030700       ??0PxPlane@physx@@QEAA@AEBV01@@Z 0000000180031700 f i QuickHullConvexHullLib.obj
 0001:00030720       ??0QuickHullVertex@local@@QEAA@XZ 0000000180031720 f i QuickHullConvexHullLib.obj
 0001:00030730       ??1?$MemBlock@UQuickHullFace@local@@$00@local@@QEAA@XZ 0000000180031730 f i QuickHullConvexHullLib.obj
 0001:000307e0       ??1?$MemBlock@UQuickHullHalfEdge@local@@$0A@@local@@QEAA@XZ 00000001800317e0 f i QuickHullConvexHullLib.obj
 0001:00030890       ??_GQuickHullConvexHullLib@physx@@UEAAPEAXI@Z 0000000180031890 f i QuickHullConvexHullLib.obj
 0001:00030890       ??_EQuickHullConvexHullLib@physx@@UEAAPEAXI@Z 0000000180031890 f i QuickHullConvexHullLib.obj
 0001:000309d0       ??__G@YAXPEAX0_K1P6APEAX00@Z@Z 00000001800319d0 f i QuickHullConvexHullLib.obj
 0001:00030a50       ?copy@?$Array@UExpandPoint@local@@VNamedAllocator@shdfnd@physx@@@shdfnd@physx@@KAXPEAUExpandPoint@local@@0PEBU45@@Z 0000000180031a50 f i QuickHullConvexHullLib.obj
 0001:00030b30       ?getFreeItem@?$MemBlock@UQuickHullFace@local@@$00@local@@QEAAPEAUQuickHullFace@2@XZ 0000000180031b30 f i QuickHullConvexHullLib.obj
 0001:00030cc0       ?getFreeItem@?$MemBlock@UQuickHullHalfEdge@local@@$0A@@local@@QEAAPEAUQuickHullHalfEdge@2@XZ 0000000180031cc0 f i QuickHullConvexHullLib.obj
 0001:00030de0       ?growAndPushBack@?$Array@PEAUQuickHullFace@local@@VNamedAllocator@shdfnd@physx@@@shdfnd@physx@@IEAAAEAPEAUQuickHullFace@local@@AEBQEAU45@@Z 0000000180031de0 f i QuickHullConvexHullLib.obj
 0001:00030f10       ?growAndPushBack@?$Array@PEAUQuickHullHalfEdge@local@@VNamedAllocator@shdfnd@physx@@@shdfnd@physx@@IEAAAEAPEAUQuickHullHalfEdge@local@@AEBQEAU45@@Z 0000000180031f10 f i QuickHullConvexHullLib.obj
 0001:00031040       ?growAndPushBack@?$Array@PEAUQuickHullVertex@local@@VNamedAllocator@shdfnd@physx@@@shdfnd@physx@@IEAAAEAPEAUQuickHullVertex@local@@AEBQEAU45@@Z 0000000180032040 f i QuickHullConvexHullLib.obj
 0001:00031170       ?growAndPushBack@?$Array@UExpandPoint@local@@VNamedAllocator@shdfnd@physx@@@shdfnd@physx@@IEAAAEAUExpandPoint@local@@AEBU45@@Z 0000000180032170 f i QuickHullConvexHullLib.obj
 0001:000312e0       ?init@?$MemBlock@UQuickHullFace@local@@$00@local@@QEAAXI@Z 00000001800322e0 f i QuickHullConvexHullLib.obj
 0001:000313f0       ?init@?$MemBlock@UQuickHullHalfEdge@local@@$0A@@local@@QEAAXI@Z 00000001800323f0 f i QuickHullConvexHullLib.obj
 0001:000314b0       ?recreate@?$Array@PEAUQuickHullFace@local@@VNamedAllocator@shdfnd@physx@@@shdfnd@physx@@IEAAXI@Z 00000001800324b0 f i QuickHullConvexHullLib.obj
 0001:000315c0       ?recreate@?$Array@PEAUQuickHullHalfEdge@local@@VNamedAllocator@shdfnd@physx@@@shdfnd@physx@@IEAAXI@Z 00000001800325c0 f i QuickHullConvexHullLib.obj
 0001:000316d0       ?recreate@?$Array@PEAUQuickHullVertex@local@@VNamedAllocator@shdfnd@physx@@@shdfnd@physx@@IEAAXI@Z 00000001800326d0 f i QuickHullConvexHullLib.obj
 0001:000317e0       ?recreate@?$Array@UExpandPoint@local@@VNamedAllocator@shdfnd@physx@@@shdfnd@physx@@IEAAXI@Z 00000001800327e0 f i QuickHullConvexHullLib.obj
 0001:000318a0       ?computeVolumeIntegrals@physx@@YA_NAEBVPxSimpleTriangleMesh@1@MAEAUPxIntegrals@1@@Z 00000001800328a0 f   VolumeIntegration.obj
 0001:00031910       ?computeVolumeIntegralsEberly@physx@@YA_NAEBVPxConvexMeshDesc@1@MAEAUPxIntegrals@1@AEBVPxVec3@1@@Z 0000000180032910 f   VolumeIntegration.obj
 0001:00031960       ?computeVolumeIntegralsEberlySIMD@physx@@YA_NAEBVPxConvexMeshDesc@1@MAEAUPxIntegrals@1@AEBVPxVec3@1@@Z 0000000180032960 f   VolumeIntegration.obj
 0001:00034710       ?ComputeNbBoundaryEdges@AdjTriangle@physx@@QEBAIXZ 0000000180035710 f   Adjacencies.obj
 0001:00034760       ?ComputeNbNeighbors@AdjTriangle@physx@@QEBAIXZ 0000000180035760 f   Adjacencies.obj
 0001:000347b0       ?HasNeighbor@AdjTriangle@physx@@QEBA_NIPEAI@Z 00000001800357b0 f   Adjacencies.obj
 0001:00034820       ?Flip@AdjTriangle@physx@@QEAAXXZ 0000000180035820 f   Adjacencies.obj
 0001:00034840       ??0Adjacencies@physx@@QEAA@XZ 0000000180035840 f   Adjacencies.obj
 0001:00034860       ??1Adjacencies@physx@@QEAA@XZ 0000000180035860 f   Adjacencies.obj
 0001:000348d0       ?Load@Adjacencies@physx@@QEAA_NAEAVPxInputStream@2@@Z 00000001800358d0 f   Adjacencies.obj
 0001:000349b0       ?ComputeNbBoundaryEdges@Adjacencies@physx@@QEBAIXZ 00000001800359b0 f   Adjacencies.obj
 0001:00034a30       ?GetBoundaryVertices@Adjacencies@physx@@QEBA_NIPEA_NPEBU?$TriangleT@I@Gu@2@@Z 0000000180035a30 f   Adjacencies.obj
 0001:00034b90       ?MakeLastRef@Adjacencies@physx@@QEAA_NAEAVAdjTriangle@2@IPEAU?$TriangleT@I@Gu@2@@Z 0000000180035b90 f   Adjacencies.obj
 0001:00034de0       ?AssignNewEdgeCode@Adjacencies@physx@@AEAAXIE@Z 0000000180035de0 f   Adjacencies.obj
 0001:00034e30       ??0AdjacenciesBuilder@physx@@QEAA@XZ 0000000180035e30 f   Adjacencies.obj
 0001:00034e50       ??1AdjacenciesBuilder@physx@@QEAA@XZ 0000000180035e50 f   Adjacencies.obj
 0001:00034e60       ?Init@AdjacenciesBuilder@physx@@QEAA_NAEBUADJACENCIESCREATE@2@@Z 0000000180035e60 f   Adjacencies.obj
 0001:00035490       ??$?_UV?$ReflectionAllocator@VAdjTriangle@physx@@@shdfnd@physx@@@UserAllocated@shdfnd@physx@@SAPEAX_KV?$ReflectionAllocator@VAdjTriangle@physx@@@12@PEBDH@Z 0000000180036490 f i Adjacencies.obj
 0001:00035550       ??0AdjEdge@@QEAA@XZ        0000000180036550 f i Adjacencies.obj
 0001:00035560       ??0AdjTriangle@physx@@QEAA@XZ 0000000180036560 f i Adjacencies.obj
 0001:00035570       ??1AdjEdge@@QEAA@XZ        0000000180036570 f i Adjacencies.obj
 0001:00035580       ??1AdjTriangle@physx@@QEAA@XZ 0000000180036580 f i Adjacencies.obj
 0001:00035590       ??_EAdjEdge@@QEAAPEAXI@Z   0000000180036590 f i Adjacencies.obj
 0001:00035630       ??_EAdjTriangle@physx@@QEAAPEAXI@Z 0000000180036630 f i Adjacencies.obj
 0001:000356d0       ??_I@YAXPEAX_K1P6AX0@Z@Z   00000001800366d0 f i Adjacencies.obj
 0001:00035d20       PxCreateCooking            0000000180036d20 f   Cooking.obj
 0001:00035e40       ?release@Cooking@physx@@UEAAXXZ 0000000180036e40 f   Cooking.obj
 0001:00035e70       ?setParams@Cooking@physx@@UEAAXAEBUPxCookingParams@2@@Z 0000000180036e70 f   Cooking.obj
 0001:00035ef0       ?getParams@Cooking@physx@@UEBAAEBUPxCookingParams@2@XZ 0000000180036ef0 f   Cooking.obj
 0001:00035f00       ?platformMismatch@Cooking@physx@@UEBA_NXZ 0000000180036f00 f   Cooking.obj
 0001:00035f20       ?cookTriangleMesh@Cooking@physx@@UEBA_NAEBVPxTriangleMeshDesc@2@AEAVPxOutputStream@2@PEAW4Enum@PxTriangleMeshCookingResult@2@@Z 0000000180036f20 f   Cooking.obj
 0001:00036090       ?createTriangleMesh@Cooking@physx@@UEBAPEAVPxTriangleMesh@2@AEBVPxTriangleMeshDesc@2@AEAVPxPhysicsInsertionCallback@2@PEAW4Enum@PxTriangleMeshCookingResult@2@@Z 0000000180037090 f   Cooking.obj
 0001:00036200       ?validateTriangleMesh@Cooking@physx@@UEBA_NAEBVPxTriangleMeshDesc@2@@Z 0000000180037200 f   Cooking.obj
 0001:00036310       ?cookConvexMesh@Cooking@physx@@UEBA_NAEBVPxConvexMeshDesc@2@AEAVPxOutputStream@2@PEAW4Enum@PxConvexMeshCookingResult@2@@Z 0000000180037310 f   Cooking.obj
 0001:00036580       ?createConvexMesh@Cooking@physx@@UEBAPEAVPxConvexMesh@2@AEBVPxConvexMeshDesc@2@AEAVPxPhysicsInsertionCallback@2@PEAW4Enum@PxConvexMeshCookingResult@2@@Z 0000000180037580 f   Cooking.obj
 0001:000368a0       ?validateConvexMesh@Cooking@physx@@UEBA_NAEBVPxConvexMeshDesc@2@@Z 00000001800378a0 f   Cooking.obj
 0001:00036910       ?computeHullPolygons@Cooking@physx@@UEBA_NAEBVPxSimpleTriangleMesh@2@AEAVPxAllocatorCallback@2@AEAIAEAPEAVPxVec3@2@2AEAPEAI2AEAPEAUPxHullPolygon@2@@Z 0000000180037910 f   Cooking.obj
 0001:00036af0       ?cookHeightField@Cooking@physx@@UEBA_NAEBVPxHeightFieldDesc@2@AEAVPxOutputStream@2@@Z 0000000180037af0 f   Cooking.obj
 0001:00036c40       ?createHeightField@Cooking@physx@@UEBAPEAVPxHeightField@2@AEBVPxHeightFieldDesc@2@AEAVPxPhysicsInsertionCallback@2@@Z 0000000180037c40 f   Cooking.obj
 0001:00036e40       ?cookConvexMeshInternal@Cooking@physx@@AEBA_NAEBVPxConvexMeshDesc@2@AEAVConvexMeshBuilder@2@PEAVConvexHullLib@2@PEAW4Enum@PxConvexMeshCookingResult@2@@Z 0000000180037e40 f   Cooking.obj
 0001:00037120       ?cookTriangleMesh@Cooking@physx@@AEBA_NAEAVTriangleMeshBuilder@2@AEBVPxTriangleMeshDesc@2@AEAVPxOutputStream@2@PEAW4Enum@PxTriangleMeshCookingResult@2@@Z 0000000180038120 f   Cooking.obj
 0001:000371c0       ?createTriangleMesh@Cooking@physx@@AEBAPEAVPxTriangleMesh@2@AEAVTriangleMeshBuilder@2@AEBVPxTriangleMeshDesc@2@AEAVPxPhysicsInsertionCallback@2@PEAW4Enum@PxTriangleMeshCookingResult@2@@Z 00000001800381c0 f   Cooking.obj
 0001:000377c0       ??1PxCooking@physx@@MEAA@XZ 00000001800387c0 f i Cooking.obj
 0001:000377d0       ??_GCooking@physx@@UEAAPEAXI@Z 00000001800387d0 f i Cooking.obj
 0001:000377d0       ??_ECooking@physx@@UEAAPEAXI@Z 00000001800387d0 f i Cooking.obj
 0001:00037830       ??_GPxCooking@physx@@MEAAPEAXI@Z 0000000180038830 f i Cooking.obj
 0001:00037830       ??_EPxCooking@physx@@MEAAPEAXI@Z 0000000180038830 f i Cooking.obj
 0001:00037870       ??0ReducedVertexCloud@physx@@QEAA@PEBVPxVec3@1@I@Z 0000000180038870 f   CookingUtils.obj
 0001:00037890       ??1ReducedVertexCloud@physx@@QEAA@XZ 0000000180038890 f   CookingUtils.obj
 0001:000378a0       ?Clean@ReducedVertexCloud@physx@@QEAAAEAV12@XZ 00000001800388a0 f   CookingUtils.obj
 0001:00037910       ?Reduce@ReducedVertexCloud@physx@@QEAA_NPEAUREDUCEDCLOUD@2@@Z 0000000180038910 f   CookingUtils.obj
 0001:00037d30       ??0EdgeList@Gu@physx@@QEAA@XZ 0000000180038d30 f   EdgeList.obj
 0001:00037d50       ??1EdgeList@Gu@physx@@QEAA@XZ 0000000180038d50 f   EdgeList.obj
 0001:00037e00       ?load@EdgeList@Gu@physx@@QEAA_NAEAVPxInputStream@3@@Z 0000000180038e00 f   EdgeList.obj
 0001:00038020       ??0EdgeListBuilder@Gu@physx@@QEAA@XZ 0000000180039020 f   EdgeList.obj
 0001:00038040       ??1EdgeListBuilder@Gu@physx@@QEAA@XZ 0000000180039040 f   EdgeList.obj
 0001:00038050       ?init@EdgeListBuilder@Gu@physx@@QEAA_NAEBUEDGELISTCREATE@23@@Z 0000000180039050 f   EdgeList.obj
 0001:00038190       ?createFacesToEdges@EdgeListBuilder@Gu@physx@@AEAA_NIPEBIPEBG@Z 0000000180039190 f   EdgeList.obj
 0001:00038600       ?createEdgesToFaces@EdgeListBuilder@Gu@physx@@AEAA_NIPEBIPEBG@Z 0000000180039600 f   EdgeList.obj
 0001:00038860       ?computeActiveEdges@EdgeListBuilder@Gu@physx@@AEAA_NIPEBIPEBGPEBVPxVec3@3@M@Z 0000000180039860 f   EdgeList.obj
 0001:0003a740       ??0MeshCleaner@physx@@QEAA@IPEBVPxVec3@1@IPEBIM@Z 000000018003b740 f   MeshCleaner.obj
 0001:0003b110       ??1MeshCleaner@physx@@QEAA@XZ 000000018003c110 f   MeshCleaner.obj
 0001:0003b430       ?createQuantizer@physx@@YAPEAVQuantizer@1@XZ 000000018003c430 f   Quantizer.obj
 0001:0003b560       ?kmeans_cluster3d@@YAIPEBVPxVec3@physx@@IIPEAV12@PEAIMM@Z 000000018003c560 f   Quantizer.obj
 0001:0003b5c0       ??$kmeans_cluster@VPxVec3@physx@@M@@YAIPEBVPxVec3@physx@@IIPEAV01@PEAIMM@Z 000000018003c5c0 f i Quantizer.obj
 0001:0003c0d0       ??1Quantizer@physx@@MEAA@XZ 000000018003d0d0 f i Quantizer.obj
 0001:0003c0e0       ??1QuantizerImpl@@EEAA@XZ  000000018003d0e0 f i Quantizer.obj
 0001:0003c180       ??_GQuantizer@physx@@MEAAPEAXI@Z 000000018003d180 f i Quantizer.obj
 0001:0003c180       ??_EQuantizer@physx@@MEAAPEAXI@Z 000000018003d180 f i Quantizer.obj
 0001:0003c1c0       ??_EQuantizerImpl@@EEAAPEAXI@Z 000000018003d1c0 f i Quantizer.obj
 0001:0003c1c0       ??_GQuantizerImpl@@EEAAPEAXI@Z 000000018003d1c0 f i Quantizer.obj
 0001:0003c2c0       ?getDenormalizeCenter@QuantizerImpl@@UEBAAEBVPxVec3@physx@@XZ 000000018003d2c0 f i Quantizer.obj
 0001:0003c2d0       ?getDenormalizeScale@QuantizerImpl@@UEBAAEBVPxVec3@physx@@XZ 000000018003d2d0 f i Quantizer.obj
 0001:0003c2e0       ?kmeansQuantize3D@QuantizerImpl@@UEAAPEBVPxVec3@physx@@IPEBV23@I_NIAEAI@Z 000000018003d2e0 f i Quantizer.obj
 0001:0003c620       ?normalizeInput@QuantizerImpl@@AEAAXIPEBVPxVec3@physx@@I@Z 000000018003d620 f i Quantizer.obj
 0001:0003cb70       ?release@QuantizerImpl@@UEAAXXZ 000000018003db70 f i Quantizer.obj
 0001:0003cb86       LoadLibraryA               000000018003db86 f   kernel32:KERNEL32.dll
 0001:0003cb8c       __imp_load_?getAllocator@shdfnd@physx@@YAAEAVPxAllocatorCallback@2@XZ 000000018003db8c f   PxFoundationCHECKED_x64:PxFoundationCHECKED_x64.dll
 0001:0003cb98       ?getAllocator@shdfnd@physx@@YAAEAVPxAllocatorCallback@2@XZ 000000018003db98 f   PxFoundationCHECKED_x64:PxFoundationCHECKED_x64.dll
 0001:0003cb9e       __tailMerge_pxfoundationchecked_x64_dll 000000018003db9e     PxFoundationCHECKED_x64:PxFoundationCHECKED_x64.dll
 0001:0003cc17       __imp_load_??0NamedAllocator@shdfnd@physx@@QEAA@PEBD@Z 000000018003dc17 f   PxFoundationCHECKED_x64:PxFoundationCHECKED_x64.dll
 0001:0003cc23       ??0NamedAllocator@shdfnd@physx@@QEAA@PEBD@Z 000000018003dc23 f   PxFoundationCHECKED_x64:PxFoundationCHECKED_x64.dll
 0001:0003cc29       __imp_load_??0NamedAllocator@shdfnd@physx@@QEAA@AEBV012@@Z 000000018003dc29 f   PxFoundationCHECKED_x64:PxFoundationCHECKED_x64.dll
 0001:0003cc35       ??0NamedAllocator@shdfnd@physx@@QEAA@AEBV012@@Z 000000018003dc35 f   PxFoundationCHECKED_x64:PxFoundationCHECKED_x64.dll
 0001:0003cc3b       __imp_load_??1NamedAllocator@shdfnd@physx@@QEAA@XZ 000000018003dc3b f   PxFoundationCHECKED_x64:PxFoundationCHECKED_x64.dll
 0001:0003cc47       ??1NamedAllocator@shdfnd@physx@@QEAA@XZ 000000018003dc47 f   PxFoundationCHECKED_x64:PxFoundationCHECKED_x64.dll
 0001:0003cc4d       __imp_load_?allocate@NamedAllocator@shdfnd@physx@@QEAAPEAX_KPEBDH@Z 000000018003dc4d f   PxFoundationCHECKED_x64:PxFoundationCHECKED_x64.dll
 0001:0003cc59       ?allocate@NamedAllocator@shdfnd@physx@@QEAAPEAX_KPEBDH@Z 000000018003dc59 f   PxFoundationCHECKED_x64:PxFoundationCHECKED_x64.dll
 0001:0003cc5f       __imp_load_?deallocate@NamedAllocator@shdfnd@physx@@QEAAXPEAX@Z 000000018003dc5f f   PxFoundationCHECKED_x64:PxFoundationCHECKED_x64.dll
 0001:0003cc6b       ?deallocate@NamedAllocator@shdfnd@physx@@QEAAXPEAX@Z 000000018003dc6b f   PxFoundationCHECKED_x64:PxFoundationCHECKED_x64.dll
 0001:0003cc71       __imp_load_?allocate@TempAllocator@shdfnd@physx@@QEAAPEAX_KPEBDH@Z 000000018003dc71 f   PxFoundationCHECKED_x64:PxFoundationCHECKED_x64.dll
 0001:0003cc7d       ?allocate@TempAllocator@shdfnd@physx@@QEAAPEAX_KPEBDH@Z 000000018003dc7d f   PxFoundationCHECKED_x64:PxFoundationCHECKED_x64.dll
 0001:0003cc83       __imp_load_?deallocate@TempAllocator@shdfnd@physx@@QEAAXPEAX@Z 000000018003dc83 f   PxFoundationCHECKED_x64:PxFoundationCHECKED_x64.dll
 0001:0003cc8f       ?deallocate@TempAllocator@shdfnd@physx@@QEAAXPEAX@Z 000000018003dc8f f   PxFoundationCHECKED_x64:PxFoundationCHECKED_x64.dll
 0001:0003cc95       __imp_load_PxGetFoundation 000000018003dc95 f   PxFoundationCHECKED_x64:PxFoundationCHECKED_x64.dll
 0001:0003cca1       PxGetFoundation            000000018003dca1 f   PxFoundationCHECKED_x64:PxFoundationCHECKED_x64.dll
 0001:0003cca7       __imp_load_?getInstance@Foundation@shdfnd@physx@@SAAEAV123@XZ 000000018003dca7 f   PxFoundationCHECKED_x64:PxFoundationCHECKED_x64.dll
 0001:0003ccb3       ?getInstance@Foundation@shdfnd@physx@@SAAEAV123@XZ 000000018003dcb3 f   PxFoundationCHECKED_x64:PxFoundationCHECKED_x64.dll
 0001:0003ccb9       __imp_load_?error@Foundation@shdfnd@physx@@QEAAXW4Enum@PxErrorCode@3@PEBDH1ZZ 000000018003dcb9 f   PxFoundationCHECKED_x64:PxFoundationCHECKED_x64.dll
 0001:0003ccc5       ?error@Foundation@shdfnd@physx@@QEAAXW4Enum@PxErrorCode@3@PEBDH1ZZ 000000018003dcc5 f   PxFoundationCHECKED_x64:PxFoundationCHECKED_x64.dll
 0001:0003cccb       __imp_load_?PxDiagonalize@physx@@YA?AVPxVec3@1@AEBVPxMat33@1@AEAVPxQuat@1@@Z 000000018003dccb f   PxFoundationCHECKED_x64:PxFoundationCHECKED_x64.dll
 0001:0003ccd7       ?PxDiagonalize@physx@@YA?AVPxVec3@1@AEBVPxMat33@1@AEAVPxQuat@1@@Z 000000018003dcd7 f   PxFoundationCHECKED_x64:PxFoundationCHECKED_x64.dll
 0001:0003ccdd       __imp_load_?incRefCount@Foundation@shdfnd@physx@@SAXXZ 000000018003dcdd f   PxFoundationCHECKED_x64:PxFoundationCHECKED_x64.dll
 0001:0003cce9       ?incRefCount@Foundation@shdfnd@physx@@SAXXZ 000000018003dce9 f   PxFoundationCHECKED_x64:PxFoundationCHECKED_x64.dll
 0001:0003ccef       __imp_load_?decRefCount@Foundation@shdfnd@physx@@SAXXZ 000000018003dcef f   PxFoundationCHECKED_x64:PxFoundationCHECKED_x64.dll
 0001:0003ccfb       ?decRefCount@Foundation@shdfnd@physx@@SAXXZ 000000018003dcfb f   PxFoundationCHECKED_x64:PxFoundationCHECKED_x64.dll
 0001:0003cd01       __imp_load_??0FPUGuard@shdfnd@physx@@QEAA@XZ 000000018003dd01 f   PxFoundationCHECKED_x64:PxFoundationCHECKED_x64.dll
 0001:0003cd0d       ??0FPUGuard@shdfnd@physx@@QEAA@XZ 000000018003dd0d f   PxFoundationCHECKED_x64:PxFoundationCHECKED_x64.dll
 0001:0003cd13       __imp_load_??1FPUGuard@shdfnd@physx@@QEAA@XZ 000000018003dd13 f   PxFoundationCHECKED_x64:PxFoundationCHECKED_x64.dll
 0001:0003cd1f       ??1FPUGuard@shdfnd@physx@@QEAA@XZ 000000018003dd1f f   PxFoundationCHECKED_x64:PxFoundationCHECKED_x64.dll
 0001:0003cd25       __imp_load_?writeWord@physx@@YAXG_NAEAVPxOutputStream@1@@Z 000000018003dd25 f   PhysX3CommonCHECKED_x64:PhysX3CommonCHECKED_x64.dll
 0001:0003cd31       ?writeWord@physx@@YAXG_NAEAVPxOutputStream@1@@Z 000000018003dd31 f   PhysX3CommonCHECKED_x64:PhysX3CommonCHECKED_x64.dll
 0001:0003cd37       __tailMerge_physx3commonchecked_x64_dll 000000018003dd37     PhysX3CommonCHECKED_x64:PhysX3CommonCHECKED_x64.dll
 0001:0003cdb0       __imp_load_?writeDword@physx@@YAXI_NAEAVPxOutputStream@1@@Z 000000018003ddb0 f   PhysX3CommonCHECKED_x64:PhysX3CommonCHECKED_x64.dll
 0001:0003cdbc       ?writeDword@physx@@YAXI_NAEAVPxOutputStream@1@@Z 000000018003ddbc f   PhysX3CommonCHECKED_x64:PhysX3CommonCHECKED_x64.dll
 0001:0003cdc2       __imp_load_?writeFloat@physx@@YAXM_NAEAVPxOutputStream@1@@Z 000000018003ddc2 f   PhysX3CommonCHECKED_x64:PhysX3CommonCHECKED_x64.dll
 0001:0003cdce       ?writeFloat@physx@@YAXM_NAEAVPxOutputStream@1@@Z 000000018003ddce f   PhysX3CommonCHECKED_x64:PhysX3CommonCHECKED_x64.dll
 0001:0003cdd4       __imp_load_?writeHeader@physx@@YA_NCCCCI_NAEAVPxOutputStream@1@@Z 000000018003ddd4 f   PhysX3CommonCHECKED_x64:PhysX3CommonCHECKED_x64.dll
 0001:0003cde0       ?writeHeader@physx@@YA_NCCCCI_NAEAVPxOutputStream@1@@Z 000000018003dde0 f   PhysX3CommonCHECKED_x64:PhysX3CommonCHECKED_x64.dll
 0001:0003cde6       __imp_load_??0SourceMesh@Gu@physx@@QEAA@XZ 000000018003dde6 f   PhysX3CommonCHECKED_x64:PhysX3CommonCHECKED_x64.dll
 0001:0003cdf2       ??0SourceMesh@Gu@physx@@QEAA@XZ 000000018003ddf2 f   PhysX3CommonCHECKED_x64:PhysX3CommonCHECKED_x64.dll
 0001:0003cdf8       __imp_load_??1SourceMesh@Gu@physx@@QEAA@XZ 000000018003ddf8 f   PhysX3CommonCHECKED_x64:PhysX3CommonCHECKED_x64.dll
 0001:0003ce04       ??1SourceMesh@Gu@physx@@QEAA@XZ 000000018003de04 f   PhysX3CommonCHECKED_x64:PhysX3CommonCHECKED_x64.dll
 0001:0003ce0a       __imp_load_??0BV4Tree@Gu@physx@@QEAA@XZ 000000018003de0a f   PhysX3CommonCHECKED_x64:PhysX3CommonCHECKED_x64.dll
 0001:0003ce16       ??0BV4Tree@Gu@physx@@QEAA@XZ 000000018003de16 f   PhysX3CommonCHECKED_x64:PhysX3CommonCHECKED_x64.dll
 0001:0003ce1c       __imp_load_??1BV4Tree@Gu@physx@@QEAA@XZ 000000018003de1c f   PhysX3CommonCHECKED_x64:PhysX3CommonCHECKED_x64.dll
 0001:0003ce28       ??1BV4Tree@Gu@physx@@QEAA@XZ 000000018003de28 f   PhysX3CommonCHECKED_x64:PhysX3CommonCHECKED_x64.dll
 0001:0003ce2e       __imp_load_??0BV32Tree@Gu@physx@@QEAA@XZ 000000018003de2e f   PhysX3CommonCHECKED_x64:PhysX3CommonCHECKED_x64.dll
 0001:0003ce3a       ??0BV32Tree@Gu@physx@@QEAA@XZ 000000018003de3a f   PhysX3CommonCHECKED_x64:PhysX3CommonCHECKED_x64.dll
 0001:0003ce40       __imp_load_??1BV32Tree@Gu@physx@@QEAA@XZ 000000018003de40 f   PhysX3CommonCHECKED_x64:PhysX3CommonCHECKED_x64.dll
 0001:0003ce4c       ??1BV32Tree@Gu@physx@@QEAA@XZ 000000018003de4c f   PhysX3CommonCHECKED_x64:PhysX3CommonCHECKED_x64.dll
 0001:0003ce52       __imp_load_?writeFloatBuffer@physx@@YAXPEBMI_NAEAVPxOutputStream@1@@Z 000000018003de52 f   PhysX3CommonCHECKED_x64:PhysX3CommonCHECKED_x64.dll
 0001:0003ce5e       ?writeFloatBuffer@physx@@YAXPEBMI_NAEAVPxOutputStream@1@@Z 000000018003de5e f   PhysX3CommonCHECKED_x64:PhysX3CommonCHECKED_x64.dll
 0001:0003ce64       __imp_load_?writeWordBuffer@physx@@YAXPEBGI_NAEAVPxOutputStream@1@@Z 000000018003de64 f   PhysX3CommonCHECKED_x64:PhysX3CommonCHECKED_x64.dll
 0001:0003ce70       ?writeWordBuffer@physx@@YAXPEBGI_NAEAVPxOutputStream@1@@Z 000000018003de70 f   PhysX3CommonCHECKED_x64:PhysX3CommonCHECKED_x64.dll
 0001:0003ce76       __imp_load_?computeMaxIndex@physx@@YAIPEBII@Z 000000018003de76 f   PhysX3CommonCHECKED_x64:PhysX3CommonCHECKED_x64.dll
 0001:0003ce82       ?computeMaxIndex@physx@@YAIPEBII@Z 000000018003de82 f   PhysX3CommonCHECKED_x64:PhysX3CommonCHECKED_x64.dll
 0001:0003ce88       __imp_load_?storeIndices@physx@@YAXIIPEBIAEAVPxOutputStream@1@_N@Z 000000018003de88 f   PhysX3CommonCHECKED_x64:PhysX3CommonCHECKED_x64.dll
 0001:0003ce94       ?storeIndices@physx@@YAXIIPEBIAEAVPxOutputStream@1@_N@Z 000000018003de94 f   PhysX3CommonCHECKED_x64:PhysX3CommonCHECKED_x64.dll
 0001:0003ce9a       __imp_load_?computeBoundsAroundVertices@Gu@physx@@YAXAEAVPxBounds3@2@IPEIBVPxVec3@2@@Z 000000018003de9a f   PhysX3CommonCHECKED_x64:PhysX3CommonCHECKED_x64.dll
 0001:0003cea6       ?computeBoundsAroundVertices@Gu@physx@@YAXAEAVPxBounds3@2@IPEIBVPxVec3@2@@Z 000000018003dea6 f   PhysX3CommonCHECKED_x64:PhysX3CommonCHECKED_x64.dll
 0001:0003ceac       __imp_load_?BuildBV4Ex@Gu@physx@@YA_NAEAVBV4Tree@12@AEAVSourceMesh@12@MI@Z 000000018003deac f   PhysX3CommonCHECKED_x64:PhysX3CommonCHECKED_x64.dll
 0001:0003ceb8       ?BuildBV4Ex@Gu@physx@@YA_NAEAVBV4Tree@12@AEAVSourceMesh@12@MI@Z 000000018003deb8 f   PhysX3CommonCHECKED_x64:PhysX3CommonCHECKED_x64.dll
 0001:0003cebe       __imp_load_?BuildBV32Ex@Gu@physx@@YA_NAEAVBV32Tree@12@AEAVSourceMesh@12@MI@Z 000000018003debe f   PhysX3CommonCHECKED_x64:PhysX3CommonCHECKED_x64.dll
 0001:0003ceca       ?BuildBV32Ex@Gu@physx@@YA_NAEAVBV32Tree@12@AEAVSourceMesh@12@MI@Z 000000018003deca f   PhysX3CommonCHECKED_x64:PhysX3CommonCHECKED_x64.dll
 0001:0003ced0       __imp_load_?computeMaxIndex@physx@@YAGPEBGI@Z 000000018003ded0 f   PhysX3CommonCHECKED_x64:PhysX3CommonCHECKED_x64.dll
 0001:0003cedc       ?computeMaxIndex@physx@@YAGPEBGI@Z 000000018003dedc f   PhysX3CommonCHECKED_x64:PhysX3CommonCHECKED_x64.dll
 0001:0003cee2       __imp_load_?WriteHeader@Gu@physx@@YA_NEEEEI_NAEAVPxOutputStream@2@@Z 000000018003dee2 f   PhysX3CommonCHECKED_x64:PhysX3CommonCHECKED_x64.dll
 0001:0003ceee       ?WriteHeader@Gu@physx@@YA_NEEEEI_NAEAVPxOutputStream@2@@Z 000000018003deee f   PhysX3CommonCHECKED_x64:PhysX3CommonCHECKED_x64.dll
 0001:0003cef4       __imp_load_?StoreIndices@Gu@physx@@YAXGIPEBGAEAVPxOutputStream@2@_N@Z 000000018003def4 f   PhysX3CommonCHECKED_x64:PhysX3CommonCHECKED_x64.dll
 0001:0003cf00       ?StoreIndices@Gu@physx@@YAXGIPEBGAEAVPxOutputStream@2@_N@Z 000000018003df00 f   PhysX3CommonCHECKED_x64:PhysX3CommonCHECKED_x64.dll
 0001:0003cf06       __imp_load_?CreateOffsets@BigConvexData@physx@@IEAAXXZ 000000018003df06 f   PhysX3CommonCHECKED_x64:PhysX3CommonCHECKED_x64.dll
 0001:0003cf12       ?CreateOffsets@BigConvexData@physx@@IEAAXXZ 000000018003df12 f   PhysX3CommonCHECKED_x64:PhysX3CommonCHECKED_x64.dll
 0001:0003cf18       __imp_load_??0RadixSortBuffered@Cm@physx@@QEAA@XZ 000000018003df18 f   PhysX3CommonCHECKED_x64:PhysX3CommonCHECKED_x64.dll
 0001:0003cf24       ??0RadixSortBuffered@Cm@physx@@QEAA@XZ 000000018003df24 f   PhysX3CommonCHECKED_x64:PhysX3CommonCHECKED_x64.dll
 0001:0003cf2a       __imp_load_??1RadixSortBuffered@Cm@physx@@UEAA@XZ 000000018003df2a f   PhysX3CommonCHECKED_x64:PhysX3CommonCHECKED_x64.dll
 0001:0003cf36       ??1RadixSortBuffered@Cm@physx@@UEAA@XZ 000000018003df36 f   PhysX3CommonCHECKED_x64:PhysX3CommonCHECKED_x64.dll
 0001:0003cf3c       __imp_load_?Sort@RadixSortBuffered@Cm@physx@@QEAAAEAV123@PEBIIW4RadixHint@23@@Z 000000018003df3c f   PhysX3CommonCHECKED_x64:PhysX3CommonCHECKED_x64.dll
 0001:0003cf48       ?Sort@RadixSortBuffered@Cm@physx@@QEAAAEAV123@PEBIIW4RadixHint@23@@Z 000000018003df48 f   PhysX3CommonCHECKED_x64:PhysX3CommonCHECKED_x64.dll
 0001:0003cf4e       __imp_load_?computeOBBPoints@Gu@physx@@YAXPEIAVPxVec3@2@AEBV32@1111@Z 000000018003df4e f   PhysX3CommonCHECKED_x64:PhysX3CommonCHECKED_x64.dll
 0001:0003cf5a       ?computeOBBPoints@Gu@physx@@YAXPEIAVPxVec3@2@AEBV32@1111@Z 000000018003df5a f   PhysX3CommonCHECKED_x64:PhysX3CommonCHECKED_x64.dll
 0001:0003cf60       __imp_load_??0BigConvexData@physx@@QEAA@XZ 000000018003df60 f   PhysX3CommonCHECKED_x64:PhysX3CommonCHECKED_x64.dll
 0001:0003cf6c       ??0BigConvexData@physx@@QEAA@XZ 000000018003df6c f   PhysX3CommonCHECKED_x64:PhysX3CommonCHECKED_x64.dll
 0001:0003cf72       __imp_load_??1BigConvexData@physx@@QEAA@XZ 000000018003df72 f   PhysX3CommonCHECKED_x64:PhysX3CommonCHECKED_x64.dll
 0001:0003cf7e       ??1BigConvexData@physx@@QEAA@XZ 000000018003df7e f   PhysX3CommonCHECKED_x64:PhysX3CommonCHECKED_x64.dll
 0001:0003cf84       __imp_load_?readDword@physx@@YAI_NAEAVPxInputStream@1@@Z 000000018003df84 f   PhysX3CommonCHECKED_x64:PhysX3CommonCHECKED_x64.dll
 0001:0003cf90       ?readDword@physx@@YAI_NAEAVPxInputStream@1@@Z 000000018003df90 f   PhysX3CommonCHECKED_x64:PhysX3CommonCHECKED_x64.dll
 0001:0003cf96       __imp_load_?ReadHeader@Gu@physx@@YA_NEEEEAEAIAEA_NAEAVPxInputStream@2@@Z 000000018003df96 f   PhysX3CommonCHECKED_x64:PhysX3CommonCHECKED_x64.dll
 0001:0003cfa2       ?ReadHeader@Gu@physx@@YA_NEEEEAEAIAEA_NAEAVPxInputStream@2@@Z 000000018003dfa2 f   PhysX3CommonCHECKED_x64:PhysX3CommonCHECKED_x64.dll
 0001:0003cfa8       __imp_load_??0HeightField@Gu@physx@@QEAA@PEAVGuMeshFactory@2@@Z 000000018003dfa8 f   PhysX3CommonCHECKED_x64:PhysX3CommonCHECKED_x64.dll
 0001:0003cfb4       ??0HeightField@Gu@physx@@QEAA@PEAVGuMeshFactory@2@@Z 000000018003dfb4 f   PhysX3CommonCHECKED_x64:PhysX3CommonCHECKED_x64.dll
 0001:0003cfba       __imp_load_?loadFromDesc@HeightField@Gu@physx@@QEAA_NAEBVPxHeightFieldDesc@3@@Z 000000018003dfba f   PhysX3CommonCHECKED_x64:PhysX3CommonCHECKED_x64.dll
 0001:0003cfc6       ?loadFromDesc@HeightField@Gu@physx@@QEAA_NAEBVPxHeightFieldDesc@3@@Z 000000018003dfc6 f   PhysX3CommonCHECKED_x64:PhysX3CommonCHECKED_x64.dll
 0001:0003cfcc       __imp_load_?releaseMemory@HeightField@Gu@physx@@QEAAXXZ 000000018003dfcc f   PhysX3CommonCHECKED_x64:PhysX3CommonCHECKED_x64.dll
 0001:0003cfd8       ?releaseMemory@HeightField@Gu@physx@@QEAAXXZ 000000018003dfd8 f   PhysX3CommonCHECKED_x64:PhysX3CommonCHECKED_x64.dll
 0001:0003cfde       __imp_load_??1HeightField@Gu@physx@@UEAA@XZ 000000018003dfde f   PhysX3CommonCHECKED_x64:PhysX3CommonCHECKED_x64.dll
 0001:0003cfea       ??1HeightField@Gu@physx@@UEAA@XZ 000000018003dfea f   PhysX3CommonCHECKED_x64:PhysX3CommonCHECKED_x64.dll
 0001:0003cff0       ??$PFromRva@PEAP6A_JXZ@@YAPEAP6A_JXZK@Z 000000018003dff0 f i delayimp:delayhlp.obj
 0001:0003d000       ??$PFromRva@PEAPEAUHINSTANCE__@@@@YAPEAPEAUHINSTANCE__@@K@Z 000000018003e000 f i delayimp:delayhlp.obj
 0001:0003d010       ??$PFromRva@PEAU_IMAGE_IMPORT_BY_NAME@@@@YAPEAU_IMAGE_IMPORT_BY_NAME@@K@Z 000000018003e010 f i delayimp:delayhlp.obj
 0001:0003d020       ??$PFromRva@PEAU_IMAGE_THUNK_DATA64@@@@YAPEAU_IMAGE_THUNK_DATA64@@K@Z 000000018003e020 f i delayimp:delayhlp.obj
 0001:0003d030       ??$PFromRva@PEBD@@YAPEBDK@Z 000000018003e030 f i delayimp:delayhlp.obj
 0001:0003d040       ??$PFromRva@PEBUImgDelayDescr@@@@YAPEBUImgDelayDescr@@K@Z 000000018003e040 f i delayimp:delayhlp.obj
 0001:0003d050       ??$PFromRva@PEBU_IMAGE_THUNK_DATA64@@@@YAPEBU_IMAGE_THUNK_DATA64@@K@Z 000000018003e050 f i delayimp:delayhlp.obj
 0001:0003d060       ?CountOfImports@@YAIPEBU_IMAGE_THUNK_DATA64@@@Z 000000018003e060 f i delayimp:delayhlp.obj
 0001:0003d07c       ?DloadAcquireSectionWriteAccess@@YAXXZ 000000018003e07c f i delayimp:delayhlp.obj
 0001:0003d150       ?DloadGetSRWLockFunctionPointers@@YAEXZ 000000018003e150 f i delayimp:delayhlp.obj
 0001:0003d214       ?DloadLock@@YAXXZ          000000018003e214 f i delayimp:delayhlp.obj
 0001:0003d26c       ?DloadMakePermanentImageCommit@@YAXPEAX_K@Z 000000018003e26c f i delayimp:delayhlp.obj
 0001:0003d32c       ?DloadObtainSection@@YAPEAXPEAK0@Z 000000018003e32c f i delayimp:delayhlp.obj
 0001:0003d3ec       ?DloadProtectSection@@YAXKPEAK@Z 000000018003e3ec f i delayimp:delayhlp.obj
 0001:0003d4a0       ?DloadReleaseSectionWriteAccess@@YAXXZ 000000018003e4a0 f i delayimp:delayhlp.obj
 0001:0003d558       ?DloadUnlock@@YAXXZ        000000018003e558 f i delayimp:delayhlp.obj
 0001:0003d5a8       ?IndexFromPImgThunkData@@YAIPEBU_IMAGE_THUNK_DATA64@@0@Z 000000018003e5a8 f i delayimp:delayhlp.obj
 0001:0003d73c       HRESULT_FROM_WIN32         000000018003e73c f i delayimp:delayhlp.obj
 0001:0003d750       ReadAcquire64              000000018003e750 f i delayimp:delayhlp.obj
 0001:0003d754       ReadPointerAcquire         000000018003e754 f i delayimp:delayhlp.obj
 0001:0003d758       WritePointerRelease        000000018003e758 f i delayimp:delayhlp.obj
 0001:0003d75c       WriteRelease64             000000018003e75c f i delayimp:delayhlp.obj
 0001:0003d760       __FUnloadDelayLoadedDLL2   000000018003e760 f   delayimp:delayhlp.obj
 0001:0003d848       __HrLoadAllImportsForDll   000000018003e848 f   delayimp:delayhlp.obj
 0001:0003d8d8       __delayLoadHelper2         000000018003e8d8 f   delayimp:delayhlp.obj
 0001:0003dc60       __chkstk                   000000018003ec60 f   MSVCRT:chkstk.obj
 0001:0003dc60       _alloca_probe              000000018003ec60 f   MSVCRT:chkstk.obj
 0001:0003dccc       ??3@YAXPEAX_K@Z            000000018003eccc f   MSVCRT:delete_scalar_size.obj
 0001:0003dcd4       ?__scrt_initialize_type_info@@YAXXZ 000000018003ecd4 f   MSVCRT:tncleanup.obj
 0001:0003dce8       ?__scrt_uninitialize_type_info@@YAXXZ 000000018003ece8 f   MSVCRT:tncleanup.obj
 0001:0003dcf8       ??1type_info@@UEAA@XZ      000000018003ecf8 f   MSVCRT:std_type_info_static.obj
 0001:0003dd08       ??_Gtype_info@@UEAAPEAXI@Z 000000018003ed08 f i MSVCRT:std_type_info_static.obj
 0001:0003dd08       ??_Etype_info@@UEAAPEAXI@Z 000000018003ed08 f i MSVCRT:std_type_info_static.obj
 0001:0003dd40       __vdecl_sinf4              000000018003ed40 f   MSVCRT:svml_ssinf4_dispatch.obj
 0001:0003dd50       __libm_sse2_sincosf_       000000018003ed50 f   MSVCRT:svml_ssinf4_dispatch.obj
 0001:0003dd96       __libm_sse2_sincosf4_      000000018003ed96 f   MSVCRT:svml_ssinf4_dispatch.obj
 0001:0003e1d8       _CRT_INIT                  000000018003f1d8 f   MSVCRT:dll_dllmain.obj
 0001:0003e1e0       _DllMainCRTStartup         000000018003f1e0 f   MSVCRT:dll_dllmain.obj
 0001:0003e22c       _guard_check_icall_nop     000000018003f22c f i MSVCRT:guard_support.obj
 0001:0003e230       ReadNoFence64              000000018003f230 f i MSVCRT:guard_support.obj
 0001:0003e234       ReadPointerNoFence         000000018003f234 f i MSVCRT:guard_support.obj
 0001:0003e238       _guard_icall_checks_enforced 000000018003f238 f i MSVCRT:guard_support.obj
 0001:0003e254       _guard_rf_checks_enforced  000000018003f254 f i MSVCRT:guard_support.obj
 0001:0003e258       ??3@YAXPEAX@Z              000000018003f258 f   MSVCRT:delete_scalar.obj
 0001:0003e260       __sse2_sinf4               000000018003f260 f   MSVCRT:svml_ssinf4_sse2.obj
 0001:0003edd8       __security_init_cookie     000000018003fdd8 f   MSVCRT:gs_support.obj
 0001:0003eeb0       DllMain                    000000018003feb0 f   MSVCRT:dll_dllmain_stub.obj
 0001:0003eedc       __local_stdio_printf_options 000000018003fedc f i MSVCRT:default_local_stdio_options.obj
 0001:0003eee8       __local_stdio_scanf_options 000000018003fee8 f i MSVCRT:default_local_stdio_options.obj
 0001:0003eef4       __scrt_initialize_default_local_stdio_options 000000018003fef4 f   MSVCRT:default_local_stdio_options.obj
 0001:0003ef18       ??$__crt_fast_decode_pointer@PEAP6AXXZ@@YAPEAP6AXXZQEAP6AXXZ@Z 000000018003ff18 f i MSVCRT:utility.obj
 0001:0003ef34       ??$__crt_fast_encode_pointer@PEAP6AXXZ@@YAPEAP6AXXZQEAP6AXXZ@Z 000000018003ff34 f i MSVCRT:utility.obj
 0001:0003ef5c       ?__crt_rotate_pointer_value@@YA_K_KH@Z 000000018003ff5c f i MSVCRT:utility.obj
 0001:0003ef68       ?configure_argv@__scrt_narrow_argv_policy@@SAHXZ 000000018003ff68 f i MSVCRT:utility.obj
 0001:0003efe0       ?initialize_environment@__scrt_narrow_environment_policy@@SAHXZ 000000018003ffe0 f i MSVCRT:utility.obj
 0001:0003f024       NtCurrentTeb               0000000180040024 f i MSVCRT:utility.obj
 0001:0003f030       __scrt_acquire_startup_lock 0000000180040030 f   MSVCRT:utility.obj
 0001:0003f078       __scrt_dllmain_after_initialize_c 0000000180040078 f   MSVCRT:utility.obj
 0001:0003f0bc       __scrt_dllmain_before_initialize_c 00000001800400bc f   MSVCRT:utility.obj
 0001:0003f0d8       __scrt_dllmain_crt_thread_attach 00000001800400d8 f   MSVCRT:utility.obj
 0001:0003f10c       __scrt_dllmain_crt_thread_detach 000000018004010c f   MSVCRT:utility.obj
 0001:0003f128       __scrt_dllmain_exception_filter 0000000180040128 f   MSVCRT:utility.obj
 0001:0003f1a0       __scrt_dllmain_uninitialize_c 00000001800401a0 f   MSVCRT:utility.obj
 0001:0003f1dc       __scrt_dllmain_uninitialize_critical 00000001800401dc f   MSVCRT:utility.obj
 0001:0003f1f8       __scrt_initialize_crt      00000001800401f8 f   MSVCRT:utility.obj
 0001:0003f254       __scrt_initialize_onexit_tables 0000000180040254 f   MSVCRT:utility.obj
 0001:0003f364       __scrt_is_nonwritable_in_current_image 0000000180040364 f   MSVCRT:utility.obj
 0001:0003f424       __scrt_release_startup_lock 0000000180040424 f   MSVCRT:utility.obj
 0001:0003f454       __scrt_uninitialize_crt    0000000180040454 f   MSVCRT:utility.obj
 0001:0003f48c       _onexit                    000000018004048c f   MSVCRT:utility.obj
 0001:0003f4f0       at_quick_exit              00000001800404f0 f   MSVCRT:utility.obj
 0001:0003f534       atexit                     0000000180040534 f   MSVCRT:utility.obj
 0001:0003f550       __scrt_get_dyn_tls_init_callback 0000000180040550 f   MSVCRT:dyn_tls_init.obj
 0001:0003f55c       __crt_debugger_hook        000000018004055c f   MSVCRT:utility_desktop.obj
 0001:0003f568       __scrt_fastfail            0000000180040568 f   MSVCRT:utility_desktop.obj
 0001:0003f704       __scrt_get_show_window_mode 0000000180040704 f   MSVCRT:utility_desktop.obj
 0001:0003f74c       __scrt_initialize_mta      000000018004074c f   MSVCRT:utility_desktop.obj
 0001:0003f754       __scrt_initialize_winrt    0000000180040754 f   MSVCRT:utility_desktop.obj
 0001:0003f758       __scrt_is_managed_app      0000000180040758 f   MSVCRT:utility_desktop.obj
 0001:0003f7c0       __scrt_set_unhandled_exception_filter 00000001800407c0 f   MSVCRT:utility_desktop.obj
 0001:0003f7d4       __scrt_stub_for_initialize_mta 00000001800407d4 f   MSVCRT:utility_desktop.obj
 0001:0003f7d4       __scrt_exe_initialize_mta  00000001800407d4 f   MSVCRT:utility_desktop.obj
 0001:0003f7d8       __scrt_unhandled_exception_filter 00000001800407d8 f   MSVCRT:utility_desktop.obj
 0001:0003f820       _RTC_Initialize            0000000180040820 f   MSVCRT:initsect.obj
 0001:0003f86c       _RTC_Terminate             000000018004086c f   MSVCRT:initsect.obj
 0001:0003f8c0       __isa_available_init       00000001800408c0 f   MSVCRT:cpu_disp.obj
 0001:0003fa9c       _get_startup_argv_mode     0000000180040a9c f   MSVCRT:argv_mode.obj
 0001:0003faa4       __scrt_is_ucrt_dll_in_use  0000000180040aa4 f   MSVCRT:ucrt_detection.obj
 0001:0003fab3       strstr                     0000000180040ab3 f   vcruntime:VCRUNTIME140.dll
 0001:0003fab9       memcpy                     0000000180040ab9 f   vcruntime:VCRUNTIME140.dll
 0001:0003fabf       _purecall                  0000000180040abf f   vcruntime:VCRUNTIME140.dll
 0001:0003fac5       __std_type_info_name       0000000180040ac5 f   vcruntime:VCRUNTIME140.dll
 0001:0003facb       memset                     0000000180040acb f   vcruntime:VCRUNTIME140.dll
 0001:0003fad1       __std_type_info_destroy_list 0000000180040ad1 f   vcruntime:VCRUNTIME140.dll
 0001:0003fad7       __C_specific_handler       0000000180040ad7 f   vcruntime:VCRUNTIME140.dll
 0001:0003fadd       _fpclass                   0000000180040add f   ucrt:api-ms-win-crt-math-l1-1-0.dll
 0001:0003fae3       cosf                       0000000180040ae3 f   ucrt:api-ms-win-crt-math-l1-1-0.dll
 0001:0003fae9       sinf                       0000000180040ae9 f   ucrt:api-ms-win-crt-math-l1-1-0.dll
 0001:0003faef       atan2f                     0000000180040aef f   ucrt:api-ms-win-crt-math-l1-1-0.dll
 0001:0003faf5       _initterm                  0000000180040af5 f   ucrt:api-ms-win-crt-runtime-l1-1-0.dll
 0001:0003fafb       _initterm_e                0000000180040afb f   ucrt:api-ms-win-crt-runtime-l1-1-0.dll
 0001:0003fb01       free                       0000000180040b01 f   ucrt:api-ms-win-crt-heap-l1-1-0.dll
 0001:0003fb07       _seh_filter_dll            0000000180040b07 f   ucrt:api-ms-win-crt-runtime-l1-1-0.dll
 0001:0003fb0d       _configure_narrow_argv     0000000180040b0d f   ucrt:api-ms-win-crt-runtime-l1-1-0.dll
 0001:0003fb13       _initialize_narrow_environment 0000000180040b13 f   ucrt:api-ms-win-crt-runtime-l1-1-0.dll
 0001:0003fb19       _initialize_onexit_table   0000000180040b19 f   ucrt:api-ms-win-crt-runtime-l1-1-0.dll
 0001:0003fb1f       _register_onexit_function  0000000180040b1f f   ucrt:api-ms-win-crt-runtime-l1-1-0.dll
 0001:0003fb25       _execute_onexit_table      0000000180040b25 f   ucrt:api-ms-win-crt-runtime-l1-1-0.dll
 0001:0003fb2b       _crt_atexit                0000000180040b2b f   ucrt:api-ms-win-crt-runtime-l1-1-0.dll
 0001:0003fb31       _crt_at_quick_exit         0000000180040b31 f   ucrt:api-ms-win-crt-runtime-l1-1-0.dll
 0001:0003fb37       _cexit                     0000000180040b37 f   ucrt:api-ms-win-crt-runtime-l1-1-0.dll
 0001:0003fb3d       terminate                  0000000180040b3d f   ucrt:api-ms-win-crt-runtime-l1-1-0.dll
 0001:0003fb43       RaiseException             0000000180040b43 f   kernel32:KERNEL32.dll
 0001:0003fb49       GetLastError               0000000180040b49 f   kernel32:KERNEL32.dll
 0001:0003fb4f       GetSystemInfo              0000000180040b4f f   kernel32:KERNEL32.dll
 0001:0003fb55       VirtualProtect             0000000180040b55 f   kernel32:KERNEL32.dll
 0001:0003fb5b       VirtualQuery               0000000180040b5b f   kernel32:KERNEL32.dll
 0001:0003fb61       FreeLibrary                0000000180040b61 f   kernel32:KERNEL32.dll
 0001:0003fb67       GetModuleHandleW           0000000180040b67 f   kernel32:KERNEL32.dll
 0001:0003fb6d       GetProcAddress             0000000180040b6d f   kernel32:KERNEL32.dll
 0001:0003fb73       LoadLibraryExA             0000000180040b73 f   kernel32:KERNEL32.dll
 0001:0003fb79       InitializeSListHead        0000000180040b79 f   kernel32:KERNEL32.dll
 0001:0003fb7f       QueryPerformanceCounter    0000000180040b7f f   kernel32:KERNEL32.dll
 0001:0003fb85       GetCurrentProcessId        0000000180040b85 f   kernel32:KERNEL32.dll
 0001:0003fb8b       GetCurrentThreadId         0000000180040b8b f   kernel32:KERNEL32.dll
 0001:0003fb91       GetSystemTimeAsFileTime    0000000180040b91 f   kernel32:KERNEL32.dll
 0001:0003fb97       DisableThreadLibraryCalls  0000000180040b97 f   kernel32:KERNEL32.dll
 0001:0003fb9d       RtlCaptureContext          0000000180040b9d f   kernel32:KERNEL32.dll
 0001:0003fba3       RtlLookupFunctionEntry     0000000180040ba3 f   kernel32:KERNEL32.dll
 0001:0003fba9       RtlVirtualUnwind           0000000180040ba9 f   kernel32:KERNEL32.dll
 0001:0003fbaf       IsDebuggerPresent          0000000180040baf f   kernel32:KERNEL32.dll
 0001:0003fbb5       UnhandledExceptionFilter   0000000180040bb5 f   kernel32:KERNEL32.dll
 0001:0003fbbb       SetUnhandledExceptionFilter 0000000180040bbb f   kernel32:KERNEL32.dll
 0001:0003fbc1       GetStartupInfoW            0000000180040bc1 f   kernel32:KERNEL32.dll
 0001:0003fbc7       IsProcessorFeaturePresent  0000000180040bc7 f   kernel32:KERNEL32.dll
 0001:0003fbd0       __scrt_stub_for_acrt_initialize 0000000180040bd0 f   MSVCRT:ucrt_stubs.obj
 0001:0003fbd0       __acrt_initialize          0000000180040bd0 f   MSVCRT:ucrt_stubs.obj
 0001:0003fbd0       __vcrt_initialize          0000000180040bd0 f   MSVCRT:ucrt_stubs.obj
 0001:0003fbd4       __acrt_thread_attach       0000000180040bd4 f   MSVCRT:ucrt_stubs.obj
 0001:0003fbd4       __vcrt_thread_attach       0000000180040bd4 f   MSVCRT:ucrt_stubs.obj
 0001:0003fbd4       __scrt_stub_for_acrt_thread_attach 0000000180040bd4 f   MSVCRT:ucrt_stubs.obj
 0001:0003fbd8       __acrt_thread_detach       0000000180040bd8 f   MSVCRT:ucrt_stubs.obj
 0001:0003fbd8       __scrt_stub_for_acrt_thread_detach 0000000180040bd8 f   MSVCRT:ucrt_stubs.obj
 0001:0003fbd8       __vcrt_thread_detach       0000000180040bd8 f   MSVCRT:ucrt_stubs.obj
 0001:0003fbdc       __acrt_uninitialize        0000000180040bdc f   MSVCRT:ucrt_stubs.obj
 0001:0003fbdc       __vcrt_uninitialize        0000000180040bdc f   MSVCRT:ucrt_stubs.obj
 0001:0003fbdc       __scrt_stub_for_acrt_uninitialize 0000000180040bdc f   MSVCRT:ucrt_stubs.obj
 0001:0003fbe0       __vcrt_uninitialize_critical 0000000180040be0 f   MSVCRT:ucrt_stubs.obj
 0001:0003fbe0       __acrt_uninitialize_critical 0000000180040be0 f   MSVCRT:ucrt_stubs.obj
 0001:0003fbe0       __scrt_stub_for_acrt_uninitialize_critical 0000000180040be0 f   MSVCRT:ucrt_stubs.obj
 0001:0003fbe4       __scrt_stub_for_is_c_termination_complete 0000000180040be4 f   MSVCRT:ucrt_stubs.obj
 0001:0003fbe4       _is_c_termination_complete 0000000180040be4 f   MSVCRT:ucrt_stubs.obj
 0001:00040f40       _guard_dispatch_icall_nop  0000000180041f40 f   MSVCRT:guard_dispatch.obj
 0002:00000000       __xc_a                     0000000180044000     MSVCRT:initializers.obj
 0002:00000418       __xc_z                     0000000180044418     MSVCRT:initializers.obj
 0002:00000528       __xi_a                     0000000180044528     MSVCRT:initializers.obj
 0002:00000638       __xi_z                     0000000180044638     MSVCRT:initializers.obj
 0002:00000748       __xp_a                     0000000180044748     MSVCRT:initializers.obj
 0002:00000858       __xp_z                     0000000180044858     MSVCRT:initializers.obj
 0002:00000968       __xt_a                     0000000180044968     MSVCRT:initializers.obj
 0002:00000a78       __xt_z                     0000000180044a78     MSVCRT:initializers.obj
 0002:00000b90       ??_C@_0N@PENLEBPP@PxFoundation@ 0000000180044b90     WindowsCookingDelayLoadHook.obj
 0002:00000ba0       ??_C@_05KOLFGEDA@DEBUG@    0000000180044ba0     WindowsCookingDelayLoadHook.obj
 0002:00000ba8       ??_C@_07KELMHNNG@CHECKED@  0000000180044ba8     WindowsCookingDelayLoadHook.obj
 0002:00000bb8       ??_C@_07EAJOOGMN@PROFILE@  0000000180044bb8     WindowsCookingDelayLoadHook.obj
 0002:00000bc8       ??_C@_0N@BBNMPFJK@PhysX3Common@ 0000000180044bc8     WindowsCookingDelayLoadHook.obj
 0002:00000bd8       ??_C@_08DLKLOFHK@PxPvdSDK@ 0000000180044bd8     WindowsCookingDelayLoadHook.obj
 0002:00000bf0       ?g_PXSinCoefficients0@aos@shdfnd@physx@@3UPX_VECTORF32@123@B 0000000180044bf0     RTreeCooking.obj
 0002:00000c10       ?g_PXSinCoefficients1@aos@shdfnd@physx@@3UPX_VECTORF32@123@B 0000000180044c10     RTreeCooking.obj
 0002:00000c30       ?g_PXSinCoefficients2@aos@shdfnd@physx@@3UPX_VECTORF32@123@B 0000000180044c30     RTreeCooking.obj
 0002:00000c50       ?g_PXCosCoefficients0@aos@shdfnd@physx@@3UPX_VECTORF32@123@B 0000000180044c50     RTreeCooking.obj
 0002:00000c70       ?g_PXCosCoefficients1@aos@shdfnd@physx@@3UPX_VECTORF32@123@B 0000000180044c70     RTreeCooking.obj
 0002:00000c90       ?g_PXCosCoefficients2@aos@shdfnd@physx@@3UPX_VECTORF32@123@B 0000000180044c90     RTreeCooking.obj
 0002:00000cb0       ?g_PXTanCoefficients0@aos@shdfnd@physx@@3UPX_VECTORF32@123@B 0000000180044cb0     RTreeCooking.obj
 0002:00000cd0       ?g_PXTanCoefficients1@aos@shdfnd@physx@@3UPX_VECTORF32@123@B 0000000180044cd0     RTreeCooking.obj
 0002:00000cf0       ?g_PXTanCoefficients2@aos@shdfnd@physx@@3UPX_VECTORF32@123@B 0000000180044cf0     RTreeCooking.obj
 0002:00000d10       ?g_PXASinCoefficients0@aos@shdfnd@physx@@3UPX_VECTORF32@123@B 0000000180044d10     RTreeCooking.obj
 0002:00000d30       ?g_PXASinCoefficients1@aos@shdfnd@physx@@3UPX_VECTORF32@123@B 0000000180044d30     RTreeCooking.obj
 0002:00000d50       ?g_PXASinCoefficients2@aos@shdfnd@physx@@3UPX_VECTORF32@123@B 0000000180044d50     RTreeCooking.obj
 0002:00000d70       ?g_PXATanCoefficients0@aos@shdfnd@physx@@3UPX_VECTORF32@123@B 0000000180044d70     RTreeCooking.obj
 0002:00000d90       ?g_PXATanCoefficients1@aos@shdfnd@physx@@3UPX_VECTORF32@123@B 0000000180044d90     RTreeCooking.obj
 0002:00000db0       ?g_PXATanCoefficients2@aos@shdfnd@physx@@3UPX_VECTORF32@123@B 0000000180044db0     RTreeCooking.obj
 0002:00000dd0       ?g_PXSinEstCoefficients@aos@shdfnd@physx@@3UPX_VECTORF32@123@B 0000000180044dd0     RTreeCooking.obj
 0002:00000df0       ?g_PXCosEstCoefficients@aos@shdfnd@physx@@3UPX_VECTORF32@123@B 0000000180044df0     RTreeCooking.obj
 0002:00000e10       ?g_PXTanEstCoefficients@aos@shdfnd@physx@@3UPX_VECTORF32@123@B 0000000180044e10     RTreeCooking.obj
 0002:00000e30       ?g_PXATanEstCoefficients@aos@shdfnd@physx@@3UPX_VECTORF32@123@B 0000000180044e30     RTreeCooking.obj
 0002:00000e50       ?g_PXASinEstCoefficients@aos@shdfnd@physx@@3UPX_VECTORF32@123@B 0000000180044e50     RTreeCooking.obj
 0002:00000e70       ?g_PXASinEstConstants@aos@shdfnd@physx@@3UPX_VECTORF32@123@B 0000000180044e70     RTreeCooking.obj
 0002:00000e90       ?g_PXPiConstants0@aos@shdfnd@physx@@3UPX_VECTORF32@123@B 0000000180044e90     RTreeCooking.obj
 0002:00000eb0       ?g_PXReciprocalTwoPi@aos@shdfnd@physx@@3UPX_VECTORF32@123@B 0000000180044eb0     RTreeCooking.obj
 0002:00000ed0       ?g_PXTwoPi@aos@shdfnd@physx@@3UPX_VECTORF32@123@B 0000000180044ed0     RTreeCooking.obj
 0002:00000f10       ?reductionFactors@SubSortQuick@physx@@2QBMB 0000000180044f10     RTreeCooking.obj
 0002:00000f20       ?stopAtTrisPerLeaf1@SubSortQuick@physx@@2QBIB 0000000180044f20     RTreeCooking.obj
 0002:00000ff0       ??_C@_0BA@DLCJDKDM@NonTrackedAlloc@ 0000000180044ff0     RTreeCooking.obj
 0002:00001008       ??_C@_07ELGPMHDP@metricL@  0000000180045008     RTreeCooking.obj
 0002:00001020       ??_C@_0GJ@HNBKBJPC@c?3?2users?2bestr?2documents?2librar@ 0000000180045020     RTreeCooking.obj
 0002:000010a0       ??_C@_07JPCOPIOA@metricR@  00000001800450a0     RTreeCooking.obj
 0002:000010b0       ??_C@_0M@OKCMHFAG@tempPermute@ 00000001800450b0     RTreeCooking.obj
 0002:000010c0       ??_C@_09CMNIGKAE@tempRanks@ 00000001800450c0     RTreeCooking.obj
 0002:000010d0       ??_C@_0FL@LPEHMGCG@c?3?2users?2bestr?2documents?2librar@ 00000001800450d0     RTreeCooking.obj
 0002:00001140       ??_C@_0FK@DDNADCOA@c?3?2users?2bestr?2documents?2librar@ 0000000180045140     RTreeCooking.obj
 0002:000011b0       ??_C@_0GD@NNAALEEJ@c?3?2users?2bestr?2documents?2librar@ 00000001800451b0     RTreeCooking.obj
 0002:00001228       __real@37800080            0000000180045228     RTreeCooking.obj
 0002:0000122c       __real@3a03126f            000000018004522c     RTreeCooking.obj
 0002:00001230       __real@3a83126f            0000000180045230     RTreeCooking.obj
 0002:00001234       __real@3f800000            0000000180045234     RTreeCooking.obj
 0002:00001238       __real@41100000            0000000180045238     RTreeCooking.obj
 0002:0000123c       __real@41700000            000000018004523c     RTreeCooking.obj
 0002:00001240       __real@42200000            0000000180045240     RTreeCooking.obj
 0002:00001244       __real@7f7fffff            0000000180045244     RTreeCooking.obj
 0002:00001248       __real@b7800080            0000000180045248     RTreeCooking.obj
 0002:0000124c       __real@ba83126f            000000018004524c     RTreeCooking.obj
 0002:00001250       __real@fe7fffff            0000000180045250     RTreeCooking.obj
 0002:00001254       __real@ff7fffff            0000000180045254     RTreeCooking.obj
 0002:00001260       __xmm@000000003a83126f3a83126f3a83126f 0000000180045260     RTreeCooking.obj
 0002:00001280       __xmm@00000000ba83126fba83126fba83126f 0000000180045280     RTreeCooking.obj
 0002:000012a0       __xmm@00000001000000010000000100000001 00000001800452a0     RTreeCooking.obj
 0002:000012c0       __xmm@00000003000000020000000100000000 00000001800452c0     RTreeCooking.obj
 0002:000012e0       __xmm@fe7fffff7e7fffff7e7fffff7e7fffff 00000001800452e0     RTreeCooking.obj
 0002:00001328       ??_7TriangleMeshData@Gu@physx@@6B@ 0000000180045328     TriangleMeshBuilder.obj
 0002:00001334       ??_C@_06KDGGGLIJ@PxVec3@   0000000180045334     TriangleMeshBuilder.obj
 0002:00001340       ??_C@_0GC@BBBKAKOO@c?3?2users?2bestr?2documents?2librar@ 0000000180045340     TriangleMeshBuilder.obj
 0002:000013b8       ??_C@_0L@KBOFAKLO@mTriangles@ 00000001800453b8     TriangleMeshBuilder.obj
 0002:000013c8       ??_C@_0BA@OCOIGPII@mGRB_triIndices@ 00000001800453c8     TriangleMeshBuilder.obj
 0002:000013e0       ??_7RTreeTriangleData@Gu@physx@@6B@ 00000001800453e0     TriangleMeshBuilder.obj
 0002:000013f0       ??_7BV4TriangleData@Gu@physx@@6B@ 00000001800453f0     TriangleMeshBuilder.obj
 0002:00001400       ??_7RemapCallback@RTreeCooker@physx@@6B@ 0000000180045400     TriangleMeshBuilder.obj
 0002:00001418       ??_7TriangleMeshBuilder@physx@@6B@ 0000000180045418     TriangleMeshBuilder.obj
 0002:00001448       ??_7RTreeTriangleMeshBuilder@physx@@6B@ 0000000180045448     TriangleMeshBuilder.obj
 0002:00001478       ??_7BV4TriangleMeshBuilder@physx@@6B@ 0000000180045478     TriangleMeshBuilder.obj
 0002:000014a8       ??_C@_0M@OJJHBOGG@edgeLookups@ 00000001800454a8     TriangleMeshBuilder.obj
 0002:000014c0       ??_C@_0HB@LFKCHPNN@c?3?2users?2bestr?2documents?2librar@ 00000001800454c0     TriangleMeshBuilder.obj
 0002:00001548       ??_C@_0BF@CCKBOJFO@Gu?3?3TriangleT?$DMPxU32?$DO@ 0000000180045548     TriangleMeshBuilder.obj
 0002:00001570       ??_C@_0HA@OEBPPBKL@c?3?2users?2bestr?2documents?2librar@ 0000000180045570     TriangleMeshBuilder.obj
 0002:000015f8       ??_C@_0DJ@IGODLHLP@TriangleMesh?3?5Enable?5mesh?5weldi@ 00000001800455f8     TriangleMeshBuilder.obj
 0002:00001640       ??_C@_0FJ@HHJLKGDF@TriangleMesh?3?5triangles?5are?5too@ 0000000180045640     TriangleMeshBuilder.obj
 0002:000016b0       ??_C@_0CN@KGPHHHLK@TriangleMesh?3?5mesh?5is?5too?5big?5f@ 00000001800456b0     TriangleMeshBuilder.obj
 0002:000016e8       ??_C@_0BL@DLEDFNFP@tempNormalsPerTri_prealloc@ 00000001800456e8     TriangleMeshBuilder.obj
 0002:00001708       ??_C@_0BD@NDAFHHFF@GRB_triAdjacencies@ 0000000180045708     TriangleMeshBuilder.obj
 0002:00001720       ??_C@_0DD@CMJGDCNN@TriangleMesh?3?3loadFromDesc?3?5des@ 0000000180045720     TriangleMeshBuilder.obj
 0002:00001760       ??_C@_0ED@ILJJNHIP@TriangleMesh?3?3loadFromDesc?3?5mPa@ 0000000180045760     TriangleMeshBuilder.obj
 0002:000017b0       ??_C@_0CK@BJFFGDPK@input?5mesh?5contains?5corrupted?5v@ 00000001800457b0     TriangleMeshBuilder.obj
 0002:000017e8       ??_C@_0BJ@BKHDBBHO@cleaning?5the?5mesh?5failed@ 00000001800457e8     TriangleMeshBuilder.obj
 0002:00001808       ??_C@_0BK@JIDHMMCE@BV4?5tree?5failed?5to?5build?4@ 0000000180045808     TriangleMeshBuilder.obj
 0002:00001828       ??_C@_0BL@DHNECNBE@BV32?5tree?5failed?5to?5build?4@ 0000000180045828     TriangleMeshBuilder.obj
 0002:00001848       ??_7RTreeCookerRemap@physx@@6B@ 0000000180045848     TriangleMeshBuilder.obj
 0002:00001860       ??_C@_0BM@OIFKLHDN@?$DMallocation?5names?5disabled?$DO@ 0000000180045860     TriangleMeshBuilder.obj
 0002:00001884       __real@34800000            0000000180045884     TriangleMeshBuilder.obj
 0002:00001888       __real@3951b717            0000000180045888     TriangleMeshBuilder.obj
 0002:0000188c       __real@3dcccccd            000000018004588c     TriangleMeshBuilder.obj
 0002:00001890       __real@48742400            0000000180045890     TriangleMeshBuilder.obj
 0002:000018a0       __xmm@7fffffff7fffffff7fffffff7fffffff 00000001800458a0     TriangleMeshBuilder.obj
 0002:000018c0       __xmm@80000000800000008000000080000000 00000001800458c0     TriangleMeshBuilder.obj
 0002:00001910       ??_C@_0HD@ENPCFCOG@c?3?2users?2bestr?2documents?2librar@ 0000000180045910     BigConvexDataBuilder.obj
 0002:000019a0       ??_C@_0BD@PGLLAGCI@BigConvexData?5data@ 00000001800459a0     BigConvexDataBuilder.obj
 0002:000019b8       __real@40000000            00000001800459b8     BigConvexDataBuilder.obj
 0002:000019f0       ??_C@_0HA@OIHPHH@c?3?2users?2bestr?2documents?2librar@ 00000001800459f0     ConvexHullBuilder.obj
 0002:00001a80       ??_C@_0EB@DCEIFDGC@ConvexHullBuilder?3?3init?3?5convex@ 0000000180045a80     ConvexHullBuilder.obj
 0002:00001ad0       ??_C@_0BE@KOOOMNLC@Gu?3?3HullPolygonData@ 0000000180045ad0     ConvexHullBuilder.obj
 0002:00001af0       ??_C@_0FM@KICBLCBH@Gu?3?3ConvexMesh?3?3checkHullPolygo@ 0000000180045af0     ConvexHullBuilder.obj
 0002:00001b60       ??_C@_0GO@HBFIOGLL@Gu?3?3ConvexMesh?3?3checkHullPolygo@ 0000000180045b60     ConvexHullBuilder.obj
 0002:00001be8       ??_C@_0BE@EJGGFHND@ConvexHullData?5data@ 0000000180045be8     ConvexHullBuilder.obj
 0002:00001c00       ??_C@_0HF@OLJFBIEL@ConvexHullBuilder?3?5convex?5hull?5@ 0000000180045c00     ConvexHullBuilder.obj
 0002:00001c90       ??_C@_0OG@JNHFOIL@ConvexHullBuilder?3?5convex?5hull?5@ 0000000180045c90     ConvexHullBuilder.obj
 0002:00001db0       ??_C@_0EJ@NIOIBAKH@Cooking?3?3cookConvexMesh?3?5non?9ma@ 0000000180045db0     ConvexHullBuilder.obj
 0002:00001e08       __real@3ca3d70a            0000000180045e08     ConvexHullBuilder.obj
 0002:00001e0c       __real@3eaaaaab            0000000180045e0c     ConvexHullBuilder.obj
 0002:00001e10       __real@3f000000            0000000180045e10     ConvexHullBuilder.obj
 0002:00001e18       ??_7ConvexHullLib@physx@@6B@ 0000000180045e18     ConvexHullLib.obj
 0002:00001e40       ??_C@_0GM@LOILLION@c?3?2users?2bestr?2documents?2librar@ 0000000180045e40     ConvexHullLib.obj
 0002:00001ec4       ??_C@_05LMJPANIN@PxU32@    0000000180045ec4     ConvexHullLib.obj
 0002:00001ecc       __real@358637bd            0000000180045ecc     ConvexHullLib.obj
 0002:00001ed0       __real@3c23d70a            0000000180045ed0     ConvexHullLib.obj
 0002:00001ed4       __real@3d4ccccd            0000000180045ed4     ConvexHullLib.obj
 0002:00001ed8       __real@7e7fffff            0000000180045ed8     ConvexHullLib.obj
 0002:00001f10       ??_C@_0GO@JLDHOFHA@c?3?2users?2bestr?2documents?2librar@ 0000000180045f10     ConvexHullUtils.obj
 0002:00001f94       ??_C@_04NCKNBPPK@PxU8@     0000000180045f94     ConvexHullUtils.obj
 0002:00001f9c       ??_C@_05CDCIKCPI@Vec4V@    0000000180045f9c     ConvexHullUtils.obj
 0002:00001fa4       __real@00800000            0000000180045fa4     ConvexHullUtils.obj
 0002:00001fa8       __real@3c8efa35            0000000180045fa8     ConvexHullUtils.obj
 0002:00001fac       __real@3e20d97c            0000000180045fac     ConvexHullUtils.obj
 0002:00001fb0       __real@4e6e6b28            0000000180045fb0     ConvexHullUtils.obj
 0002:00001fb4       __real@bf000000            0000000180045fb4     ConvexHullUtils.obj
 0002:00001fe8       ??_C@_0DF@LLFJIJGM@Gu?3?3ConvexMesh?3?3loadFromDesc?3?5d@ 0000000180045fe8     ConvexMeshBuilder.obj
 0002:00002030       ??_C@_0HA@MOEMNPCC@c?3?2users?2bestr?2documents?2librar@ 0000000180046030     ConvexMeshBuilder.obj
 0002:000020c0       ??_C@_0HK@JOGKIEAA@Gu?3?3ConvexMesh?3?5Mesh?5has?5a?5nega@ 00000001800460c0     ConvexMeshBuilder.obj
 0002:00002158       ??_C@_0DH@NJPPHFFD@Gu?3?3ConvexMesh?3?5Error?5computing@ 0000000180046158     ConvexMeshBuilder.obj
 0002:000021a0       ??_C@_0DJ@LJDLGLDJ@Gu?3?3ConvexMesh?3?3loadConvexHull?3@ 00000001800461a0     ConvexMeshBuilder.obj
 0002:000021f0       ??_C@_0HJ@KJANPPOE@ConvexMeshBuilder?3?3computeHullP@ 00000001800461f0     ConvexMeshBuilder.obj
 0002:00002288       ??_C@_0O@JMAGMMGG@PxHullPolygon@ 0000000180046288     ConvexMeshBuilder.obj
 0002:00002298       __real@33d6bf95            0000000180046298     ConvexMeshBuilder.obj
 0002:0000229c       __real@3f13cd3a            000000018004629c     ConvexMeshBuilder.obj
 0002:000022a0       __real@b3d6bf95            00000001800462a0     ConvexMeshBuilder.obj
 0002:000022a4       __real@bf800000            00000001800462a4     ConvexMeshBuilder.obj
 0002:000022b0       __xmm@80000000000000008000000000000000 00000001800462b0     ConvexMeshBuilder.obj
 0002:000022c8       ??_C@_0DP@PJBJBEGF@Meshmerizer?3?3extractHullPolygon@ 00000001800462c8     ConvexPolygonsBuilder.obj
 0002:00002320       ??_C@_0HE@FAHPPDDE@c?3?2users?2bestr?2documents?2librar@ 0000000180046320     ConvexPolygonsBuilder.obj
 0002:000023b0       ??_C@_0BL@MFNKFFFN@Reduced?5vertices?5hull?5data@ 00000001800463b0     ConvexPolygonsBuilder.obj
 0002:000023d0       ??_C@_0DL@IAFKOCCK@ConvexHullBuilder?3?5convex?5hull?5@ 00000001800463d0     ConvexPolygonsBuilder.obj
 0002:00002420       ??_C@_0GF@OJLJHAMH@ConvexHullBuilder?3?3CreateTriang@ 0000000180046420     ConvexPolygonsBuilder.obj
 0002:0000249c       __real@3ba3d70a            000000018004649c     ConvexPolygonsBuilder.obj
 0002:000024a0       ??_7InflationConvexHullLib@physx@@6B@ 00000001800464a0     InflationConvexHullLib.obj
 0002:000024d0       ??_C@_0HF@EMBBOEID@c?3?2users?2bestr?2documents?2librar@ 00000001800464d0     InflationConvexHullLib.obj
 0002:0000255c       __real@1e3ce508            000000018004655c     InflationConvexHullLib.obj
 0002:00002560       __real@33d6bf96            0000000180046560     InflationConvexHullLib.obj
 0002:00002564       __real@3ccccccd            0000000180046564     InflationConvexHullLib.obj
 0002:00002568       __real@3e800000            0000000180046568     InflationConvexHullLib.obj
 0002:0000256c       __real@3f7fa62f            000000018004656c     InflationConvexHullLib.obj
 0002:00002570       __real@40a00000            0000000180046570     InflationConvexHullLib.obj
 0002:00002574       __real@42340000            0000000180046574     InflationConvexHullLib.obj
 0002:00002578       __real@43b40000            0000000180046578     InflationConvexHullLib.obj
 0002:0000257c       __real@9e3ce508            000000018004657c     InflationConvexHullLib.obj
 0002:00002580       __real@bca3d70a            0000000180046580     InflationConvexHullLib.obj
 0002:00002584       __real@bf7fa62f            0000000180046584     InflationConvexHullLib.obj
 0002:00002590       __xmm@3ca3d70a3c23d70abc23d70a3f800000 0000000180046590     InflationConvexHullLib.obj
 0002:000025b0       __xmm@bca3d70a3c23d70a3ca3d70a3f800000 00000001800465b0     InflationConvexHullLib.obj
 0002:000025c8       ??_7QuickHullConvexHullLib@physx@@6B@ 00000001800465c8     QuickHullConvexHullLib.obj
 0002:000025f0       ??_C@_0BA@BPKNMKIA@QuickHullVertex@ 00000001800465f0     QuickHullConvexHullLib.obj
 0002:00002610       ??_C@_0HF@NKENFNCC@c?3?2users?2bestr?2documents?2librar@ 0000000180046610     QuickHullConvexHullLib.obj
 0002:000026a0       ??_C@_0GA@EPPAEJPM@QuickHullConvexHullLib?3?3findSim@ 00000001800466a0     QuickHullConvexHullLib.obj
 0002:00002720       ??_C@_0FB@NEBIJMML@QuickHullConvexHullLib?3?3findSim@ 0000000180046720     QuickHullConvexHullLib.obj
 0002:00002790       ??_C@_0FB@CLLCBEMM@QuickHullConvexHullLib?3?3findSim@ 0000000180046790     QuickHullConvexHullLib.obj
 0002:000027f8       ??_C@_0P@OFIBMBPE@ConvexMeshDesc@ 00000001800467f8     QuickHullConvexHullLib.obj
 0002:00002810       ??_C@_0BD@NDHBJDBB@Quickhull?5MemBlock@ 0000000180046810     QuickHullConvexHullLib.obj
 0002:00002828       __real@34c00000            0000000180046828     QuickHullConvexHullLib.obj
 0002:00002858       __real@00000000            0000000180046858     VolumeIntegration.obj
 0002:0000285c       __real@3c088889            000000018004685c     VolumeIntegration.obj
 0002:00002860       __real@3c888889            0000000180046860     VolumeIntegration.obj
 0002:00002864       __real@3d2aaaab            0000000180046864     VolumeIntegration.obj
 0002:00002868       __real@3e2aaaab            0000000180046868     VolumeIntegration.obj
 0002:00002870       __real@3f91111111111111    0000000180046870     VolumeIntegration.obj
 0002:00002880       __real@3fa5555555555555    0000000180046880     VolumeIntegration.obj
 0002:00002890       __real@3fa999999999999a    0000000180046890     VolumeIntegration.obj
 0002:000028a0       __real@3fb5555555555555    00000001800468a0     VolumeIntegration.obj
 0002:000028b0       __real@3fc5555555555555    00000001800468b0     VolumeIntegration.obj
 0002:000028c0       __real@3fd5555555555555    00000001800468c0     VolumeIntegration.obj
 0002:000028d0       __real@3fe0000000000000    00000001800468d0     VolumeIntegration.obj
 0002:000028e0       __real@3ff0000000000000    00000001800468e0     VolumeIntegration.obj
 0002:000028f0       __real@4008000000000000    00000001800468f0     VolumeIntegration.obj
 0002:00002900       __real@4010000000000000    0000000180046900     VolumeIntegration.obj
 0002:00002910       __real@bf91111111111111    0000000180046910     VolumeIntegration.obj
 0002:00002920       __real@bfa999999999999a    0000000180046920     VolumeIntegration.obj
 0002:00002930       __real@bfb5555555555555    0000000180046930     VolumeIntegration.obj
 0002:00002940       __real@bfc5555555555555    0000000180046940     VolumeIntegration.obj
 0002:00002950       __xmm@3f811111111111113f81111111111111 0000000180046950     VolumeIntegration.obj
 0002:00002970       __xmm@3f811111111111113f91111111111111 0000000180046970     VolumeIntegration.obj
 0002:00002990       __xmm@3f911111111111113f91111111111111 0000000180046990     VolumeIntegration.obj
 0002:000029b0       __xmm@3fa55555555555553fa5555555555555 00000001800469b0     VolumeIntegration.obj
 0002:000029d0       __xmm@3fa55555555555553fc5555555555555 00000001800469d0     VolumeIntegration.obj
 0002:000029e8       ??_C@_0DC@DMHHONHL@Adjacencies?3?3GetBoundaryVertice@ 00000001800469e8     Adjacencies.obj
 0002:00002a30       ??_C@_0GD@MCJFFMMI@c?3?2users?2bestr?2documents?2librar@ 0000000180046a30     Adjacencies.obj
 0002:00002aa8       ??_C@_0CK@KKNAOLHI@Adjacencies?3?3MakeLastRef?3?5NULL?5@ 0000000180046aa8     Adjacencies.obj
 0002:00002ae0       ??_C@_0DA@FMEHLBKI@Adjacencies?3?3UpdateLink?3?5invali@ 0000000180046ae0     Adjacencies.obj
 0002:00002b20       ??_C@_0EA@CPHOACLK@Adjacencies?3?3CreateDatabase?3?5ca@ 0000000180046b20     Adjacencies.obj
 0002:00002b98       ??_7PxCooking@physx@@6B@   0000000180046b98     Cooking.obj
 0002:00002c20       ??_7Cooking@physx@@6B@     0000000180046c20     Cooking.obj
 0002:00002cb0       ??_C@_0FC@PJIHAFK@Cooking?3?3validateTriangleMesh?3?5@ 0000000180046cb0     Cooking.obj
 0002:00002d20       ??_C@_0FP@EIDOPCEG@c?3?2users?2bestr?2documents?2librar@ 0000000180046d20     Cooking.obj
 0002:00002da0       ??_C@_0EK@EKAIJEBL@Cooking?3?3cookConvexMesh?3?5user?9p@ 0000000180046da0     Cooking.obj
 0002:00002e00       ??_C@_0FA@GFFGAPML@Cooking?3?3cookConvexMesh?3?5provid@ 0000000180046e00     Cooking.obj
 0002:00002e60       ??_C@_0EP@PKDCPNNO@Cooking?3?3cookConvexMesh?3?5provid@ 0000000180046e60     Cooking.obj
 0002:00002ec0       ??_C@_0EO@LKFMMDE@Cooking?3?3cookConvexMesh?3?5user?9p@ 0000000180046ec0     Cooking.obj
 0002:00002f20       ??_C@_0EN@FCEPCAFC@Cooking?3?3createHeightField?3?5use@ 0000000180046f20     Cooking.obj
 0002:00002f80       ??_C@_0GE@GEMFHKO@c?3?2users?2bestr?2documents?2librar@ 0000000180046f80     CookingUtils.obj
 0002:00002ff8       ??_C@_08MOINBLFP@EdgeData@ 0000000180046ff8     EdgeList.obj
 0002:00003010       ??_C@_0GA@FJKMLCBH@c?3?2users?2bestr?2documents?2librar@ 0000000180047010     EdgeList.obj
 0002:00003088       ??_C@_0BB@OMGANHJB@EdgeTriangleData@ 0000000180047088     EdgeList.obj
 0002:000030a0       ??_C@_0N@HMDODPCO@EdgeDescData@ 00000001800470a0     EdgeList.obj
 0002:000030b0       ??_C@_0BG@GLJDPFLF@EdgeList?5FacesByEdges@ 00000001800470b0     EdgeList.obj
 0002:000030d0       ??_C@_0CO@GBNJFPN@EdgeList?3?3CreateFacesToEdges?3?5N@ 00000001800470d0     EdgeList.obj
 0002:00003108       ??_C@_0BN@EPPJDECF@EdgeListBuilder?5FacesByEdges@ 0000000180047108     EdgeList.obj
 0002:00003130       ??_C@_0CO@EHJBBMNK@EdgeList?3?3ComputeActiveEdges?3?5N@ 0000000180047130     EdgeList.obj
 0002:00003168       ??_C@_0DI@GBHLFOFP@ActiveEdges?3?3ComputeConvexEdges@ 0000000180047168     EdgeList.obj
 0002:000031b0       ??_C@_0DM@JOGBLHDI@ActiveEdges?3?3ComputeConvexEdges@ 00000001800471b0     EdgeList.obj
 0002:00003200       ??_C@_0ED@FEMJKPEL@ActiveEdges?3?3ComputeConvexEdges@ 0000000180047200     EdgeList.obj
 0002:00003250       ??_C@_0EB@BFDPMFCD@ActiveEdges?3?3ComputeConvexEdges@ 0000000180047250     EdgeList.obj
 0002:000032a0       ??_C@_04DDKJGDCM@bool@     00000001800472a0     EdgeList.obj
 0002:000032a8       __real@bf7fbe77            00000001800472a8     EdgeList.obj
 0002:000032b0       ??_C@_0M@GOCDBJNH@MeshCleaner@ 00000001800472b0     MeshCleaner.obj
 0002:000032c0       ??_C@_0GD@PPPPKKGE@c?3?2users?2bestr?2documents?2librar@ 00000001800472c0     MeshCleaner.obj
 0002:00003338       ??_7Quantizer@physx@@6B@   0000000180047338     Quantizer.obj
 0002:00003368       ??_7QuantizerImpl@@6B@     0000000180047368     Quantizer.obj
 0002:000033a0       ??_C@_0GB@FDKFPEH@c?3?2users?2bestr?2documents?2librar@ 00000001800473a0     Quantizer.obj
 0002:00003414       __real@38d1b717            0000000180047414     Quantizer.obj
 0002:00003418       __real@3f0020c5            0000000180047418     Quantizer.obj
 0002:0000341c       __real@3f8020c5            000000018004741c     Quantizer.obj
 0002:00003420       __sz_PxFoundationCHECKED_x64_dll 0000000180047420     PxFoundationCHECKED_x64:PxFoundationCHECKED_x64.dll
 0002:00003440       __sz_PhysX3CommonCHECKED_x64_dll 0000000180047440     PhysX3CommonCHECKED_x64:PhysX3CommonCHECKED_x64.dll
 0002:00003460       ??_C@_1BK@DBDEIDLH@?$AAK?$AAE?$AAR?$AAN?$AAE?$AAL?$AA3?$AA2?$AA?4?$AAD?$AAL?$AAL@ 0000000180047460     delayimp:delayhlp.obj
 0002:00003480       ??_C@_0BI@OMNLIJDB@AcquireSRWLockExclusive@ 0000000180047480     delayimp:delayhlp.obj
 0002:000034a0       ??_C@_0BI@HMIEPCNJ@ReleaseSRWLockExclusive@ 00000001800474a0     delayimp:delayhlp.obj
 0002:000034c0       __pfnDliFailureHook2       00000001800474c0     delayimp:delayhk1.obj
 0002:000034d8       ??_7type_info@@6B@         00000001800474d8     MSVCRT:std_type_info_static.obj
 0002:00003568       _pDefaultRawDllMain        0000000180047568     MSVCRT:dll_dllmain.obj
 0002:00003568       _pRawDllMain               0000000180047568     MSVCRT:dll_dllmain.obj
 0002:00003580       _load_config_used          0000000180047580     MSVCRT:loadcfg.obj
 0002:00003980       ??_R4type_info@@6B@        0000000180047980     MSVCRT:std_type_info_static.obj
 0002:000039b0       ??_R3type_info@@8          00000001800479b0     MSVCRT:std_type_info_static.obj
 0002:000039c8       ??_R2type_info@@8          00000001800479c8     MSVCRT:std_type_info_static.obj
 0002:000039d8       ??_R1A@?0A@EA@type_info@@8 00000001800479d8     MSVCRT:std_type_info_static.obj
 0002:00003cc0       __rtc_iaa                  0000000180047cc0     MSVCRT:initsect.obj
 0002:00003dd0       __rtc_izz                  0000000180047dd0     MSVCRT:initsect.obj
 0002:00003ee0       __rtc_taa                  0000000180047ee0     MSVCRT:initsect.obj
 0002:00003ff0       __rtc_tzz                  0000000180047ff0     MSVCRT:initsect.obj
 0003:00000000       __pfnDliNotifyHook2        000000018004d000     WindowsCookingDelayLoadHook.obj
 0003:00000010       ?er@?1??neib@Tri@local@@QEAAAEAHHH@Z@4HA 000000018004d010     InflationConvexHullLib.obj
 0003:00000018       _fltused                   000000018004d018     MSVCRT:fltused.obj
 0003:00000020       __scrt_native_dllmain_reason 000000018004d020     MSVCRT:utility.obj
 0003:00000028       __security_cookie_complement 000000018004d028     MSVCRT:gs_cookie.obj
 0003:00000030       __security_cookie          000000018004d030     MSVCRT:gs_cookie.obj
 0003:00000040       __isa_available            000000018004d040     MSVCRT:cpu_disp.obj
 0003:00000044       __isa_enabled              000000018004d044     MSVCRT:cpu_disp.obj
 0003:00000048       __memcpy_nt_iters          000000018004d048     MSVCRT:cpu_disp.obj
 0003:00000054       __scrt_ucrt_dll_is_in_use  000000018004d054     MSVCRT:ucrt_stubs.obj
 0003:00000168       ??_R0?AVEdgeListBuilder@Gu@physx@@@8 000000018004d168     TriangleMeshBuilder.obj
 0003:000001a0       ??_R0?AVBV32Tree@Gu@physx@@@8 000000018004d1a0     TriangleMeshBuilder.obj
 0003:000001d0       ??_R0E@8                   000000018004d1d0     TriangleMeshBuilder.obj
 0003:000001e8       ??_R0I@8                   000000018004d1e8     TriangleMeshBuilder.obj
 0003:00000200       ??_R0G@8                   000000018004d200     TriangleMeshBuilder.obj
 0003:00000218       ??_R0?AUEdgeDescData@Gu@physx@@@8 000000018004d218     ConvexHullBuilder.obj
 0003:00000250       ??_R0_N@8                  000000018004d250     ConvexHullBuilder.obj
 0003:00000268       ??_R0?AVConvexHull@physx@@@8 000000018004d268     ConvexHullUtils.obj
 0003:00000298       ??_R0?AVBigConvexData@physx@@@8 000000018004d298     ConvexMeshBuilder.obj
 0003:000002d0       ??_R0?AUHullTriangleData@physx@@@8 000000018004d2d0     ConvexPolygonsBuilder.obj
 0003:00000308       ??_R0?AUPxHullPolygon@physx@@@8 000000018004d308     InflationConvexHullLib.obj
 0003:00000340       ??_R0?AVTri@local@@@8      000000018004d340     InflationConvexHullLib.obj
 0003:00000368       ??_R0?AVQuickHull@local@@@8 000000018004d368     QuickHullConvexHullLib.obj
 0003:00000398       ??_R0?AVAdjEdge@@@8        000000018004d398     Adjacencies.obj
 0003:000003c0       ??_R0?AVAdjTriangle@physx@@@8 000000018004d3c0     Adjacencies.obj
 0003:000003f0       ??_R0?AVHeightField@Gu@physx@@@8 000000018004d3f0     Cooking.obj
 0003:00000428       ??_R0?AVCooking@physx@@@8  000000018004d428     Cooking.obj
 0003:00000458       ??_R0?AVQuickHullConvexHullLib@physx@@@8 000000018004d458     Cooking.obj
 0003:00000498       ??_R0?AVInflationConvexHullLib@physx@@@8 000000018004d498     Cooking.obj
 0003:000004d8       ??_R0M@8                   000000018004d4d8     CookingUtils.obj
 0003:000004f0       ??_R0?AUEdgeData@Gu@physx@@@8 000000018004d4f0     EdgeList.obj
 0003:00000520       ??_R0?AUEdgeTriangleData@Gu@physx@@@8 000000018004d520     EdgeList.obj
 0003:00000560       ??_R0?AVQuantizerImpl@@@8  000000018004d560     Quantizer.obj
 0003:00000590       ??_R0?AVtype_info@@@8      000000018004d590     MSVCRT:std_type_info_static.obj
 0003:00000ad8       __hmod__PxFoundationCHECKED_x64_dll 000000018004dad8     PxFoundationCHECKED_x64:PxFoundationCHECKED_x64.dll
 0003:00000ae0       __hmod__PhysX3CommonCHECKED_x64_dll 000000018004dae0     PhysX3CommonCHECKED_x64:PhysX3CommonCHECKED_x64.dll
 0003:00000ae8       ?DloadKernel32@@3PEAUHINSTANCE__@@EA 000000018004dae8     delayimp:delayhlp.obj
 0003:00000af0       ?DloadAcquireSRWLockExclusive@@3P6AXPEA_K@ZEA 000000018004daf0     delayimp:delayhlp.obj
 0003:00000af8       ?DloadReleaseSRWLockExclusive@@3P6AXPEA_K@ZEA 000000018004daf8     delayimp:delayhlp.obj
 0003:00000b00       ?DloadSrwLock@@3_KA        000000018004db00     delayimp:delayhlp.obj
 0003:00000b08       ?DloadSectionLockCount@@3KA 000000018004db08     delayimp:delayhlp.obj
 0003:00000b0c       ?DloadSectionOldProtection@@3KA 000000018004db0c     delayimp:delayhlp.obj
 0003:00000b10       ?DloadSectionCommitPermanent@@3KA 000000018004db10     delayimp:delayhlp.obj
 0003:00000b20       ?__type_info_root_node@@3U__type_info_node@@A 000000018004db20     MSVCRT:tncleanup.obj
 0003:00000b38       ?_OptionsStorage@?1??__local_stdio_printf_options@@9@4_KA 000000018004db38     MSVCRT:default_local_stdio_options.obj
 0003:00000b48       ?_OptionsStorage@?1??__local_stdio_scanf_options@@9@4_KA 000000018004db48     MSVCRT:default_local_stdio_options.obj
 0003:00000b58       __scrt_current_native_startup_state 000000018004db58     MSVCRT:utility.obj
 0003:00000b60       __scrt_native_startup_lock 000000018004db60     MSVCRT:utility.obj
 0003:00000bb0       __scrt_debugger_hook_flag  000000018004dbb0     MSVCRT:utility_desktop.obj
 0003:00000bb4       __favor                    000000018004dbb4     MSVCRT:cpu_disp.obj
 0003:00000bb8       __dyn_tls_init_callback    000000018004dbb8     <common>
 0005:00000000       __imp_LoadLibraryA         0000000180051000     kernel32:KERNEL32.dll
 0005:00000008       __imp_GetStartupInfoW      0000000180051008     kernel32:KERNEL32.dll
 0005:00000010       __imp_SetUnhandledExceptionFilter 0000000180051010     kernel32:KERNEL32.dll
 0005:00000018       __imp_UnhandledExceptionFilter 0000000180051018     kernel32:KERNEL32.dll
 0005:00000020       __imp_IsDebuggerPresent    0000000180051020     kernel32:KERNEL32.dll
 0005:00000028       __imp_RtlVirtualUnwind     0000000180051028     kernel32:KERNEL32.dll
 0005:00000030       __imp_RtlLookupFunctionEntry 0000000180051030     kernel32:KERNEL32.dll
 0005:00000038       __imp_RtlCaptureContext    0000000180051038     kernel32:KERNEL32.dll
 0005:00000040       __imp_DisableThreadLibraryCalls 0000000180051040     kernel32:KERNEL32.dll
 0005:00000048       __imp_GetSystemTimeAsFileTime 0000000180051048     kernel32:KERNEL32.dll
 0005:00000050       __imp_GetCurrentThreadId   0000000180051050     kernel32:KERNEL32.dll
 0005:00000058       __imp_GetCurrentProcessId  0000000180051058     kernel32:KERNEL32.dll
 0005:00000060       __imp_QueryPerformanceCounter 0000000180051060     kernel32:KERNEL32.dll
 0005:00000068       __imp_InitializeSListHead  0000000180051068     kernel32:KERNEL32.dll
 0005:00000070       __imp_LoadLibraryExA       0000000180051070     kernel32:KERNEL32.dll
 0005:00000078       __imp_GetProcAddress       0000000180051078     kernel32:KERNEL32.dll
 0005:00000080       __imp_GetModuleHandleW     0000000180051080     kernel32:KERNEL32.dll
 0005:00000088       __imp_FreeLibrary          0000000180051088     kernel32:KERNEL32.dll
 0005:00000090       __imp_VirtualQuery         0000000180051090     kernel32:KERNEL32.dll
 0005:00000098       __imp_VirtualProtect       0000000180051098     kernel32:KERNEL32.dll
 0005:000000a0       __imp_GetSystemInfo        00000001800510a0     kernel32:KERNEL32.dll
 0005:000000a8       __imp_GetLastError         00000001800510a8     kernel32:KERNEL32.dll
 0005:000000b0       __imp_RaiseException       00000001800510b0     kernel32:KERNEL32.dll
 0005:000000b8       __imp_IsProcessorFeaturePresent 00000001800510b8     kernel32:KERNEL32.dll
 0005:000000c0       \177KERNEL32_NULL_THUNK_DATA 00000001800510c0     kernel32:KERNEL32.dll
 0005:00000138       __imp___std_type_info_name 0000000180051138     vcruntime:VCRUNTIME140.dll
 0005:00000140       __imp_memset               0000000180051140     vcruntime:VCRUNTIME140.dll
 0005:00000148       __imp__purecall            0000000180051148     vcruntime:VCRUNTIME140.dll
 0005:00000150       __imp_strstr               0000000180051150     vcruntime:VCRUNTIME140.dll
 0005:00000158       __imp___std_type_info_destroy_list 0000000180051158     vcruntime:VCRUNTIME140.dll
 0005:00000160       __imp___C_specific_handler 0000000180051160     vcruntime:VCRUNTIME140.dll
 0005:00000168       __imp_memcpy               0000000180051168     vcruntime:VCRUNTIME140.dll
 0005:00000170       \177VCRUNTIME140_NULL_THUNK_DATA 0000000180051170     vcruntime:VCRUNTIME140.dll
 0005:000001d0       __imp_free                 00000001800511d0     ucrt:api-ms-win-crt-heap-l1-1-0.dll
 0005:000001d8       \177api-ms-win-crt-heap-l1-1-0_NULL_THUNK_DATA 00000001800511d8     ucrt:api-ms-win-crt-heap-l1-1-0.dll
 0005:00000230       __imp__fpclass             0000000180051230     ucrt:api-ms-win-crt-math-l1-1-0.dll
 0005:00000238       __imp_cosf                 0000000180051238     ucrt:api-ms-win-crt-math-l1-1-0.dll
 0005:00000240       __imp_sinf                 0000000180051240     ucrt:api-ms-win-crt-math-l1-1-0.dll
 0005:00000248       __imp_atan2f               0000000180051248     ucrt:api-ms-win-crt-math-l1-1-0.dll
 0005:00000250       \177api-ms-win-crt-math-l1-1-0_NULL_THUNK_DATA 0000000180051250     ucrt:api-ms-win-crt-math-l1-1-0.dll
 0005:000002a8       __imp__initialize_onexit_table 00000001800512a8     ucrt:api-ms-win-crt-runtime-l1-1-0.dll
 0005:000002b0       __imp__seh_filter_dll      00000001800512b0     ucrt:api-ms-win-crt-runtime-l1-1-0.dll
 0005:000002b8       __imp__configure_narrow_argv 00000001800512b8     ucrt:api-ms-win-crt-runtime-l1-1-0.dll
 0005:000002c0       __imp__execute_onexit_table 00000001800512c0     ucrt:api-ms-win-crt-runtime-l1-1-0.dll
 0005:000002c8       __imp__initialize_narrow_environment 00000001800512c8     ucrt:api-ms-win-crt-runtime-l1-1-0.dll
 0005:000002d0       __imp__register_onexit_function 00000001800512d0     ucrt:api-ms-win-crt-runtime-l1-1-0.dll
 0005:000002d8       __imp__initterm            00000001800512d8     ucrt:api-ms-win-crt-runtime-l1-1-0.dll
 0005:000002e0       __imp__crt_atexit          00000001800512e0     ucrt:api-ms-win-crt-runtime-l1-1-0.dll
 0005:000002e8       __imp__cexit               00000001800512e8     ucrt:api-ms-win-crt-runtime-l1-1-0.dll
 0005:000002f0       __imp__initterm_e          00000001800512f0     ucrt:api-ms-win-crt-runtime-l1-1-0.dll
 0005:000002f8       __imp__crt_at_quick_exit   00000001800512f8     ucrt:api-ms-win-crt-runtime-l1-1-0.dll
 0005:00000300       __imp_terminate            0000000180051300     ucrt:api-ms-win-crt-runtime-l1-1-0.dll
 0005:00000308       \177api-ms-win-crt-runtime-l1-1-0_NULL_THUNK_DATA 0000000180051308     ucrt:api-ms-win-crt-runtime-l1-1-0.dll
 0005:00000370       __IMPORT_DESCRIPTOR_KERNEL32 0000000180051370     kernel32:KERNEL32.dll
 0005:00000384       __IMPORT_DESCRIPTOR_VCRUNTIME140 0000000180051384     vcruntime:VCRUNTIME140.dll
 0005:00000398       __IMPORT_DESCRIPTOR_api-ms-win-crt-math-l1-1-0 0000000180051398     ucrt:api-ms-win-crt-math-l1-1-0.dll
 0005:000003ac       __IMPORT_DESCRIPTOR_api-ms-win-crt-runtime-l1-1-0 00000001800513ac     ucrt:api-ms-win-crt-runtime-l1-1-0.dll
 0005:000003c0       __IMPORT_DESCRIPTOR_api-ms-win-crt-heap-l1-1-0 00000001800513c0     ucrt:api-ms-win-crt-heap-l1-1-0.dll
 0005:000003d4       __NULL_IMPORT_DESCRIPTOR   00000001800513d4     kernel32:KERNEL32.dll
 0006:00000000       __DELAY_IMPORT_DESCRIPTOR_PxFoundationCHECKED_x64_dll 0000000180052000     PxFoundationCHECKED_x64:PxFoundationCHECKED_x64.dll
 0006:00000020       __DELAY_IMPORT_DESCRIPTOR_PhysX3CommonCHECKED_x64_dll 0000000180052020     PhysX3CommonCHECKED_x64:PhysX3CommonCHECKED_x64.dll
 0006:00000040       __NULL_DELAY_IMPORT_DESCRIPTOR 0000000180052040     PxFoundationCHECKED_x64:PxFoundationCHECKED_x64.dll
 0006:00000168       \177PhysX3CommonCHECKED_x64_NULL_THUNK_DATA_DLN 0000000180052168     PhysX3CommonCHECKED_x64:PhysX3CommonCHECKED_x64.dll
 0006:00000270       \177PxFoundationCHECKED_x64_NULL_THUNK_DATA_DLN 0000000180052270     PxFoundationCHECKED_x64:PxFoundationCHECKED_x64.dll
 0006:000002e0       __imp_??1BV4Tree@Gu@physx@@QEAA@XZ 00000001800522e0     PhysX3CommonCHECKED_x64:PhysX3CommonCHECKED_x64.dll
 0006:000002e8       __imp_?releaseMemory@HeightField@Gu@physx@@QEAAXXZ 00000001800522e8     PhysX3CommonCHECKED_x64:PhysX3CommonCHECKED_x64.dll
 0006:000002f0       __imp_?loadFromDesc@HeightField@Gu@physx@@QEAA_NAEBVPxHeightFieldDesc@3@@Z 00000001800522f0     PhysX3CommonCHECKED_x64:PhysX3CommonCHECKED_x64.dll
 0006:000002f8       __imp_??0HeightField@Gu@physx@@QEAA@PEAVGuMeshFactory@2@@Z 00000001800522f8     PhysX3CommonCHECKED_x64:PhysX3CommonCHECKED_x64.dll
 0006:00000300       __imp_?ReadHeader@Gu@physx@@YA_NEEEEAEAIAEA_NAEAVPxInputStream@2@@Z 0000000180052300     PhysX3CommonCHECKED_x64:PhysX3CommonCHECKED_x64.dll
 0006:00000308       __imp_?readDword@physx@@YAI_NAEAVPxInputStream@1@@Z 0000000180052308     PhysX3CommonCHECKED_x64:PhysX3CommonCHECKED_x64.dll
 0006:00000310       __imp_??1BigConvexData@physx@@QEAA@XZ 0000000180052310     PhysX3CommonCHECKED_x64:PhysX3CommonCHECKED_x64.dll
 0006:00000318       __imp_??0BigConvexData@physx@@QEAA@XZ 0000000180052318     PhysX3CommonCHECKED_x64:PhysX3CommonCHECKED_x64.dll
 0006:00000320       __imp_?computeOBBPoints@Gu@physx@@YAXPEIAVPxVec3@2@AEBV32@1111@Z 0000000180052320     PhysX3CommonCHECKED_x64:PhysX3CommonCHECKED_x64.dll
 0006:00000328       __imp_?Sort@RadixSortBuffered@Cm@physx@@QEAAAEAV123@PEBIIW4RadixHint@23@@Z 0000000180052328     PhysX3CommonCHECKED_x64:PhysX3CommonCHECKED_x64.dll
 0006:00000330       __imp_??1RadixSortBuffered@Cm@physx@@UEAA@XZ 0000000180052330     PhysX3CommonCHECKED_x64:PhysX3CommonCHECKED_x64.dll
 0006:00000338       __imp_??0RadixSortBuffered@Cm@physx@@QEAA@XZ 0000000180052338     PhysX3CommonCHECKED_x64:PhysX3CommonCHECKED_x64.dll
 0006:00000340       __imp_?CreateOffsets@BigConvexData@physx@@IEAAXXZ 0000000180052340     PhysX3CommonCHECKED_x64:PhysX3CommonCHECKED_x64.dll
 0006:00000348       __imp_?StoreIndices@Gu@physx@@YAXGIPEBGAEAVPxOutputStream@2@_N@Z 0000000180052348     PhysX3CommonCHECKED_x64:PhysX3CommonCHECKED_x64.dll
 0006:00000350       __imp_?WriteHeader@Gu@physx@@YA_NEEEEI_NAEAVPxOutputStream@2@@Z 0000000180052350     PhysX3CommonCHECKED_x64:PhysX3CommonCHECKED_x64.dll
 0006:00000358       __imp_?computeMaxIndex@physx@@YAGPEBGI@Z 0000000180052358     PhysX3CommonCHECKED_x64:PhysX3CommonCHECKED_x64.dll
 0006:00000360       __imp_?BuildBV32Ex@Gu@physx@@YA_NAEAVBV32Tree@12@AEAVSourceMesh@12@MI@Z 0000000180052360     PhysX3CommonCHECKED_x64:PhysX3CommonCHECKED_x64.dll
 0006:00000368       __imp_?writeWord@physx@@YAXG_NAEAVPxOutputStream@1@@Z 0000000180052368     PhysX3CommonCHECKED_x64:PhysX3CommonCHECKED_x64.dll
 0006:00000370       __imp_?BuildBV4Ex@Gu@physx@@YA_NAEAVBV4Tree@12@AEAVSourceMesh@12@MI@Z 0000000180052370     PhysX3CommonCHECKED_x64:PhysX3CommonCHECKED_x64.dll
 0006:00000378       __imp_?writeDword@physx@@YAXI_NAEAVPxOutputStream@1@@Z 0000000180052378     PhysX3CommonCHECKED_x64:PhysX3CommonCHECKED_x64.dll
 0006:00000380       __imp_?writeFloat@physx@@YAXM_NAEAVPxOutputStream@1@@Z 0000000180052380     PhysX3CommonCHECKED_x64:PhysX3CommonCHECKED_x64.dll
 0006:00000388       __imp_?writeHeader@physx@@YA_NCCCCI_NAEAVPxOutputStream@1@@Z 0000000180052388     PhysX3CommonCHECKED_x64:PhysX3CommonCHECKED_x64.dll
 0006:00000390       __imp_??0SourceMesh@Gu@physx@@QEAA@XZ 0000000180052390     PhysX3CommonCHECKED_x64:PhysX3CommonCHECKED_x64.dll
 0006:00000398       __imp_??1SourceMesh@Gu@physx@@QEAA@XZ 0000000180052398     PhysX3CommonCHECKED_x64:PhysX3CommonCHECKED_x64.dll
 0006:000003a0       __imp_??0BV4Tree@Gu@physx@@QEAA@XZ 00000001800523a0     PhysX3CommonCHECKED_x64:PhysX3CommonCHECKED_x64.dll
 0006:000003a8       __imp_??1HeightField@Gu@physx@@UEAA@XZ 00000001800523a8     PhysX3CommonCHECKED_x64:PhysX3CommonCHECKED_x64.dll
 0006:000003b0       __imp_??0BV32Tree@Gu@physx@@QEAA@XZ 00000001800523b0     PhysX3CommonCHECKED_x64:PhysX3CommonCHECKED_x64.dll
 0006:000003b8       __imp_??1BV32Tree@Gu@physx@@QEAA@XZ 00000001800523b8     PhysX3CommonCHECKED_x64:PhysX3CommonCHECKED_x64.dll
 0006:000003c0       __imp_?writeFloatBuffer@physx@@YAXPEBMI_NAEAVPxOutputStream@1@@Z 00000001800523c0     PhysX3CommonCHECKED_x64:PhysX3CommonCHECKED_x64.dll
 0006:000003c8       __imp_?writeWordBuffer@physx@@YAXPEBGI_NAEAVPxOutputStream@1@@Z 00000001800523c8     PhysX3CommonCHECKED_x64:PhysX3CommonCHECKED_x64.dll
 0006:000003d0       __imp_?computeMaxIndex@physx@@YAIPEBII@Z 00000001800523d0     PhysX3CommonCHECKED_x64:PhysX3CommonCHECKED_x64.dll
 0006:000003d8       __imp_?storeIndices@physx@@YAXIIPEBIAEAVPxOutputStream@1@_N@Z 00000001800523d8     PhysX3CommonCHECKED_x64:PhysX3CommonCHECKED_x64.dll
 0006:000003e0       __imp_?computeBoundsAroundVertices@Gu@physx@@YAXAEAVPxBounds3@2@IPEIBVPxVec3@2@@Z 00000001800523e0     PhysX3CommonCHECKED_x64:PhysX3CommonCHECKED_x64.dll
 0006:000003e8       \177PhysX3CommonCHECKED_x64_NULL_THUNK_DATA_DLA 00000001800523e8     PhysX3CommonCHECKED_x64:PhysX3CommonCHECKED_x64.dll
 0006:00000470       __imp_??1FPUGuard@shdfnd@physx@@QEAA@XZ 0000000180052470     PxFoundationCHECKED_x64:PxFoundationCHECKED_x64.dll
 0006:00000478       __imp_??0FPUGuard@shdfnd@physx@@QEAA@XZ 0000000180052478     PxFoundationCHECKED_x64:PxFoundationCHECKED_x64.dll
 0006:00000480       __imp_?decRefCount@Foundation@shdfnd@physx@@SAXXZ 0000000180052480     PxFoundationCHECKED_x64:PxFoundationCHECKED_x64.dll
 0006:00000488       __imp_?incRefCount@Foundation@shdfnd@physx@@SAXXZ 0000000180052488     PxFoundationCHECKED_x64:PxFoundationCHECKED_x64.dll
 0006:00000490       __imp_?PxDiagonalize@physx@@YA?AVPxVec3@1@AEBVPxMat33@1@AEAVPxQuat@1@@Z 0000000180052490     PxFoundationCHECKED_x64:PxFoundationCHECKED_x64.dll
 0006:00000498       __imp_?error@Foundation@shdfnd@physx@@QEAAXW4Enum@PxErrorCode@3@PEBDH1ZZ 0000000180052498     PxFoundationCHECKED_x64:PxFoundationCHECKED_x64.dll
 0006:000004a0       __imp_?getInstance@Foundation@shdfnd@physx@@SAAEAV123@XZ 00000001800524a0     PxFoundationCHECKED_x64:PxFoundationCHECKED_x64.dll
 0006:000004a8       __imp_PxGetFoundation      00000001800524a8     PxFoundationCHECKED_x64:PxFoundationCHECKED_x64.dll
 0006:000004b0       __imp_?deallocate@TempAllocator@shdfnd@physx@@QEAAXPEAX@Z 00000001800524b0     PxFoundationCHECKED_x64:PxFoundationCHECKED_x64.dll
 0006:000004b8       __imp_?allocate@TempAllocator@shdfnd@physx@@QEAAPEAX_KPEBDH@Z 00000001800524b8     PxFoundationCHECKED_x64:PxFoundationCHECKED_x64.dll
 0006:000004c0       __imp_?deallocate@NamedAllocator@shdfnd@physx@@QEAAXPEAX@Z 00000001800524c0     PxFoundationCHECKED_x64:PxFoundationCHECKED_x64.dll
 0006:000004c8       __imp_?allocate@NamedAllocator@shdfnd@physx@@QEAAPEAX_KPEBDH@Z 00000001800524c8     PxFoundationCHECKED_x64:PxFoundationCHECKED_x64.dll
 0006:000004d0       __imp_??1NamedAllocator@shdfnd@physx@@QEAA@XZ 00000001800524d0     PxFoundationCHECKED_x64:PxFoundationCHECKED_x64.dll
 0006:000004d8       __imp_??0NamedAllocator@shdfnd@physx@@QEAA@AEBV012@@Z 00000001800524d8     PxFoundationCHECKED_x64:PxFoundationCHECKED_x64.dll
 0006:000004e0       __imp_??0NamedAllocator@shdfnd@physx@@QEAA@PEBD@Z 00000001800524e0     PxFoundationCHECKED_x64:PxFoundationCHECKED_x64.dll
 0006:000004e8       __imp_?getAllocator@shdfnd@physx@@YAAEAVPxAllocatorCallback@2@XZ 00000001800524e8     PxFoundationCHECKED_x64:PxFoundationCHECKED_x64.dll
 0006:000004f0       \177PxFoundationCHECKED_x64_NULL_THUNK_DATA_DLA 00000001800524f0     PxFoundationCHECKED_x64:PxFoundationCHECKED_x64.dll
 0006:000010f8       \177PxFoundationCHECKED_x64_NULL_THUNK_DATA_DLB 00000001800530f8     PxFoundationCHECKED_x64:PxFoundationCHECKED_x64.dll
 0006:00001180       \177PhysX3CommonCHECKED_x64_NULL_THUNK_DATA_DLB 0000000180053180     PhysX3CommonCHECKED_x64:PhysX3CommonCHECKED_x64.dll
 0007:00000000       __guard_check_icall_fptr   0000000180054000     MSVCRT:guard_support.obj
 0007:00000010       __guard_dispatch_icall_fptr 0000000180054010     MSVCRT:guard_support.obj

 entry point at        0001:0000087f

 Static symbols

 0004:fffb2000       $pdata$??_GConvexHullLib@physx@@UEAAPEAXI@Z 0000000180000000     QuickHullConvexHullLib.obj
 0002:fffbc000       $unwind$??_GConvexHullLib@physx@@UEAAPEAXI@Z 0000000180000000     QuickHullConvexHullLib.obj
 0004:fffb2000       $pdata$2$?getInverse@PxMat33@physx@@QEBA?BV12@XZ 0000000180000000     QuickHullConvexHullLib.obj
 0002:fffbc000       $unwind$?growAndPushBack@?$Array@VPxPlane@physx@@VNamedAllocator@shdfnd@2@@shdfnd@physx@@IEAAAEAVPxPlane@3@AEBV43@@Z 0000000180000000     QuickHullConvexHullLib.obj
 0004:fffb2000       $pdata$?growAndPushBack@?$Array@VPxPlane@physx@@VNamedAllocator@shdfnd@2@@shdfnd@physx@@IEAAAEAVPxPlane@3@AEBV43@@Z 0000000180000000     QuickHullConvexHullLib.obj
 0002:fffbc000       $chain$0$?growAndPushBack@?$Array@VPxPlane@physx@@VNamedAllocator@shdfnd@2@@shdfnd@physx@@IEAAAEAVPxPlane@3@AEBV43@@Z 0000000180000000     QuickHullConvexHullLib.obj
 0004:fffb2000       $pdata$0$?growAndPushBack@?$Array@VPxPlane@physx@@VNamedAllocator@shdfnd@2@@shdfnd@physx@@IEAAAEAVPxPlane@3@AEBV43@@Z 0000000180000000     QuickHullConvexHullLib.obj
 0004:fffb2000       $pdata$?growAndPushBack@?$Array@VPxVec3@physx@@VNamedAllocator@shdfnd@2@@shdfnd@physx@@IEAAAEAVPxVec3@3@AEBV43@@Z 0000000180000000     Quantizer.obj
 0000:fffa8000       .debug$S                   0000000180000000     PhysX3CookingCHECKED_x64.exp
 0000:fffa8000       .debug$S                   0000000180000000     PxFoundationCHECKED_x64:PxFoundationCHECKED_x64.dll
 0000:fffa8000       .debug$S                   0000000180000000     kernel32:KERNEL32.dll
 0000:fffa8000       .debug$S                   0000000180000000     kernel32:KERNEL32.dll
 0000:fffa8000       .debug$S                   0000000180000000     kernel32:KERNEL32.dll
 0000:fffa8000       .debug$S                   0000000180000000     kernel32:KERNEL32.dll
 0000:fffa8000       .debug$S                   0000000180000000     kernel32:KERNEL32.dll
 0000:fffa8000       .debug$S                   0000000180000000     kernel32:KERNEL32.dll
 0000:fffa8000       .debug$S                   0000000180000000     kernel32:KERNEL32.dll
 0000:fffa8000       .debug$S                   0000000180000000     kernel32:KERNEL32.dll
 0000:fffa8000       .debug$S                   0000000180000000     kernel32:KERNEL32.dll
 0000:fffa8000       .debug$S                   0000000180000000     kernel32:KERNEL32.dll
 0000:fffa8000       .debug$S                   0000000180000000     kernel32:KERNEL32.dll
 0000:fffa8000       .debug$S                   0000000180000000     kernel32:KERNEL32.dll
 0000:fffa8000       .debug$S                   0000000180000000     kernel32:KERNEL32.dll
 0000:fffa8000       .debug$S                   0000000180000000     kernel32:KERNEL32.dll
 0000:fffa8000       .debug$S                   0000000180000000     kernel32:KERNEL32.dll
 0000:fffa8000       .debug$S                   0000000180000000     kernel32:KERNEL32.dll
 0000:fffa8000       .debug$S                   0000000180000000     kernel32:KERNEL32.dll
 0000:fffa8000       .debug$S                   0000000180000000     kernel32:KERNEL32.dll
 0000:fffa8000       .debug$S                   0000000180000000     kernel32:KERNEL32.dll
 0000:fffa8000       .debug$S                   0000000180000000     kernel32:KERNEL32.dll
 0000:fffa8000       .debug$S                   0000000180000000     kernel32:KERNEL32.dll
 0000:fffa8000       .debug$S                   0000000180000000     kernel32:KERNEL32.dll
 0000:fffa8000       .debug$S                   0000000180000000     kernel32:KERNEL32.dll
 0002:fffbc000       $unwind$?growAndPushBack@?$Array@VPxVec3@physx@@VNamedAllocator@shdfnd@2@@shdfnd@physx@@IEAAAEAVPxVec3@3@AEBV43@@Z 0000000180000000     Quantizer.obj
 0000:fffa8000       .debug$S                   0000000180000000     PxFoundationCHECKED_x64:PxFoundationCHECKED_x64.dll
 0000:fffa8000       .debug$S                   0000000180000000     PxFoundationCHECKED_x64:PxFoundationCHECKED_x64.dll
 0000:fffa8000       .debug$S                   0000000180000000     ucrt:api-ms-win-crt-runtime-l1-1-0.dll
 0000:fffa8000       .debug$S                   0000000180000000     ucrt:api-ms-win-crt-runtime-l1-1-0.dll
 0000:fffa8000       .debug$S                   0000000180000000     ucrt:api-ms-win-crt-runtime-l1-1-0.dll
 0000:fffa8000       .debug$S                   0000000180000000     ucrt:api-ms-win-crt-runtime-l1-1-0.dll
 0000:fffa8000       .debug$S                   0000000180000000     ucrt:api-ms-win-crt-runtime-l1-1-0.dll
 0000:fffa8000       .debug$S                   0000000180000000     ucrt:api-ms-win-crt-runtime-l1-1-0.dll
 0000:fffa8000       .debug$S                   0000000180000000     ucrt:api-ms-win-crt-runtime-l1-1-0.dll
 0000:fffa8000       .debug$S                   0000000180000000     ucrt:api-ms-win-crt-runtime-l1-1-0.dll
 0000:fffa8000       .debug$S                   0000000180000000     ucrt:api-ms-win-crt-runtime-l1-1-0.dll
 0000:fffa8000       .debug$S                   0000000180000000     ucrt:api-ms-win-crt-runtime-l1-1-0.dll
 0000:fffa8000       .debug$S                   0000000180000000     ucrt:api-ms-win-crt-heap-l1-1-0.dll
 0000:fffa8000       .debug$S                   0000000180000000     ucrt:api-ms-win-crt-runtime-l1-1-0.dll
 0000:fffa8000       .debug$S                   0000000180000000     ucrt:api-ms-win-crt-runtime-l1-1-0.dll
 0000:fffa8000       .debug$S                   0000000180000000     ucrt:api-ms-win-crt-math-l1-1-0.dll
 0000:fffa8000       .debug$S                   0000000180000000     ucrt:api-ms-win-crt-math-l1-1-0.dll
 0000:fffa8000       .debug$S                   0000000180000000     ucrt:api-ms-win-crt-math-l1-1-0.dll
 0000:fffa8000       .debug$S                   0000000180000000     ucrt:api-ms-win-crt-math-l1-1-0.dll
 0000:fffa8000       .debug$S                   0000000180000000     PxFoundationCHECKED_x64:PxFoundationCHECKED_x64.dll
 0000:fffa8000       .debug$S                   0000000180000000     vcruntime:VCRUNTIME140.dll
 0000:fffa8000       .debug$S                   0000000180000000     vcruntime:VCRUNTIME140.dll
 0000:fffa8000       .debug$S                   0000000180000000     vcruntime:VCRUNTIME140.dll
 0000:fffa8000       .debug$S                   0000000180000000     vcruntime:VCRUNTIME140.dll
 0000:fffa8000       .debug$S                   0000000180000000     vcruntime:VCRUNTIME140.dll
 0000:fffa8000       .debug$S                   0000000180000000     vcruntime:VCRUNTIME140.dll
 0000:fffa8000       .debug$S                   0000000180000000     vcruntime:VCRUNTIME140.dll
 0002:fffbc000       $chain$1$?growAndPushBack@?$Array@VPxPlane@physx@@VNamedAllocator@shdfnd@2@@shdfnd@physx@@IEAAAEAVPxPlane@3@AEBV43@@Z 0000000180000000     QuickHullConvexHullLib.obj
 0004:fffb2000       $pdata$1$?growAndPushBack@?$Array@VPxPlane@physx@@VNamedAllocator@shdfnd@2@@shdfnd@physx@@IEAAAEAVPxPlane@3@AEBV43@@Z 0000000180000000     QuickHullConvexHullLib.obj
 0002:fffbc000       $chain$2$?growAndPushBack@?$Array@VPxPlane@physx@@VNamedAllocator@shdfnd@2@@shdfnd@physx@@IEAAAEAVPxPlane@3@AEBV43@@Z 0000000180000000     QuickHullConvexHullLib.obj
 0004:fffb2000       $pdata$2$?growAndPushBack@?$Array@VPxPlane@physx@@VNamedAllocator@shdfnd@2@@shdfnd@physx@@IEAAAEAVPxPlane@3@AEBV43@@Z 0000000180000000     QuickHullConvexHullLib.obj
 0002:fffbc000       $chain$3$?growAndPushBack@?$Array@VPxPlane@physx@@VNamedAllocator@shdfnd@2@@shdfnd@physx@@IEAAAEAVPxPlane@3@AEBV43@@Z 0000000180000000     QuickHullConvexHullLib.obj
 0004:fffb2000       $pdata$3$?growAndPushBack@?$Array@VPxPlane@physx@@VNamedAllocator@shdfnd@2@@shdfnd@physx@@IEAAAEAVPxPlane@3@AEBV43@@Z 0000000180000000     QuickHullConvexHullLib.obj
 0002:fffbc000       $unwind$?recreate@?$Array@VPxPlane@physx@@VNamedAllocator@shdfnd@2@@shdfnd@physx@@IEAAXI@Z 0000000180000000     QuickHullConvexHullLib.obj
 0004:fffb2000       $pdata$?recreate@?$Array@VPxPlane@physx@@VNamedAllocator@shdfnd@2@@shdfnd@physx@@IEAAXI@Z 0000000180000000     QuickHullConvexHullLib.obj
 0002:fffbc000       $chain$0$?recreate@?$Array@VPxPlane@physx@@VNamedAllocator@shdfnd@2@@shdfnd@physx@@IEAAXI@Z 0000000180000000     QuickHullConvexHullLib.obj
 0004:fffb2000       $pdata$0$?recreate@?$Array@VPxPlane@physx@@VNamedAllocator@shdfnd@2@@shdfnd@physx@@IEAAXI@Z 0000000180000000     QuickHullConvexHullLib.obj
 0002:fffbc000       $chain$1$?recreate@?$Array@VPxPlane@physx@@VNamedAllocator@shdfnd@2@@shdfnd@physx@@IEAAXI@Z 0000000180000000     QuickHullConvexHullLib.obj
 0004:fffb2000       $pdata$1$?recreate@?$Array@VPxPlane@physx@@VNamedAllocator@shdfnd@2@@shdfnd@physx@@IEAAXI@Z 0000000180000000     QuickHullConvexHullLib.obj
 0000:fffac000       __guard_fids___scrt_set_unhandled_exception_filter 0000000180000000     MSVCRT:utility_desktop.obj
 0002:fffbc000       $unwind$??_GConvexHull@physx@@QEAAPEAXI@Z 0000000180000000     QuickHullConvexHullLib.obj
 0004:fffb2000       $pdata$??_GConvexHull@physx@@QEAAPEAXI@Z 0000000180000000     QuickHullConvexHullLib.obj
 0002:fffbc000       $chain$2$?getInverse@PxMat33@physx@@QEBA?BV12@XZ 0000000180000000     QuickHullConvexHullLib.obj
 0004:fffb2000       $pdata$1$?getInverse@PxMat33@physx@@QEBA?BV12@XZ 0000000180000000     QuickHullConvexHullLib.obj
 0002:fffbc000       $chain$1$?getInverse@PxMat33@physx@@QEBA?BV12@XZ 0000000180000000     QuickHullConvexHullLib.obj
 0004:fffb2000       $pdata$?getInverse@PxMat33@physx@@QEBA?BV12@XZ 0000000180000000     QuickHullConvexHullLib.obj
 0002:fffbc000       $unwind$?getInverse@PxMat33@physx@@QEBA?BV12@XZ 0000000180000000     QuickHullConvexHullLib.obj
 0004:fffb2000       $pdata$??_H@YAXPEAX_K1P6APEAX0@Z@Z 0000000180000000     QuickHullConvexHullLib.obj
 0002:fffbc000       $unwind$??_H@YAXPEAX_K1P6APEAX0@Z@Z 0000000180000000     QuickHullConvexHullLib.obj
 0004:fffb2000       $pdata$1$?recreate@?$Array@VPxPlane@physx@@VNamedAllocator@shdfnd@2@@shdfnd@physx@@IEAAXI@Z 0000000180000000     InflationConvexHullLib.obj
 0002:fffbc000       $chain$1$?recreate@?$Array@VPxPlane@physx@@VNamedAllocator@shdfnd@2@@shdfnd@physx@@IEAAXI@Z 0000000180000000     InflationConvexHullLib.obj
 0004:fffb2000       $pdata$0$?recreate@?$Array@VPxPlane@physx@@VNamedAllocator@shdfnd@2@@shdfnd@physx@@IEAAXI@Z 0000000180000000     InflationConvexHullLib.obj
 0002:fffbc000       $chain$0$?recreate@?$Array@VPxPlane@physx@@VNamedAllocator@shdfnd@2@@shdfnd@physx@@IEAAXI@Z 0000000180000000     InflationConvexHullLib.obj
 0004:fffb2000       $pdata$?recreate@?$Array@VPxPlane@physx@@VNamedAllocator@shdfnd@2@@shdfnd@physx@@IEAAXI@Z 0000000180000000     InflationConvexHullLib.obj
 0002:fffbc000       $unwind$?recreate@?$Array@VPxPlane@physx@@VNamedAllocator@shdfnd@2@@shdfnd@physx@@IEAAXI@Z 0000000180000000     InflationConvexHullLib.obj
 0004:fffb2000       $pdata$3$?growAndPushBack@?$Array@VPxPlane@physx@@VNamedAllocator@shdfnd@2@@shdfnd@physx@@IEAAAEAVPxPlane@3@AEBV43@@Z 0000000180000000     InflationConvexHullLib.obj
 0002:fffbc000       $chain$3$?growAndPushBack@?$Array@VPxPlane@physx@@VNamedAllocator@shdfnd@2@@shdfnd@physx@@IEAAAEAVPxPlane@3@AEBV43@@Z 0000000180000000     InflationConvexHullLib.obj
 0004:fffb2000       $pdata$2$?growAndPushBack@?$Array@VPxPlane@physx@@VNamedAllocator@shdfnd@2@@shdfnd@physx@@IEAAAEAVPxPlane@3@AEBV43@@Z 0000000180000000     InflationConvexHullLib.obj
 0002:fffbc000       $chain$2$?growAndPushBack@?$Array@VPxPlane@physx@@VNamedAllocator@shdfnd@2@@shdfnd@physx@@IEAAAEAVPxPlane@3@AEBV43@@Z 0000000180000000     InflationConvexHullLib.obj
 0004:fffb2000       $pdata$1$?growAndPushBack@?$Array@VPxPlane@physx@@VNamedAllocator@shdfnd@2@@shdfnd@physx@@IEAAAEAVPxPlane@3@AEBV43@@Z 0000000180000000     InflationConvexHullLib.obj
 0002:fffbc000       $chain$1$?growAndPushBack@?$Array@VPxPlane@physx@@VNamedAllocator@shdfnd@2@@shdfnd@physx@@IEAAAEAVPxPlane@3@AEBV43@@Z 0000000180000000     InflationConvexHullLib.obj
 0004:fffb2000       $pdata$0$?growAndPushBack@?$Array@VPxPlane@physx@@VNamedAllocator@shdfnd@2@@shdfnd@physx@@IEAAAEAVPxPlane@3@AEBV43@@Z 0000000180000000     InflationConvexHullLib.obj
 0002:fffbc000       $chain$0$?growAndPushBack@?$Array@VPxPlane@physx@@VNamedAllocator@shdfnd@2@@shdfnd@physx@@IEAAAEAVPxPlane@3@AEBV43@@Z 0000000180000000     InflationConvexHullLib.obj
 0004:fffb2000       $pdata$?growAndPushBack@?$Array@VPxPlane@physx@@VNamedAllocator@shdfnd@2@@shdfnd@physx@@IEAAAEAVPxPlane@3@AEBV43@@Z 0000000180000000     InflationConvexHullLib.obj
 0002:fffbc000       $unwind$?growAndPushBack@?$Array@VPxPlane@physx@@VNamedAllocator@shdfnd@2@@shdfnd@physx@@IEAAAEAVPxPlane@3@AEBV43@@Z 0000000180000000     InflationConvexHullLib.obj
 0004:fffb2000       $pdata$?growAndPushBack@?$Array@VHalfEdge@ConvexHull@physx@@VNamedAllocator@shdfnd@3@@shdfnd@physx@@IEAAAEAVHalfEdge@ConvexHull@3@AEBV453@@Z 0000000180000000     InflationConvexHullLib.obj
 0002:fffbc000       $unwind$?growAndPushBack@?$Array@VHalfEdge@ConvexHull@physx@@VNamedAllocator@shdfnd@3@@shdfnd@physx@@IEAAAEAVHalfEdge@ConvexHull@3@AEBV453@@Z 0000000180000000     InflationConvexHullLib.obj
 0004:fffb2000       $pdata$3$?growAndPushBack@?$Array@VPxVec3@physx@@VNamedAllocator@shdfnd@2@@shdfnd@physx@@IEAAAEAVPxVec3@3@AEBV43@@Z 0000000180000000     InflationConvexHullLib.obj
 0002:fffbc000       $chain$3$?growAndPushBack@?$Array@VPxVec3@physx@@VNamedAllocator@shdfnd@2@@shdfnd@physx@@IEAAAEAVPxVec3@3@AEBV43@@Z 0000000180000000     InflationConvexHullLib.obj
 0004:fffb2000       $pdata$2$?growAndPushBack@?$Array@VPxVec3@physx@@VNamedAllocator@shdfnd@2@@shdfnd@physx@@IEAAAEAVPxVec3@3@AEBV43@@Z 0000000180000000     InflationConvexHullLib.obj
 0002:fffbc000       $chain$2$?growAndPushBack@?$Array@VPxVec3@physx@@VNamedAllocator@shdfnd@2@@shdfnd@physx@@IEAAAEAVPxVec3@3@AEBV43@@Z 0000000180000000     InflationConvexHullLib.obj
 0004:fffb2000       $pdata$1$?growAndPushBack@?$Array@VPxVec3@physx@@VNamedAllocator@shdfnd@2@@shdfnd@physx@@IEAAAEAVPxVec3@3@AEBV43@@Z 0000000180000000     InflationConvexHullLib.obj
 0002:fffbc000       $chain$1$?growAndPushBack@?$Array@VPxVec3@physx@@VNamedAllocator@shdfnd@2@@shdfnd@physx@@IEAAAEAVPxVec3@3@AEBV43@@Z 0000000180000000     InflationConvexHullLib.obj
 0004:fffb2000       $pdata$0$?growAndPushBack@?$Array@VPxVec3@physx@@VNamedAllocator@shdfnd@2@@shdfnd@physx@@IEAAAEAVPxVec3@3@AEBV43@@Z 0000000180000000     InflationConvexHullLib.obj
 0002:fffbc000       $chain$0$?growAndPushBack@?$Array@VPxVec3@physx@@VNamedAllocator@shdfnd@2@@shdfnd@physx@@IEAAAEAVPxVec3@3@AEBV43@@Z 0000000180000000     InflationConvexHullLib.obj
 0004:fffb2000       $pdata$?growAndPushBack@?$Array@VPxVec3@physx@@VNamedAllocator@shdfnd@2@@shdfnd@physx@@IEAAAEAVPxVec3@3@AEBV43@@Z 0000000180000000     InflationConvexHullLib.obj
 0002:fffbc000       $unwind$?growAndPushBack@?$Array@VPxVec3@physx@@VNamedAllocator@shdfnd@2@@shdfnd@physx@@IEAAAEAVPxVec3@3@AEBV43@@Z 0000000180000000     InflationConvexHullLib.obj
 0004:fffb2000       $pdata$??_GConvexHullLib@physx@@UEAAPEAXI@Z 0000000180000000     InflationConvexHullLib.obj
 0002:fffbc000       $unwind$??_GConvexHullLib@physx@@UEAAPEAXI@Z 0000000180000000     InflationConvexHullLib.obj
 0004:fffb2000       $pdata$2$?getInverse@PxMat33@physx@@QEBA?BV12@XZ 0000000180000000     InflationConvexHullLib.obj
 0002:fffbc000       $chain$2$?getInverse@PxMat33@physx@@QEBA?BV12@XZ 0000000180000000     InflationConvexHullLib.obj
 0004:fffb2000       $pdata$1$?getInverse@PxMat33@physx@@QEBA?BV12@XZ 0000000180000000     InflationConvexHullLib.obj
 0002:fffbc000       $chain$1$?getInverse@PxMat33@physx@@QEBA?BV12@XZ 0000000180000000     InflationConvexHullLib.obj
 0004:fffb2000       $pdata$?getInverse@PxMat33@physx@@QEBA?BV12@XZ 0000000180000000     InflationConvexHullLib.obj
 0002:fffbc000       $unwind$?getInverse@PxMat33@physx@@QEBA?BV12@XZ 0000000180000000     InflationConvexHullLib.obj
 0004:fffb2000       $pdata$??_H@YAXPEAX_K1P6APEAX0@Z@Z 0000000180000000     InflationConvexHullLib.obj
 0002:fffbc000       $unwind$??_H@YAXPEAX_K1P6APEAX0@Z@Z 0000000180000000     InflationConvexHullLib.obj
 0004:fffb2000       $pdata$1$??$?_UE@@YAPEAX_KV?$ReflectionAllocator@E@shdfnd@physx@@PEBDH@Z 0000000180000000     ConvexPolygonsBuilder.obj
 0002:fffbc000       $chain$1$??$?_UE@@YAPEAX_KV?$ReflectionAllocator@E@shdfnd@physx@@PEBDH@Z 0000000180000000     ConvexPolygonsBuilder.obj
 0004:fffb2000       $pdata$0$??$?_UE@@YAPEAX_KV?$ReflectionAllocator@E@shdfnd@physx@@PEBDH@Z 0000000180000000     ConvexPolygonsBuilder.obj
 0002:fffbc000       $chain$0$??$?_UE@@YAPEAX_KV?$ReflectionAllocator@E@shdfnd@physx@@PEBDH@Z 0000000180000000     ConvexPolygonsBuilder.obj
 0004:fffb2000       $pdata$??$?_UE@@YAPEAX_KV?$ReflectionAllocator@E@shdfnd@physx@@PEBDH@Z 0000000180000000     ConvexPolygonsBuilder.obj
 0002:fffbc000       $unwind$??$?_UE@@YAPEAX_KV?$ReflectionAllocator@E@shdfnd@physx@@PEBDH@Z 0000000180000000     ConvexPolygonsBuilder.obj
 0004:fffb2000       $pdata$1$?recreate@?$Array@IVNamedAllocator@shdfnd@physx@@@shdfnd@physx@@IEAAXI@Z 0000000180000000     ConvexPolygonsBuilder.obj
 0002:fffbc000       $chain$1$?recreate@?$Array@IVNamedAllocator@shdfnd@physx@@@shdfnd@physx@@IEAAXI@Z 0000000180000000     ConvexPolygonsBuilder.obj
 0004:fffb2000       $pdata$0$?recreate@?$Array@IVNamedAllocator@shdfnd@physx@@@shdfnd@physx@@IEAAXI@Z 0000000180000000     ConvexPolygonsBuilder.obj
 0002:fffbc000       $chain$0$?recreate@?$Array@IVNamedAllocator@shdfnd@physx@@@shdfnd@physx@@IEAAXI@Z 0000000180000000     ConvexPolygonsBuilder.obj
 0004:fffb2000       $pdata$?recreate@?$Array@IVNamedAllocator@shdfnd@physx@@@shdfnd@physx@@IEAAXI@Z 0000000180000000     ConvexPolygonsBuilder.obj
 0002:fffbc000       $unwind$?recreate@?$Array@IVNamedAllocator@shdfnd@physx@@@shdfnd@physx@@IEAAXI@Z 0000000180000000     ConvexPolygonsBuilder.obj
 0000:fffa8000       .debug$S                   0000000180000000     PxFoundationCHECKED_x64:PxFoundationCHECKED_x64.dll
 0000:fffa8000       .debug$S                   0000000180000000     PxFoundationCHECKED_x64:PxFoundationCHECKED_x64.dll
 0000:fffa8000       .debug$S                   0000000180000000     PxFoundationCHECKED_x64:PxFoundationCHECKED_x64.dll
 0000:fffa8000       .debug$S                   0000000180000000     PxFoundationCHECKED_x64:PxFoundationCHECKED_x64.dll
 0000:fffa8000       .debug$S                   0000000180000000     PxFoundationCHECKED_x64:PxFoundationCHECKED_x64.dll
 0000:fffa8000       .debug$S                   0000000180000000     PxFoundationCHECKED_x64:PxFoundationCHECKED_x64.dll
 0004:fffb2000       $pdata$?growAndPushBack@?$Array@IVNamedAllocator@shdfnd@physx@@@shdfnd@physx@@IEAAAEAIAEBI@Z 0000000180000000     ConvexPolygonsBuilder.obj
 0002:fffbc000       $unwind$?growAndPushBack@?$Array@IVNamedAllocator@shdfnd@physx@@@shdfnd@physx@@IEAAAEAIAEBI@Z 0000000180000000     ConvexPolygonsBuilder.obj
 0002:fffbc000       $unwind$??_H@YAXPEAX_K1P6APEAX0@Z@Z 0000000180000000     TriangleMeshBuilder.obj
 0004:fffb2000       $pdata$??_H@YAXPEAX_K1P6APEAX0@Z@Z 0000000180000000     TriangleMeshBuilder.obj
 0000:fffa8000       .debug$S                   0000000180000000     PxFoundationCHECKED_x64:PxFoundationCHECKED_x64.dll
 0000:fffa8000       .debug$S                   0000000180000000     PxFoundationCHECKED_x64:PxFoundationCHECKED_x64.dll
 0000:fffa8000       .debug$S                   0000000180000000     PxFoundationCHECKED_x64:PxFoundationCHECKED_x64.dll
 0002:fffbc000       $unwind$??$?_UG@@YAPEAX_KV?$ReflectionAllocator@G@shdfnd@physx@@PEBDH@Z 0000000180000000     QuickHullConvexHullLib.obj
 0004:fffb2000       $pdata$??$?_UG@@YAPEAX_KV?$ReflectionAllocator@G@shdfnd@physx@@PEBDH@Z 0000000180000000     QuickHullConvexHullLib.obj
 0002:fffbc000       $chain$0$??$?_UG@@YAPEAX_KV?$ReflectionAllocator@G@shdfnd@physx@@PEBDH@Z 0000000180000000     QuickHullConvexHullLib.obj
 0004:fffb2000       $pdata$0$??$?_UG@@YAPEAX_KV?$ReflectionAllocator@G@shdfnd@physx@@PEBDH@Z 0000000180000000     QuickHullConvexHullLib.obj
 0002:fffbc000       $chain$1$??$?_UG@@YAPEAX_KV?$ReflectionAllocator@G@shdfnd@physx@@PEBDH@Z 0000000180000000     QuickHullConvexHullLib.obj
 0004:fffb2000       $pdata$1$??$?_UG@@YAPEAX_KV?$ReflectionAllocator@G@shdfnd@physx@@PEBDH@Z 0000000180000000     QuickHullConvexHullLib.obj
 0000:fffa8000       .debug$S                   0000000180000000     PxFoundationCHECKED_x64:PxFoundationCHECKED_x64.dll
 0000:fffa8000       .debug$S                   0000000180000000     PxFoundationCHECKED_x64:PxFoundationCHECKED_x64.dll
 0000:fffa8000       .debug$S                   0000000180000000     PxFoundationCHECKED_x64:PxFoundationCHECKED_x64.dll
 0000:fffac000       __guard_fids__guard_icall_checks_enforced 0000000180000000     MSVCRT:guard_support.obj
 0000:fffac000       __guard_fids__             0000000180000000     MSVCRT:guard_support.obj
 0000:fffa8000       .debug$S                   0000000180000000     PhysX3CommonCHECKED_x64:PhysX3CommonCHECKED_x64.dll
 0004:fffb2000       $pdata$1$??$?_UI@@YAPEAX_KV?$ReflectionAllocator@I@shdfnd@physx@@PEBDH@Z 0000000180000000     EdgeList.obj
 0000:fffa8000       .debug$S                   0000000180000000     PhysX3CommonCHECKED_x64:PhysX3CommonCHECKED_x64.dll
 0000:fffa8000       .debug$S                   0000000180000000     PhysX3CommonCHECKED_x64:PhysX3CommonCHECKED_x64.dll
 0000:fffa8000       .debug$S                   0000000180000000     PhysX3CommonCHECKED_x64:PhysX3CommonCHECKED_x64.dll
 0000:fffa8000       .debug$S                   0000000180000000     PhysX3CommonCHECKED_x64:PhysX3CommonCHECKED_x64.dll
 0004:fffb2000       $pdata$1$?recreate@?$Array@VPxVec3@physx@@VNamedAllocator@shdfnd@2@@shdfnd@physx@@IEAAXI@Z 0000000180000000     ConvexHullUtils.obj
 0000:fffac000       __guard_fids_?dllmain_dispatch@@YAHQEAUHINSTANCE__@@KQEAX@Z 0000000180000000     MSVCRT:dll_dllmain.obj
 0002:fffbc000       $unwind$??_H@YAXPEAX_K1P6APEAX0@Z@Z 0000000180000000     Adjacencies.obj
 0004:fffb2000       $pdata$??_H@YAXPEAX_K1P6APEAX0@Z@Z 0000000180000000     Adjacencies.obj
 0002:fffbc000       $chain$1$?recreate@?$Array@VPxVec3@physx@@VNamedAllocator@shdfnd@2@@shdfnd@physx@@IEAAXI@Z 0000000180000000     ConvexHullUtils.obj
 0004:fffb2000       $pdata$0$?recreate@?$Array@VPxVec3@physx@@VNamedAllocator@shdfnd@2@@shdfnd@physx@@IEAAXI@Z 0000000180000000     ConvexHullUtils.obj
 0002:fffbc000       $chain$0$?recreate@?$Array@VPxVec3@physx@@VNamedAllocator@shdfnd@2@@shdfnd@physx@@IEAAXI@Z 0000000180000000     ConvexHullUtils.obj
 0004:fffb2000       $pdata$?recreate@?$Array@VPxVec3@physx@@VNamedAllocator@shdfnd@2@@shdfnd@physx@@IEAAXI@Z 0000000180000000     ConvexHullUtils.obj
 0002:fffbc000       $unwind$?recreate@?$Array@VPxVec3@physx@@VNamedAllocator@shdfnd@2@@shdfnd@physx@@IEAAXI@Z 0000000180000000     ConvexHullUtils.obj
 0004:fffb2000       $pdata$3$?growAndPushBack@?$Array@VPxVec3@physx@@VNamedAllocator@shdfnd@2@@shdfnd@physx@@IEAAAEAVPxVec3@3@AEBV43@@Z 0000000180000000     ConvexHullUtils.obj
 0002:fffbc000       $chain$3$?growAndPushBack@?$Array@VPxVec3@physx@@VNamedAllocator@shdfnd@2@@shdfnd@physx@@IEAAAEAVPxVec3@3@AEBV43@@Z 0000000180000000     ConvexHullUtils.obj
 0004:fffb2000       $pdata$2$?growAndPushBack@?$Array@VPxVec3@physx@@VNamedAllocator@shdfnd@2@@shdfnd@physx@@IEAAAEAVPxVec3@3@AEBV43@@Z 0000000180000000     ConvexHullUtils.obj
 0002:fffbc000       $chain$2$?growAndPushBack@?$Array@VPxVec3@physx@@VNamedAllocator@shdfnd@2@@shdfnd@physx@@IEAAAEAVPxVec3@3@AEBV43@@Z 0000000180000000     ConvexHullUtils.obj
 0004:fffb2000       $pdata$1$?growAndPushBack@?$Array@VPxVec3@physx@@VNamedAllocator@shdfnd@2@@shdfnd@physx@@IEAAAEAVPxVec3@3@AEBV43@@Z 0000000180000000     ConvexHullUtils.obj
 0002:fffbc000       $chain$1$?growAndPushBack@?$Array@VPxVec3@physx@@VNamedAllocator@shdfnd@2@@shdfnd@physx@@IEAAAEAVPxVec3@3@AEBV43@@Z 0000000180000000     ConvexHullUtils.obj
 0004:fffb2000       $pdata$0$?growAndPushBack@?$Array@VPxVec3@physx@@VNamedAllocator@shdfnd@2@@shdfnd@physx@@IEAAAEAVPxVec3@3@AEBV43@@Z 0000000180000000     ConvexHullUtils.obj
 0002:fffbc000       $chain$0$?growAndPushBack@?$Array@VPxVec3@physx@@VNamedAllocator@shdfnd@2@@shdfnd@physx@@IEAAAEAVPxVec3@3@AEBV43@@Z 0000000180000000     ConvexHullUtils.obj
 0004:fffb2000       $pdata$?growAndPushBack@?$Array@VPxVec3@physx@@VNamedAllocator@shdfnd@2@@shdfnd@physx@@IEAAAEAVPxVec3@3@AEBV43@@Z 0000000180000000     ConvexHullUtils.obj
 0002:fffbc000       $unwind$?growAndPushBack@?$Array@VPxVec3@physx@@VNamedAllocator@shdfnd@2@@shdfnd@physx@@IEAAAEAVPxVec3@3@AEBV43@@Z 0000000180000000     ConvexHullUtils.obj
 0004:fffb2000       $pdata$??_H@YAXPEAX_K1P6APEAX0@Z@Z 0000000180000000     ConvexHullUtils.obj
 0002:fffbc000       $unwind$??_H@YAXPEAX_K1P6APEAX0@Z@Z 0000000180000000     ConvexHullUtils.obj
 0000:fffa8000       .debug$S                   0000000180000000     PhysX3CommonCHECKED_x64:PhysX3CommonCHECKED_x64.dll
 0000:fffa8000       .debug$S                   0000000180000000     PhysX3CommonCHECKED_x64:PhysX3CommonCHECKED_x64.dll
 0000:fffa8000       .debug$S                   0000000180000000     PhysX3CommonCHECKED_x64:PhysX3CommonCHECKED_x64.dll
 0000:fffa8000       .debug$S                   0000000180000000     PhysX3CommonCHECKED_x64:PhysX3CommonCHECKED_x64.dll
 0000:fffa8000       .debug$S                   0000000180000000     PhysX3CommonCHECKED_x64:PhysX3CommonCHECKED_x64.dll
 0000:fffa8000       .debug$S                   0000000180000000     PhysX3CommonCHECKED_x64:PhysX3CommonCHECKED_x64.dll
 0000:fffac000       __guard_fids__             0000000180000000     MSVCRT:std_type_info_static.obj
 0000:fffa8000       .debug$S                   0000000180000000     PhysX3CommonCHECKED_x64:PhysX3CommonCHECKED_x64.dll
 0000:fffa8000       .debug$S                   0000000180000000     PhysX3CommonCHECKED_x64:PhysX3CommonCHECKED_x64.dll
 0000:fffa8000       .debug$S                   0000000180000000     PhysX3CommonCHECKED_x64:PhysX3CommonCHECKED_x64.dll
 0000:fffa8000       .debug$S                   0000000180000000     PhysX3CommonCHECKED_x64:PhysX3CommonCHECKED_x64.dll
 0000:fffa8000       .debug$S                   0000000180000000     PhysX3CommonCHECKED_x64:PhysX3CommonCHECKED_x64.dll
 0000:fffa8000       .debug$S                   0000000180000000     PhysX3CommonCHECKED_x64:PhysX3CommonCHECKED_x64.dll
 0002:fffbc000       $unwind$??_H@YAXPEAX_K1P6APEAX0@Z@Z 0000000180000000     Cooking.obj
 0004:fffb2000       $pdata$??_H@YAXPEAX_K1P6APEAX0@Z@Z 0000000180000000     Cooking.obj
 0004:fffb2000       $pdata$1$??$?_UG@@YAPEAX_KV?$ReflectionAllocator@G@shdfnd@physx@@PEBDH@Z 0000000180000000     ConvexHullBuilder.obj
 0002:fffbc000       $chain$1$??$?_UG@@YAPEAX_KV?$ReflectionAllocator@G@shdfnd@physx@@PEBDH@Z 0000000180000000     ConvexHullBuilder.obj
 0004:fffb2000       $pdata$0$??$?_UG@@YAPEAX_KV?$ReflectionAllocator@G@shdfnd@physx@@PEBDH@Z 0000000180000000     ConvexHullBuilder.obj
 0002:fffbc000       $chain$0$??$?_UG@@YAPEAX_KV?$ReflectionAllocator@G@shdfnd@physx@@PEBDH@Z 0000000180000000     ConvexHullBuilder.obj
 0004:fffb2000       $pdata$??$?_UG@@YAPEAX_KV?$ReflectionAllocator@G@shdfnd@physx@@PEBDH@Z 0000000180000000     ConvexHullBuilder.obj
 0002:fffbc000       $unwind$??$?_UG@@YAPEAX_KV?$ReflectionAllocator@G@shdfnd@physx@@PEBDH@Z 0000000180000000     ConvexHullBuilder.obj
 0004:fffb2000       $pdata$??_H@YAXPEAX_K1P6APEAX0@Z@Z 0000000180000000     ConvexHullBuilder.obj
 0002:fffbc000       $unwind$??_H@YAXPEAX_K1P6APEAX0@Z@Z 0000000180000000     ConvexHullBuilder.obj
 0000:fffa8000       .debug$S                   0000000180000000     PhysX3CommonCHECKED_x64:PhysX3CommonCHECKED_x64.dll
 0000:fffa8000       .debug$S                   0000000180000000     PhysX3CommonCHECKED_x64:PhysX3CommonCHECKED_x64.dll
 0002:fffbc000       $unwind$??_H@YAXPEAX_K1P6APEAX0@Z@Z 0000000180000000     EdgeList.obj
 0004:fffb2000       $pdata$??_H@YAXPEAX_K1P6APEAX0@Z@Z 0000000180000000     EdgeList.obj
 0000:fffa8000       .debug$S                   0000000180000000     PhysX3CommonCHECKED_x64:PhysX3CommonCHECKED_x64.dll
 0000:fffa8000       .debug$S                   0000000180000000     PhysX3CommonCHECKED_x64:PhysX3CommonCHECKED_x64.dll
 0000:fffa8000       .debug$S                   0000000180000000     PhysX3CommonCHECKED_x64:PhysX3CommonCHECKED_x64.dll
 0000:fffa8000       .debug$S                   0000000180000000     PhysX3CommonCHECKED_x64:PhysX3CommonCHECKED_x64.dll
 0000:fffa8000       .debug$S                   0000000180000000     PhysX3CommonCHECKED_x64:PhysX3CommonCHECKED_x64.dll
 0000:fffa8000       .debug$S                   0000000180000000     PhysX3CommonCHECKED_x64:PhysX3CommonCHECKED_x64.dll
 0000:fffa8000       .debug$S                   0000000180000000     PhysX3CommonCHECKED_x64:PhysX3CommonCHECKED_x64.dll
 0000:fffa8000       .debug$S                   0000000180000000     PhysX3CommonCHECKED_x64:PhysX3CommonCHECKED_x64.dll
 0000:fffa8000       .debug$S                   0000000180000000     PhysX3CommonCHECKED_x64:PhysX3CommonCHECKED_x64.dll
 0000:fffa8000       .debug$S                   0000000180000000     PhysX3CommonCHECKED_x64:PhysX3CommonCHECKED_x64.dll
 0000:fffa8000       .debug$S                   0000000180000000     PhysX3CommonCHECKED_x64:PhysX3CommonCHECKED_x64.dll
 0002:fffbc000       $unwind$??$?_UI@@YAPEAX_KV?$ReflectionAllocator@I@shdfnd@physx@@PEBDH@Z 0000000180000000     EdgeList.obj
 0004:fffb2000       $pdata$??$?_UI@@YAPEAX_KV?$ReflectionAllocator@I@shdfnd@physx@@PEBDH@Z 0000000180000000     EdgeList.obj
 0002:fffbc000       $chain$0$??$?_UI@@YAPEAX_KV?$ReflectionAllocator@I@shdfnd@physx@@PEBDH@Z 0000000180000000     EdgeList.obj
 0004:fffb2000       $pdata$0$??$?_UI@@YAPEAX_KV?$ReflectionAllocator@I@shdfnd@physx@@PEBDH@Z 0000000180000000     EdgeList.obj
 0002:fffbc000       $chain$1$??$?_UI@@YAPEAX_KV?$ReflectionAllocator@I@shdfnd@physx@@PEBDH@Z 0000000180000000     EdgeList.obj
 0000:fffa8000       .debug$S                   0000000180000000     PhysX3CommonCHECKED_x64:PhysX3CommonCHECKED_x64.dll
 0000:fffa8000       .debug$S                   0000000180000000     PhysX3CommonCHECKED_x64:PhysX3CommonCHECKED_x64.dll
 0000:fffa8000       .debug$S                   0000000180000000     PhysX3CommonCHECKED_x64:PhysX3CommonCHECKED_x64.dll
 0000:fffa8000       .debug$S                   0000000180000000     kernel32:KERNEL32.dll
 0001:00001140       ??__EmaxFError@_VecMathTests@aos@shdfnd@physx@@YAXXZ 0000000180002140 f   RTreeCooking.obj
 0001:00001170       ??__EmaxV3Error@_VecMathTests@aos@shdfnd@physx@@YAXXZ 0000000180002170 f   RTreeCooking.obj
 0001:00001190       ??__EmaxV4Error@_VecMathTests@aos@shdfnd@physx@@YAXXZ 0000000180002190 f   RTreeCooking.obj
 0001:000011c0       ??__EminFError@_VecMathTests@aos@shdfnd@physx@@YAXXZ 00000001800021c0 f   RTreeCooking.obj
 0001:000011f0       ??__EminV3Error@_VecMathTests@aos@shdfnd@physx@@YAXXZ 00000001800021f0 f   RTreeCooking.obj
 0001:00001210       ??__EminV4Error@_VecMathTests@aos@shdfnd@physx@@YAXXZ 0000000180002210 f   RTreeCooking.obj
 0001:00001240       ??__EmaxFError@_VecMathTests@aos@shdfnd@physx@@YAXXZ 0000000180002240 f   TriangleMeshBuilder.obj
 0001:00001270       ??__EmaxV3Error@_VecMathTests@aos@shdfnd@physx@@YAXXZ 0000000180002270 f   TriangleMeshBuilder.obj
 0001:00001290       ??__EmaxV4Error@_VecMathTests@aos@shdfnd@physx@@YAXXZ 0000000180002290 f   TriangleMeshBuilder.obj
 0001:000012c0       ??__EminFError@_VecMathTests@aos@shdfnd@physx@@YAXXZ 00000001800022c0 f   TriangleMeshBuilder.obj
 0001:000012f0       ??__EminV3Error@_VecMathTests@aos@shdfnd@physx@@YAXXZ 00000001800022f0 f   TriangleMeshBuilder.obj
 0001:00001310       ??__EminV4Error@_VecMathTests@aos@shdfnd@physx@@YAXXZ 0000000180002310 f   TriangleMeshBuilder.obj
 0001:00001340       ??__EmaxFError@_VecMathTests@aos@shdfnd@physx@@YAXXZ 0000000180002340 f   BigConvexDataBuilder.obj
 0001:00001370       ??__EmaxV3Error@_VecMathTests@aos@shdfnd@physx@@YAXXZ 0000000180002370 f   BigConvexDataBuilder.obj
 0001:00001390       ??__EmaxV4Error@_VecMathTests@aos@shdfnd@physx@@YAXXZ 0000000180002390 f   BigConvexDataBuilder.obj
 0001:000013c0       ??__EminFError@_VecMathTests@aos@shdfnd@physx@@YAXXZ 00000001800023c0 f   BigConvexDataBuilder.obj
 0001:000013f0       ??__EminV3Error@_VecMathTests@aos@shdfnd@physx@@YAXXZ 00000001800023f0 f   BigConvexDataBuilder.obj
 0001:00001410       ??__EminV4Error@_VecMathTests@aos@shdfnd@physx@@YAXXZ 0000000180002410 f   BigConvexDataBuilder.obj
 0001:00001440       ??__EmaxFError@_VecMathTests@aos@shdfnd@physx@@YAXXZ 0000000180002440 f   ConvexHullBuilder.obj
 0001:00001470       ??__EmaxV3Error@_VecMathTests@aos@shdfnd@physx@@YAXXZ 0000000180002470 f   ConvexHullBuilder.obj
 0001:00001490       ??__EmaxV4Error@_VecMathTests@aos@shdfnd@physx@@YAXXZ 0000000180002490 f   ConvexHullBuilder.obj
 0001:000014c0       ??__EminFError@_VecMathTests@aos@shdfnd@physx@@YAXXZ 00000001800024c0 f   ConvexHullBuilder.obj
 0001:000014f0       ??__EminV3Error@_VecMathTests@aos@shdfnd@physx@@YAXXZ 00000001800024f0 f   ConvexHullBuilder.obj
 0001:00001510       ??__EminV4Error@_VecMathTests@aos@shdfnd@physx@@YAXXZ 0000000180002510 f   ConvexHullBuilder.obj
 0001:00001540       ??__EmaxFError@_VecMathTests@aos@shdfnd@physx@@YAXXZ 0000000180002540 f   ConvexHullUtils.obj
 0001:00001570       ??__EmaxV3Error@_VecMathTests@aos@shdfnd@physx@@YAXXZ 0000000180002570 f   ConvexHullUtils.obj
 0001:00001590       ??__EmaxV4Error@_VecMathTests@aos@shdfnd@physx@@YAXXZ 0000000180002590 f   ConvexHullUtils.obj
 0001:000015c0       ??__EminFError@_VecMathTests@aos@shdfnd@physx@@YAXXZ 00000001800025c0 f   ConvexHullUtils.obj
 0001:000015f0       ??__EminV3Error@_VecMathTests@aos@shdfnd@physx@@YAXXZ 00000001800025f0 f   ConvexHullUtils.obj
 0001:00001610       ??__EminV4Error@_VecMathTests@aos@shdfnd@physx@@YAXXZ 0000000180002610 f   ConvexHullUtils.obj
 0001:00001640       ??__EmaxFError@_VecMathTests@aos@shdfnd@physx@@YAXXZ 0000000180002640 f   ConvexMeshBuilder.obj
 0001:00001670       ??__EmaxV3Error@_VecMathTests@aos@shdfnd@physx@@YAXXZ 0000000180002670 f   ConvexMeshBuilder.obj
 0001:00001690       ??__EmaxV4Error@_VecMathTests@aos@shdfnd@physx@@YAXXZ 0000000180002690 f   ConvexMeshBuilder.obj
 0001:000016c0       ??__EminFError@_VecMathTests@aos@shdfnd@physx@@YAXXZ 00000001800026c0 f   ConvexMeshBuilder.obj
 0001:000016f0       ??__EminV3Error@_VecMathTests@aos@shdfnd@physx@@YAXXZ 00000001800026f0 f   ConvexMeshBuilder.obj
 0001:00001710       ??__EminV4Error@_VecMathTests@aos@shdfnd@physx@@YAXXZ 0000000180002710 f   ConvexMeshBuilder.obj
 0001:00001740       ??__EmaxFError@_VecMathTests@aos@shdfnd@physx@@YAXXZ 0000000180002740 f   VolumeIntegration.obj
 0001:00001770       ??__EmaxV3Error@_VecMathTests@aos@shdfnd@physx@@YAXXZ 0000000180002770 f   VolumeIntegration.obj
 0001:00001790       ??__EmaxV4Error@_VecMathTests@aos@shdfnd@physx@@YAXXZ 0000000180002790 f   VolumeIntegration.obj
 0001:000017c0       ??__EminFError@_VecMathTests@aos@shdfnd@physx@@YAXXZ 00000001800027c0 f   VolumeIntegration.obj
 0001:000017f0       ??__EminV3Error@_VecMathTests@aos@shdfnd@physx@@YAXXZ 00000001800027f0 f   VolumeIntegration.obj
 0001:00001810       ??__EminV4Error@_VecMathTests@aos@shdfnd@physx@@YAXXZ 0000000180002810 f   VolumeIntegration.obj
 0001:00001840       ??__EmaxFError@_VecMathTests@aos@shdfnd@physx@@YAXXZ 0000000180002840 f   Cooking.obj
 0001:00001870       ??__EmaxV3Error@_VecMathTests@aos@shdfnd@physx@@YAXXZ 0000000180002870 f   Cooking.obj
 0001:00001890       ??__EmaxV4Error@_VecMathTests@aos@shdfnd@physx@@YAXXZ 0000000180002890 f   Cooking.obj
 0001:000018c0       ??__EminFError@_VecMathTests@aos@shdfnd@physx@@YAXXZ 00000001800028c0 f   Cooking.obj
 0001:000018f0       ??__EminV3Error@_VecMathTests@aos@shdfnd@physx@@YAXXZ 00000001800028f0 f   Cooking.obj
 0001:00001910       ??__EminV4Error@_VecMathTests@aos@shdfnd@physx@@YAXXZ 0000000180002910 f   Cooking.obj
 0001:00002e50       $LN12                      0000000180003e50     WindowsCookingDelayLoadHook.obj
 0001:00004ce0       ?buildFromBounds@physx@@YAXAEAURTree@Gu@1@PEBUPxBounds3V@1@IAEAV?$Array@IVNamedAllocator@shdfnd@physx@@@shdfnd@1@PEAURemapCallback@RTreeCooker@1@AEAT__m128@@4MW4Enum@PxMeshCookingHint@1@@Z 0000000180005ce0 f   RTreeCooking.obj
 0001:0000e020       ?buildAdjacencies@physx@@YAXPEAUuint4@1@PEAVPxVec3@1@PEBV31@PEBUuint3@1@I@Z 000000018000f020 f   TriangleMeshBuilder.obj
 0001:0000e5d0       ?findAdjacent@physx@@YAIPEBVPxVec3@1@0PEBUuint3@1@IIIAEBVPxPlane@1@PEAUEdgeTriLookup@1@I@Z 000000018000f5d0 f   TriangleMeshBuilder.obj
 0001:00013d50       ?checkPointsAABBValidity@local@@YA_NIPEBVPxVec3@physx@@IMMAEAV23@1AEAIPEAV23@_N@Z 0000000180014d50 f   ConvexHullLib.obj
 0001:0001b1d0       ?ComputeInternalExtent@@YAXAEAUConvexHullData@Gu@physx@@PEBUHullPolygonData@23@@Z 000000018001c1d0 f   ConvexMeshBuilder.obj
 0001:0001d6d0       ?CheckFloodFillFace@Local@?7??extractHullPolygons@@YA_NAEAIAEAV?$Array@IVNamedAllocator@shdfnd@physx@@@shdfnd@physx@@AEBVConvexPolygonsBuilder@5@PEAV345@1@Z@SA_NIPEBVAdjTriangle@5@PEBI@Z 000000018001e6d0 f   ConvexPolygonsBuilder.obj
 0001:0001de70       ?FloodFill@Local@?7??extractHullPolygons@@YA_NAEAIAEAV?$Array@IVNamedAllocator@shdfnd@physx@@@shdfnd@physx@@AEBVConvexPolygonsBuilder@5@PEAV345@1@Z@SAX1PEBVAdjTriangle@5@IPEA_N@Z 000000018001ee70 f   ConvexPolygonsBuilder.obj
 0001:0001df90       ?TestDuplicateTriangles@@YA_NAEAIPEAU?$TriangleT@I@Gu@physx@@_N@Z 000000018001ef90 f   ConvexPolygonsBuilder.obj
 0001:0001e110       ?TestUnifiedNormals@@YA_NIPEBVPxVec3@physx@@IPEAU?$TriangleT@I@Gu@2@_N@Z 000000018001f110 f   ConvexPolygonsBuilder.obj
 0001:0001e7b0       ?checkRedundantVertices@@YAXAEAIAEAV?$Array@IVNamedAllocator@shdfnd@physx@@@shdfnd@physx@@AEBVConvexPolygonsBuilder@3@11@Z 000000018001f7b0 f   ConvexPolygonsBuilder.obj
 0001:0001f140       ?extractHullPolygons@@YA_NAEAIAEAV?$Array@IVNamedAllocator@shdfnd@physx@@@shdfnd@physx@@AEBVConvexPolygonsBuilder@3@PEAV123@1@Z 0000000180020140 f   ConvexPolygonsBuilder.obj
 0001:0001feb0       ?findLineStrip@@YA_NAEAV?$Array@IVNamedAllocator@shdfnd@physx@@@shdfnd@physx@@AEBV?$Array@VPair@@VNamedAllocator@shdfnd@physx@@@23@@Z 0000000180020eb0 f   ConvexPolygonsBuilder.obj
 0001:00026410       ?findSimplex@local@@YA?AVHullSimplex@1@PEBVPxVec3@physx@@IAEAV?$Array@EVNamedAllocator@shdfnd@physx@@@shdfnd@4@AEBV34@@Z 0000000180027410 f   InflationConvexHullLib.obj
 0001:000319e0       ?computeFaceIntegrals@VolumeIntegrator@?A0x0a1571c3@physx@@AEAAXAEBUFace@123@@Z 00000001800329e0 f   VolumeIntegration.obj
 0001:00031ec0       ?computeProjectionIntegrals@VolumeIntegrator@?A0x0a1571c3@physx@@AEAAXAEBUFace@123@@Z 0000000180032ec0 f   VolumeIntegration.obj
 0001:00032560       ?computeVolumeIntegrals@VolumeIntegrator@?A0x0a1571c3@physx@@QEAA_NAEAUPxIntegrals@3@@Z 0000000180033560 f   VolumeIntegration.obj
 0001:00033060       ?computeVolumeIntegrals@VolumeIntegratorEberly@?A0x0a1571c3@physx@@QEAA_NAEAUPxIntegrals@3@AEBVPxVec3@3@@Z 0000000180034060 f   VolumeIntegration.obj
 0001:00033e30       ?computeVolumeIntegralsSIMD@VolumeIntegratorEberly@?A0x0a1571c3@physx@@QEAA_NAEAUPxIntegrals@3@AEBVPxVec3@3@@Z 0000000180034e30 f   VolumeIntegration.obj
 0001:00035740       ?CreateDatabase@@YA_NPEAVAdjTriangle@physx@@IPEBVAdjEdge@@AEBUADJACENCIESCREATE@2@@Z 0000000180036740 f   Adjacencies.obj
 0001:00035a50       ?UpdateLink@@YA_NIIIIPEAVAdjTriangle@physx@@AEBUADJACENCIESCREATE@2@@Z 0000000180036a50 f   Adjacencies.obj
 0001:0003a6e0       ?OppositeVertex@@YAIIIIII@Z 000000018003b6e0 f   EdgeList.obj
 0001:0003d59c       ?FLoadedAtPreferredAddress@@YA_NPEAU_IMAGE_NT_HEADERS64@@PEAUHINSTANCE__@@@Z 000000018003e59c f   delayimp:delayhlp.obj
 0001:0003d5b4       ?OverlayIAT@@YAXPEAU_IMAGE_THUNK_DATA64@@PEBU1@@Z 000000018003e5b4 f   delayimp:delayhlp.obj
 0001:0003d5f8       ?PiddFromDllName@@YAPEBUImgDelayDescr@@PEBD@Z 000000018003e5f8 f   delayimp:delayhlp.obj
 0001:0003d6c0       ?PinhFromImageBase@@YAPEAU_IMAGE_NT_HEADERS64@@PEAUHINSTANCE__@@@Z 000000018003e6c0 f   delayimp:delayhlp.obj
 0001:0003d6cc       ?TimeStampOfImage@@YAKPEAU_IMAGE_NT_HEADERS64@@@Z 000000018003e6cc f   delayimp:delayhlp.obj
 0001:0003d6d0       ?__memcmp@@YAHPEBX0_K@Z    000000018003e6d0 f   delayimp:delayhlp.obj
 0001:0003d6fc       ?__memcpy@@YAPEAXPEAXPEBX_K@Z 000000018003e6fc f   delayimp:delayhlp.obj
 0001:0003d724       ?__strlen@@YA_KPEBD@Z      000000018003e724 f   delayimp:delayhlp.obj
 0001:0003dc50       $$000000                   000000018003ec50     MSVCRT:chkstk.obj
 0001:0003dd40       $$000000                   000000018003ed40     MSVCRT:svml_ssinf4_dispatch.obj
 0001:0003ddc0       ?dllmain_crt_dispatch@@YAHQEAUHINSTANCE__@@KQEAX@Z 000000018003edc0 f   MSVCRT:dll_dllmain.obj
 0001:0003de24       ?dllmain_crt_process_attach@@YAHQEAUHINSTANCE__@@QEAX@Z 000000018003ee24 f   MSVCRT:dll_dllmain.obj
 0001:0003df84       ?dllmain_crt_process_detach@@YAH_N@Z 000000018003ef84 f   MSVCRT:dll_dllmain.obj
 0001:0003e038       ?dllmain_dispatch@@YAHQEAUHINSTANCE__@@KQEAX@Z 000000018003f038 f   MSVCRT:dll_dllmain.obj
 0001:0003e1b8       ?dllmain_raw@@YAHQEAUHINSTANCE__@@KQEAX@Z 000000018003f1b8 f   MSVCRT:dll_dllmain.obj
 0001:0003e260       $$000000                   000000018003f260     MSVCRT:svml_ssinf4_sse2.obj
 0001:0003ed50       __get_entropy              000000018003fd50 f   MSVCRT:gs_support.obj
 0001:0003ef84       ?find_pe_section@@YAPEAU_IMAGE_SECTION_HEADER@@QEAE_K@Z 000000018003ff84 f   MSVCRT:utility.obj
 0001:0003efe8       ?is_potentially_valid_image_base@@YA_NQEAX@Z 000000018003ffe8 f   MSVCRT:utility.obj
 0001:00040f30       $$000000                   0000000180041f30     MSVCRT:guard_dispatch.obj
 0001:00041f46       ?fin$0@?0??dllmain_crt_process_attach@@YAHQEAUHINSTANCE__@@QEAX@Z@4HA 0000000180042f46 f   MSVCRT:dll_dllmain.obj
 0001:00041f62       ?fin$0@?0??dllmain_crt_process_detach@@YAH_N@Z@4HA 0000000180042f62 f   MSVCRT:dll_dllmain.obj
 0001:00041f85       ?filt$0@?0??dllmain_dispatch@@YAHQEAUHINSTANCE__@@KQEAX@Z@4HA 0000000180042f85 f   MSVCRT:dll_dllmain.obj
 0001:00041fc8       __scrt_is_nonwritable_in_current_image$filt$0 0000000180042fc8 f   MSVCRT:utility.obj
 0002:00000110       ?minFError$initializer$@_VecMathTests@aos@shdfnd@physx@@3P6AXXZEA 0000000180044110     RTreeCooking.obj
 0002:00000118       ?maxFError$initializer$@_VecMathTests@aos@shdfnd@physx@@3P6AXXZEA 0000000180044118     RTreeCooking.obj
 0002:00000120       ?minV3Error$initializer$@_VecMathTests@aos@shdfnd@physx@@3P6AXXZEA 0000000180044120     RTreeCooking.obj
 0002:00000128       ?maxV3Error$initializer$@_VecMathTests@aos@shdfnd@physx@@3P6AXXZEA 0000000180044128     RTreeCooking.obj
 0002:00000130       ?minV4Error$initializer$@_VecMathTests@aos@shdfnd@physx@@3P6AXXZEA 0000000180044130     RTreeCooking.obj
 0002:00000138       ?maxV4Error$initializer$@_VecMathTests@aos@shdfnd@physx@@3P6AXXZEA 0000000180044138     RTreeCooking.obj
 0002:00000150       ?minFError$initializer$@_VecMathTests@aos@shdfnd@physx@@3P6AXXZEA 0000000180044150     TriangleMeshBuilder.obj
 0002:00000158       ?maxFError$initializer$@_VecMathTests@aos@shdfnd@physx@@3P6AXXZEA 0000000180044158     TriangleMeshBuilder.obj
 0002:00000160       ?minV3Error$initializer$@_VecMathTests@aos@shdfnd@physx@@3P6AXXZEA 0000000180044160     TriangleMeshBuilder.obj
 0002:00000168       ?maxV3Error$initializer$@_VecMathTests@aos@shdfnd@physx@@3P6AXXZEA 0000000180044168     TriangleMeshBuilder.obj
 0002:00000170       ?minV4Error$initializer$@_VecMathTests@aos@shdfnd@physx@@3P6AXXZEA 0000000180044170     TriangleMeshBuilder.obj
 0002:00000178       ?maxV4Error$initializer$@_VecMathTests@aos@shdfnd@physx@@3P6AXXZEA 0000000180044178     TriangleMeshBuilder.obj
 0002:00000190       ?minFError$initializer$@_VecMathTests@aos@shdfnd@physx@@3P6AXXZEA 0000000180044190     BigConvexDataBuilder.obj
 0002:00000198       ?maxFError$initializer$@_VecMathTests@aos@shdfnd@physx@@3P6AXXZEA 0000000180044198     BigConvexDataBuilder.obj
 0002:000001a0       ?minV3Error$initializer$@_VecMathTests@aos@shdfnd@physx@@3P6AXXZEA 00000001800441a0     BigConvexDataBuilder.obj
 0002:000001a8       ?maxV3Error$initializer$@_VecMathTests@aos@shdfnd@physx@@3P6AXXZEA 00000001800441a8     BigConvexDataBuilder.obj
 0002:000001b0       ?minV4Error$initializer$@_VecMathTests@aos@shdfnd@physx@@3P6AXXZEA 00000001800441b0     BigConvexDataBuilder.obj
 0002:000001b8       ?maxV4Error$initializer$@_VecMathTests@aos@shdfnd@physx@@3P6AXXZEA 00000001800441b8     BigConvexDataBuilder.obj
 0002:000001d0       ?minFError$initializer$@_VecMathTests@aos@shdfnd@physx@@3P6AXXZEA 00000001800441d0     ConvexHullBuilder.obj
 0002:000001d8       ?maxFError$initializer$@_VecMathTests@aos@shdfnd@physx@@3P6AXXZEA 00000001800441d8     ConvexHullBuilder.obj
 0002:000001e0       ?minV3Error$initializer$@_VecMathTests@aos@shdfnd@physx@@3P6AXXZEA 00000001800441e0     ConvexHullBuilder.obj
 0002:000001e8       ?maxV3Error$initializer$@_VecMathTests@aos@shdfnd@physx@@3P6AXXZEA 00000001800441e8     ConvexHullBuilder.obj
 0002:000001f0       ?minV4Error$initializer$@_VecMathTests@aos@shdfnd@physx@@3P6AXXZEA 00000001800441f0     ConvexHullBuilder.obj
 0002:000001f8       ?maxV4Error$initializer$@_VecMathTests@aos@shdfnd@physx@@3P6AXXZEA 00000001800441f8     ConvexHullBuilder.obj
 0002:00000210       ?minFError$initializer$@_VecMathTests@aos@shdfnd@physx@@3P6AXXZEA 0000000180044210     ConvexHullUtils.obj
 0002:00000218       ?maxFError$initializer$@_VecMathTests@aos@shdfnd@physx@@3P6AXXZEA 0000000180044218     ConvexHullUtils.obj
 0002:00000220       ?minV3Error$initializer$@_VecMathTests@aos@shdfnd@physx@@3P6AXXZEA 0000000180044220     ConvexHullUtils.obj
 0002:00000228       ?maxV3Error$initializer$@_VecMathTests@aos@shdfnd@physx@@3P6AXXZEA 0000000180044228     ConvexHullUtils.obj
 0002:00000230       ?minV4Error$initializer$@_VecMathTests@aos@shdfnd@physx@@3P6AXXZEA 0000000180044230     ConvexHullUtils.obj
 0002:00000238       ?maxV4Error$initializer$@_VecMathTests@aos@shdfnd@physx@@3P6AXXZEA 0000000180044238     ConvexHullUtils.obj
 0002:00000250       ?minFError$initializer$@_VecMathTests@aos@shdfnd@physx@@3P6AXXZEA 0000000180044250     ConvexMeshBuilder.obj
 0002:00000258       ?maxFError$initializer$@_VecMathTests@aos@shdfnd@physx@@3P6AXXZEA 0000000180044258     ConvexMeshBuilder.obj
 0002:00000260       ?minV3Error$initializer$@_VecMathTests@aos@shdfnd@physx@@3P6AXXZEA 0000000180044260     ConvexMeshBuilder.obj
 0002:00000268       ?maxV3Error$initializer$@_VecMathTests@aos@shdfnd@physx@@3P6AXXZEA 0000000180044268     ConvexMeshBuilder.obj
 0002:00000270       ?minV4Error$initializer$@_VecMathTests@aos@shdfnd@physx@@3P6AXXZEA 0000000180044270     ConvexMeshBuilder.obj
 0002:00000278       ?maxV4Error$initializer$@_VecMathTests@aos@shdfnd@physx@@3P6AXXZEA 0000000180044278     ConvexMeshBuilder.obj
 0002:00000290       ?minFError$initializer$@_VecMathTests@aos@shdfnd@physx@@3P6AXXZEA 0000000180044290     VolumeIntegration.obj
 0002:00000298       ?maxFError$initializer$@_VecMathTests@aos@shdfnd@physx@@3P6AXXZEA 0000000180044298     VolumeIntegration.obj
 0002:000002a0       ?minV3Error$initializer$@_VecMathTests@aos@shdfnd@physx@@3P6AXXZEA 00000001800442a0     VolumeIntegration.obj
 0002:000002a8       ?maxV3Error$initializer$@_VecMathTests@aos@shdfnd@physx@@3P6AXXZEA 00000001800442a8     VolumeIntegration.obj
 0002:000002b0       ?minV4Error$initializer$@_VecMathTests@aos@shdfnd@physx@@3P6AXXZEA 00000001800442b0     VolumeIntegration.obj
 0002:000002b8       ?maxV4Error$initializer$@_VecMathTests@aos@shdfnd@physx@@3P6AXXZEA 00000001800442b8     VolumeIntegration.obj
 0002:000002d0       ?minFError$initializer$@_VecMathTests@aos@shdfnd@physx@@3P6AXXZEA 00000001800442d0     Cooking.obj
 0002:000002d8       ?maxFError$initializer$@_VecMathTests@aos@shdfnd@physx@@3P6AXXZEA 00000001800442d8     Cooking.obj
 0002:000002e0       ?minV3Error$initializer$@_VecMathTests@aos@shdfnd@physx@@3P6AXXZEA 00000001800442e0     Cooking.obj
 0002:000002e8       ?maxV3Error$initializer$@_VecMathTests@aos@shdfnd@physx@@3P6AXXZEA 00000001800442e8     Cooking.obj
 0002:000002f0       ?minV4Error$initializer$@_VecMathTests@aos@shdfnd@physx@@3P6AXXZEA 00000001800442f0     Cooking.obj
 0002:000002f8       ?maxV4Error$initializer$@_VecMathTests@aos@shdfnd@physx@@3P6AXXZEA 00000001800442f8     Cooking.obj
 0002:00000ef0       ?minus1w@?A0x4d4440a6@aos@shdfnd@physx@@3QBMB 0000000180044ef0     RTreeCooking.obj
 0002:00000f00       ?gMaskXYZ@internalWindowsSimd@aos@shdfnd@physx@@3QBIB 0000000180044f00     RTreeCooking.obj
 0002:00000f48       ?stopAtTrisPerPage@physx@@3QBIB 0000000180044f48     RTreeCooking.obj
 0002:00000f88       ?stopAtTrisPerLeaf@physx@@3QBIB 0000000180044f88     RTreeCooking.obj
 0002:00001300       ?minus1w@?A0x6f0cec3b@aos@shdfnd@physx@@3QBMB 0000000180045300     TriangleMeshBuilder.obj
 0002:00001310       ?gMaskXYZ@internalWindowsSimd@aos@shdfnd@physx@@3QBIB 0000000180045310     TriangleMeshBuilder.obj
 0002:000018e0       ?minus1w@?A0xcb33c75f@aos@shdfnd@physx@@3QBMB 00000001800458e0     BigConvexDataBuilder.obj
 0002:000018f0       ?gMaskXYZ@internalWindowsSimd@aos@shdfnd@physx@@3QBIB 00000001800458f0     BigConvexDataBuilder.obj
 0002:000019c0       ?minus1w@?A0x8bfb62e7@aos@shdfnd@physx@@3QBMB 00000001800459c0     ConvexHullBuilder.obj
 0002:000019d0       ?gMaskXYZ@internalWindowsSimd@aos@shdfnd@physx@@3QBIB 00000001800459d0     ConvexHullBuilder.obj
 0002:00001ee0       ?minus1w@?A0x59c5f91a@aos@shdfnd@physx@@3QBMB 0000000180045ee0     ConvexHullUtils.obj
 0002:00001ef0       ?gMaskXYZ@internalWindowsSimd@aos@shdfnd@physx@@3QBIB 0000000180045ef0     ConvexHullUtils.obj
 0002:00001fc0       ?minus1w@?A0x455fc2b2@aos@shdfnd@physx@@3QBMB 0000000180045fc0     ConvexMeshBuilder.obj
 0002:00001fd0       ?gMaskXYZ@internalWindowsSimd@aos@shdfnd@physx@@3QBIB 0000000180045fd0     ConvexMeshBuilder.obj
 0002:00002830       ?minus1w@?A0x0a1571c3@aos@shdfnd@physx@@3QBMB 0000000180046830     VolumeIntegration.obj
 0002:00002840       ?gMaskXYZ@internalWindowsSimd@aos@shdfnd@physx@@3QBIB 0000000180046840     VolumeIntegration.obj
 0002:00002b70       ?minus1w@?A0xadd31648@aos@shdfnd@physx@@3QBMB 0000000180046b70     Cooking.obj
 0002:00002b80       ?gMaskXYZ@internalWindowsSimd@aos@shdfnd@physx@@3QBIB 0000000180046b80     Cooking.obj
 0002:000034f0       L_abs_mask                 00000001800474f0     MSVCRT:svml_ssinf4_dispatch.obj
 0002:00003500       L_real_one                 0000000180047500     MSVCRT:svml_ssinf4_dispatch.obj
 0002:00003510       L_one_half                 0000000180047510     MSVCRT:svml_ssinf4_dispatch.obj
 0002:00003520       L_two_to_neg_13            0000000180047520     MSVCRT:svml_ssinf4_dispatch.obj
 0002:00003530       L_pi_over_two              0000000180047530     MSVCRT:svml_ssinf4_dispatch.obj
 0002:00003540       L_pi_over_two2             0000000180047540     MSVCRT:svml_ssinf4_dispatch.obj
 0002:00004100       $unwind$?physXCommonDliNotePreLoadLibrary@Cm@physx@@YAP6A_JXZPEBDPEBVPxDelayLoadHook@2@@Z 0000000180048100     WindowsCookingDelayLoadHook.obj
 0002:00004110       $unwind$?saveHeightField@physx@@YA_NAEBVHeightField@Gu@1@AEAVPxOutputStream@1@_N@Z 0000000180048110     HeightFieldCooking.obj
 0002:00004120       $chain$2$?saveHeightField@physx@@YA_NAEBVHeightField@Gu@1@AEAVPxOutputStream@1@_N@Z 0000000180048120     HeightFieldCooking.obj
 0002:00004138       $chain$3$?saveHeightField@physx@@YA_NAEBVHeightField@Gu@1@AEAVPxOutputStream@1@_N@Z 0000000180048138     HeightFieldCooking.obj
 0002:00004150       $unwind$??_H@YAXPEAX_K1P6APEAX0@Z@Z 0000000180048150     RTreeCooking.obj
 0002:00004168       $unwind$?buildFromTriangles@RTreeCooker@physx@@SAXAEAURTree@Gu@2@PEBVPxVec3@2@IPEBGPEBIIAEAV?$Array@IVNamedAllocator@shdfnd@physx@@@shdfnd@2@PEAURemapCallback@12@MW4Enum@PxMeshCookingHint@2@@Z 0000000180048168     RTreeCooking.obj
 0002:00004174       $chain$7$?buildFromTriangles@RTreeCooker@physx@@SAXAEAURTree@Gu@2@PEBVPxVec3@2@IPEBGPEBIIAEAV?$Array@IVNamedAllocator@shdfnd@physx@@@shdfnd@2@PEAURemapCallback@12@MW4Enum@PxMeshCookingHint@2@@Z 0000000180048174     RTreeCooking.obj
 0002:000041a4       $chain$8$?buildFromTriangles@RTreeCooker@physx@@SAXAEAURTree@Gu@2@PEBVPxVec3@2@IPEBGPEBIIAEAV?$Array@IVNamedAllocator@shdfnd@physx@@@shdfnd@2@PEAURemapCallback@12@MW4Enum@PxMeshCookingHint@2@@Z 00000001800481a4     RTreeCooking.obj
 0002:000041b8       $chain$9$?buildFromTriangles@RTreeCooker@physx@@SAXAEAURTree@Gu@2@PEBVPxVec3@2@IPEBGPEBIIAEAV?$Array@IVNamedAllocator@shdfnd@physx@@@shdfnd@2@PEAURemapCallback@12@MW4Enum@PxMeshCookingHint@2@@Z 00000001800481b8     RTreeCooking.obj
 0002:000041c8       $chain$10$?buildFromTriangles@RTreeCooker@physx@@SAXAEAURTree@Gu@2@PEBVPxVec3@2@IPEBGPEBIIAEAV?$Array@IVNamedAllocator@shdfnd@physx@@@shdfnd@2@PEAURemapCallback@12@MW4Enum@PxMeshCookingHint@2@@Z 00000001800481c8     RTreeCooking.obj
 0002:000041e4       $unwind$?buildFromBounds@physx@@YAXAEAURTree@Gu@1@PEBUPxBounds3V@1@IAEAV?$Array@IVNamedAllocator@shdfnd@physx@@@shdfnd@1@PEAURemapCallback@RTreeCooker@1@AEAT__m128@@4MW4Enum@PxMeshCookingHint@1@@Z 00000001800481e4     RTreeCooking.obj
 0002:00004208       $unwind$?growAndPushBack@?$Array@UPxBounds3V@physx@@VNamedAllocator@shdfnd@2@@shdfnd@physx@@IEAAAEAUPxBounds3V@3@AEBU43@@Z 0000000180048208     RTreeCooking.obj
 0002:00004220       $unwind$?recreate@?$Array@UPxBounds3V@physx@@VNamedAllocator@shdfnd@2@@shdfnd@physx@@IEAAXI@Z 0000000180048220     RTreeCooking.obj
 0002:00004238       $unwind$?resize@?$Array@IVNamedAllocator@shdfnd@physx@@@shdfnd@physx@@QEAAXIAEBI@Z 0000000180048238     RTreeCooking.obj
 0002:00004250       $unwind$?growAndPushBack@?$Array@IVNamedAllocator@shdfnd@physx@@@shdfnd@physx@@IEAAAEAIAEBI@Z 0000000180048250     RTreeCooking.obj
 0002:00004268       $unwind$?recreate@?$Array@IVNamedAllocator@shdfnd@physx@@@shdfnd@physx@@IEAAXI@Z 0000000180048268     RTreeCooking.obj
 0002:0000427c       $chain$0$?recreate@?$Array@IVNamedAllocator@shdfnd@physx@@@shdfnd@physx@@IEAAXI@Z 000000018004827c     RTreeCooking.obj
 0002:00004294       $chain$1$?recreate@?$Array@IVNamedAllocator@shdfnd@physx@@@shdfnd@physx@@IEAAXI@Z 0000000180048294     RTreeCooking.obj
 0002:000042a8       $unwind$?growAndPushBack@?$Array@VPxVec3@physx@@VNamedAllocator@shdfnd@2@@shdfnd@physx@@IEAAAEAVPxVec3@3@AEBV43@@Z 00000001800482a8     RTreeCooking.obj
 0002:000042b8       $chain$0$?growAndPushBack@?$Array@VPxVec3@physx@@VNamedAllocator@shdfnd@2@@shdfnd@physx@@IEAAAEAVPxVec3@3@AEBV43@@Z 00000001800482b8     RTreeCooking.obj
 0002:000042d0       $chain$1$?growAndPushBack@?$Array@VPxVec3@physx@@VNamedAllocator@shdfnd@2@@shdfnd@physx@@IEAAAEAVPxVec3@3@AEBV43@@Z 00000001800482d0     RTreeCooking.obj
 0002:000042e8       $chain$2$?growAndPushBack@?$Array@VPxVec3@physx@@VNamedAllocator@shdfnd@2@@shdfnd@physx@@IEAAAEAVPxVec3@3@AEBV43@@Z 00000001800482e8     RTreeCooking.obj
 0002:000042fc       $chain$3$?growAndPushBack@?$Array@VPxVec3@physx@@VNamedAllocator@shdfnd@2@@shdfnd@physx@@IEAAAEAVPxVec3@3@AEBV43@@Z 00000001800482fc     RTreeCooking.obj
 0002:00004310       $unwind$?recreate@?$Array@VPxVec3@physx@@VNamedAllocator@shdfnd@2@@shdfnd@physx@@IEAAXI@Z 0000000180048310     RTreeCooking.obj
 0002:00004324       $chain$0$?recreate@?$Array@VPxVec3@physx@@VNamedAllocator@shdfnd@2@@shdfnd@physx@@IEAAXI@Z 0000000180048324     RTreeCooking.obj
 0002:0000433c       $chain$1$?recreate@?$Array@VPxVec3@physx@@VNamedAllocator@shdfnd@2@@shdfnd@physx@@IEAAXI@Z 000000018004833c     RTreeCooking.obj
 0002:00004350       $unwind$?sort4@SubSortQuick@physx@@QEAAXPEIAIIAEAV?$Array@URTreeNodeNQ@physx@@VNamedAllocator@shdfnd@2@@shdfnd@2@AEAIAEAUPxBounds3V@2@I@Z 0000000180048350     RTreeCooking.obj
 0002:0000436c       $unwind$?resizeUninitialized@?$Array@URTreeNodeNQ@physx@@VNamedAllocator@shdfnd@2@@shdfnd@physx@@QEAAXI@Z 000000018004836c     RTreeCooking.obj
 0002:0000437c       $unwind$?growAndPushBack@?$Array@URTreeNodeNQ@physx@@VNamedAllocator@shdfnd@2@@shdfnd@physx@@IEAAAEAURTreeNodeNQ@3@AEBU43@@Z 000000018004837c     RTreeCooking.obj
 0002:0000438c       $chain$0$?growAndPushBack@?$Array@URTreeNodeNQ@physx@@VNamedAllocator@shdfnd@2@@shdfnd@physx@@IEAAAEAURTreeNodeNQ@3@AEBU43@@Z 000000018004838c     RTreeCooking.obj
 0002:000043a4       $chain$1$?growAndPushBack@?$Array@URTreeNodeNQ@physx@@VNamedAllocator@shdfnd@2@@shdfnd@physx@@IEAAAEAURTreeNodeNQ@3@AEBU43@@Z 00000001800483a4     RTreeCooking.obj
 0002:000043bc       $chain$2$?growAndPushBack@?$Array@URTreeNodeNQ@physx@@VNamedAllocator@shdfnd@2@@shdfnd@physx@@IEAAAEAURTreeNodeNQ@3@AEBU43@@Z 00000001800483bc     RTreeCooking.obj
 0002:000043d0       $chain$3$?growAndPushBack@?$Array@URTreeNodeNQ@physx@@VNamedAllocator@shdfnd@2@@shdfnd@physx@@IEAAAEAURTreeNodeNQ@3@AEBU43@@Z 00000001800483d0     RTreeCooking.obj
 0002:000043e4       $unwind$?recreate@?$Array@URTreeNodeNQ@physx@@VNamedAllocator@shdfnd@2@@shdfnd@physx@@IEAAXI@Z 00000001800483e4     RTreeCooking.obj
 0002:000043f8       $chain$0$?recreate@?$Array@URTreeNodeNQ@physx@@VNamedAllocator@shdfnd@2@@shdfnd@physx@@IEAAXI@Z 00000001800483f8     RTreeCooking.obj
 0002:00004410       $chain$1$?recreate@?$Array@URTreeNodeNQ@physx@@VNamedAllocator@shdfnd@2@@shdfnd@physx@@IEAAXI@Z 0000000180048410     RTreeCooking.obj
 0002:00004424       $unwind$??$quickSelectFirstK@UBoundsLTE@physx@@@quickSelect@physx@@YAXPEIAIIIIAEBUBoundsLTE@1@@Z 0000000180048424     RTreeCooking.obj
 0002:00004440       $unwind$?split@SubSortSAH@physx@@QEAAIPEAII@Z 0000000180048440     RTreeCooking.obj
 0002:00004458       $chain$4$?split@SubSortSAH@physx@@QEAAIPEAII@Z 0000000180048458     RTreeCooking.obj
 0002:0000447c       $chain$5$?split@SubSortSAH@physx@@QEAAIPEAII@Z 000000018004847c     RTreeCooking.obj
 0002:00004494       $chain$6$?split@SubSortSAH@physx@@QEAAIPEAII@Z 0000000180048494     RTreeCooking.obj
 0002:000044a8       $chain$7$?split@SubSortSAH@physx@@QEAAIPEAII@Z 00000001800484a8     RTreeCooking.obj
 0002:000044bc       $unwind$?sort4@SubSortSAH@physx@@QEAAXPEAIIAEAV?$Array@URTreeNodeNQ@physx@@VNamedAllocator@shdfnd@2@@shdfnd@2@AEAIIPEAURTreeNodeNQ@2@@Z 00000001800484bc     RTreeCooking.obj
 0002:000044ec       $unwind$??$sort@I@shdfnd@physx@@YAXPEAII@Z 00000001800484ec     RTreeCooking.obj
 0002:000044fc       $unwind$?allocate@?$Array@UInterval@physx@@V?$InlineAllocator@$0CAAA@VNamedAllocator@shdfnd@physx@@@shdfnd@2@@shdfnd@physx@@IEAAPEAUInterval@3@I@Z 00000001800484fc     RTreeCooking.obj
 0002:00004504       $unwind$?growAndPushBack@?$Array@UInterval@physx@@V?$InlineAllocator@$0CAAA@VNamedAllocator@shdfnd@physx@@@shdfnd@2@@shdfnd@physx@@IEAAAEAUInterval@3@AEBU43@@Z 0000000180048504     RTreeCooking.obj
 0002:0000451c       $unwind$??0?$InlineArray@UInterval@physx@@$0EAA@VNamedAllocator@shdfnd@2@@shdfnd@physx@@QEAA@AEBVNamedAllocator@12@@Z 000000018004851c     RTreeCooking.obj
 0002:0000452c       $unwind$??$sort@IUSortBoundsPredicate@physx@@@shdfnd@physx@@YAXPEAIIAEBUSortBoundsPredicate@1@@Z 000000018004852c     RTreeCooking.obj
 0002:00004540       $unwind$?growAndPushBack@?$Array@URTreeNodeQ@Gu@physx@@VNamedAllocator@shdfnd@3@@shdfnd@physx@@IEAAAEAURTreeNodeQ@Gu@3@AEBU453@@Z 0000000180048540     RTreeCooking.obj
 0002:00004558       $unwind$?recreate@?$Array@URTreeNodeQ@Gu@physx@@VNamedAllocator@shdfnd@3@@shdfnd@physx@@IEAAXI@Z 0000000180048558     RTreeCooking.obj
 0002:00004570       $unwind$??$partition@UBoundsLTE@physx@@@quickSelect@physx@@YAIPEIAIIIIAEBUBoundsLTE@1@@Z 0000000180048570     RTreeCooking.obj
 0002:00004584       $chain$2$??$partition@UBoundsLTE@physx@@@quickSelect@physx@@YAIPEIAIIIIAEBUBoundsLTE@1@@Z 0000000180048584     RTreeCooking.obj
 0002:000045a4       $chain$3$??$partition@UBoundsLTE@physx@@@quickSelect@physx@@YAIPEIAIIIIAEBUBoundsLTE@1@@Z 00000001800485a4     RTreeCooking.obj
 0002:000045b8       $unwind$??$sort@IU?$Less@I@shdfnd@physx@@VNamedAllocator@23@@shdfnd@physx@@YAXPEAIIAEBU?$Less@I@01@AEBVNamedAllocator@01@I@Z 00000001800485b8     RTreeCooking.obj
 0002:000045dc       $unwind$??$sort@IUSortBoundsPredicate@physx@@VNamedAllocator@shdfnd@2@@shdfnd@physx@@YAXPEAIIAEBUSortBoundsPredicate@1@AEBVNamedAllocator@01@I@Z 00000001800485dc     RTreeCooking.obj
 0002:00004600       $unwind$??$smallSort@I$$CBUSortBoundsPredicate@physx@@@internal@shdfnd@physx@@YAXPEAIHHAEBUSortBoundsPredicate@2@@Z 0000000180048600     RTreeCooking.obj
 0002:00004614       $chain$5$??$smallSort@I$$CBUSortBoundsPredicate@physx@@@internal@shdfnd@physx@@YAXPEAIHHAEBUSortBoundsPredicate@2@@Z 0000000180048614     RTreeCooking.obj
 0002:00004640       $chain$6$??$smallSort@I$$CBUSortBoundsPredicate@physx@@@internal@shdfnd@physx@@YAXPEAIHHAEBUSortBoundsPredicate@2@@Z 0000000180048640     RTreeCooking.obj
 0002:00004654       $unwind$??1TriangleMeshData@Gu@physx@@UEAA@XZ 0000000180048654     TriangleMeshBuilder.obj
 0002:00004668       $unwind$?allocateVertices@TriangleMeshData@Gu@physx@@QEAAPEAVPxVec3@3@I@Z 0000000180048668     TriangleMeshBuilder.obj
 0002:0000467c       $unwind$?allocateTriangles@TriangleMeshData@Gu@physx@@QEAAPEAXI_NI@Z 000000018004867c     TriangleMeshBuilder.obj
 0002:00004694       $unwind$??_GTriangleMeshData@Gu@physx@@UEAAPEAXI@Z 0000000180048694     TriangleMeshBuilder.obj
 0002:000046a4       $unwind$??$?_UG@@YAPEAX_KV?$ReflectionAllocator@G@shdfnd@physx@@PEBDH@Z 00000001800486a4     TriangleMeshBuilder.obj
 0002:000046b8       $chain$0$??$?_UG@@YAPEAX_KV?$ReflectionAllocator@G@shdfnd@physx@@PEBDH@Z 00000001800486b8     TriangleMeshBuilder.obj
 0002:000046d0       $chain$1$??$?_UG@@YAPEAX_KV?$ReflectionAllocator@G@shdfnd@physx@@PEBDH@Z 00000001800486d0     TriangleMeshBuilder.obj
 0002:000046e4       $unwind$??$?_UI@@YAPEAX_KV?$ReflectionAllocator@I@shdfnd@physx@@PEBDH@Z 00000001800486e4     TriangleMeshBuilder.obj
 0002:000046f8       $chain$0$??$?_UI@@YAPEAX_KV?$ReflectionAllocator@I@shdfnd@physx@@PEBDH@Z 00000001800486f8     TriangleMeshBuilder.obj
 0002:00004710       $chain$1$??$?_UI@@YAPEAX_KV?$ReflectionAllocator@I@shdfnd@physx@@PEBDH@Z 0000000180048710     TriangleMeshBuilder.obj
 0002:00004724       $unwind$??1RTreeTriangleData@Gu@physx@@UEAA@XZ 0000000180048724     TriangleMeshBuilder.obj
 0002:0000472c       $chain$0$??1RTreeTriangleData@Gu@physx@@UEAA@XZ 000000018004872c     TriangleMeshBuilder.obj
 0002:00004744       $chain$1$??1RTreeTriangleData@Gu@physx@@UEAA@XZ 0000000180048744     TriangleMeshBuilder.obj
 0002:00004758       $unwind$??_GRTreeTriangleData@Gu@physx@@UEAAPEAXI@Z 0000000180048758     TriangleMeshBuilder.obj
 0002:00004768       $unwind$??1BV4TriangleData@Gu@physx@@UEAA@XZ 0000000180048768     TriangleMeshBuilder.obj
 0002:00004770       $unwind$??_GBV4TriangleData@Gu@physx@@UEAAPEAXI@Z 0000000180048770     TriangleMeshBuilder.obj
 0002:00004780       $unwind$??_GRemapCallback@RTreeCooker@physx@@UEAAPEAXI@Z 0000000180048780     TriangleMeshBuilder.obj
 0002:00004788       $unwind$??1TriangleMeshBuilder@physx@@UEAA@XZ 0000000180048788     TriangleMeshBuilder.obj
 0002:00004794       $unwind$?cleanMesh@TriangleMeshBuilder@physx@@QEAA_N_NPEAW4Enum@PxTriangleMeshCookingResult@2@@Z 0000000180048794     TriangleMeshBuilder.obj
 0002:000047a8       $chain$1$?cleanMesh@TriangleMeshBuilder@physx@@QEAA_N_NPEAW4Enum@PxTriangleMeshCookingResult@2@@Z 00000001800487a8     TriangleMeshBuilder.obj
 0002:000047c0       $chain$2$?cleanMesh@TriangleMeshBuilder@physx@@QEAA_N_NPEAW4Enum@PxTriangleMeshCookingResult@2@@Z 00000001800487c0     TriangleMeshBuilder.obj
 0002:000047d4       $chain$3$?cleanMesh@TriangleMeshBuilder@physx@@QEAA_N_NPEAW4Enum@PxTriangleMeshCookingResult@2@@Z 00000001800487d4     TriangleMeshBuilder.obj
 0002:000047e4       $chain$7$?cleanMesh@TriangleMeshBuilder@physx@@QEAA_N_NPEAW4Enum@PxTriangleMeshCookingResult@2@@Z 00000001800487e4     TriangleMeshBuilder.obj
 0002:00004800       $chain$4$?cleanMesh@TriangleMeshBuilder@physx@@QEAA_N_NPEAW4Enum@PxTriangleMeshCookingResult@2@@Z 0000000180048800     TriangleMeshBuilder.obj
 0002:00004814       $chain$8$?cleanMesh@TriangleMeshBuilder@physx@@QEAA_N_NPEAW4Enum@PxTriangleMeshCookingResult@2@@Z 0000000180048814     TriangleMeshBuilder.obj
 0002:00004824       $unwind$?remapTopology@TriangleMeshBuilder@physx@@QEAAXPEBI@Z 0000000180048824     TriangleMeshBuilder.obj
 0002:00004830       $chain$1$?remapTopology@TriangleMeshBuilder@physx@@QEAAXPEBI@Z 0000000180048830     TriangleMeshBuilder.obj
 0002:00004848       $chain$2$?remapTopology@TriangleMeshBuilder@physx@@QEAAXPEBI@Z 0000000180048848     TriangleMeshBuilder.obj
 0002:0000485c       $chain$3$?remapTopology@TriangleMeshBuilder@physx@@QEAAXPEBI@Z 000000018004885c     TriangleMeshBuilder.obj
 0002:0000486c       $chain$4$?remapTopology@TriangleMeshBuilder@physx@@QEAAXPEBI@Z 000000018004886c     TriangleMeshBuilder.obj
 0002:0000487c       $unwind$?createSharedEdgeData@TriangleMeshBuilder@physx@@QEAAX_N0@Z 000000018004887c     TriangleMeshBuilder.obj
 0002:00004888       $chain$3$?createSharedEdgeData@TriangleMeshBuilder@physx@@QEAAX_N0@Z 0000000180048888     TriangleMeshBuilder.obj
 0002:000048a8       $chain$4$?createSharedEdgeData@TriangleMeshBuilder@physx@@QEAAX_N0@Z 00000001800488a8     TriangleMeshBuilder.obj
 0002:000048bc       $chain$5$?createSharedEdgeData@TriangleMeshBuilder@physx@@QEAAX_N0@Z 00000001800488bc     TriangleMeshBuilder.obj
 0002:000048cc       $chain$6$?createSharedEdgeData@TriangleMeshBuilder@physx@@QEAAX_N0@Z 00000001800488cc     TriangleMeshBuilder.obj
 0002:000048dc       $unwind$?recordTriangleIndices@TriangleMeshBuilder@physx@@QEAAXXZ 00000001800488dc     TriangleMeshBuilder.obj
 0002:000048e4       $unwind$?createGRBMidPhaseAndData@TriangleMeshBuilder@physx@@QEAAXI@Z 00000001800488e4     TriangleMeshBuilder.obj
 0002:000048f0       $chain$0$?createGRBMidPhaseAndData@TriangleMeshBuilder@physx@@QEAAXI@Z 00000001800488f0     TriangleMeshBuilder.obj
 0002:00004904       $chain$1$?createGRBMidPhaseAndData@TriangleMeshBuilder@physx@@QEAAXI@Z 0000000180048904     TriangleMeshBuilder.obj
 0002:00004918       $chain$4$?createGRBMidPhaseAndData@TriangleMeshBuilder@physx@@QEAAXI@Z 0000000180048918     TriangleMeshBuilder.obj
 0002:00004934       $chain$5$?createGRBMidPhaseAndData@TriangleMeshBuilder@physx@@QEAAXI@Z 0000000180048934     TriangleMeshBuilder.obj
 0002:0000494c       $chain$6$?createGRBMidPhaseAndData@TriangleMeshBuilder@physx@@QEAAXI@Z 000000018004894c     TriangleMeshBuilder.obj
 0002:0000495c       $chain$7$?createGRBMidPhaseAndData@TriangleMeshBuilder@physx@@QEAAXI@Z 000000018004895c     TriangleMeshBuilder.obj
 0002:0000496c       $chain$8$?createGRBMidPhaseAndData@TriangleMeshBuilder@physx@@QEAAXI@Z 000000018004896c     TriangleMeshBuilder.obj
 0002:0000497c       $unwind$?createGRBData@TriangleMeshBuilder@physx@@QEAAXXZ 000000018004897c     TriangleMeshBuilder.obj
 0002:0000498c       $unwind$?loadFromDesc@TriangleMeshBuilder@physx@@QEAA_NAEBVPxTriangleMeshDesc@2@PEAW4Enum@PxTriangleMeshCookingResult@2@_N@Z 000000018004898c     TriangleMeshBuilder.obj
 0002:000049a0       $chain$0$?loadFromDesc@TriangleMeshBuilder@physx@@QEAA_NAEBVPxTriangleMeshDesc@2@PEAW4Enum@PxTriangleMeshCookingResult@2@_N@Z 00000001800489a0     TriangleMeshBuilder.obj
 0002:000049b4       $chain$2$?loadFromDesc@TriangleMeshBuilder@physx@@QEAA_NAEBVPxTriangleMeshDesc@2@PEAW4Enum@PxTriangleMeshCookingResult@2@_N@Z 00000001800489b4     TriangleMeshBuilder.obj
 0002:000049cc       $chain$3$?loadFromDesc@TriangleMeshBuilder@physx@@QEAA_NAEBVPxTriangleMeshDesc@2@PEAW4Enum@PxTriangleMeshCookingResult@2@_N@Z 00000001800489cc     TriangleMeshBuilder.obj
 0002:000049e0       $chain$4$?loadFromDesc@TriangleMeshBuilder@physx@@QEAA_NAEBVPxTriangleMeshDesc@2@PEAW4Enum@PxTriangleMeshCookingResult@2@_N@Z 00000001800489e0     TriangleMeshBuilder.obj
 0002:000049f0       $chain$5$?loadFromDesc@TriangleMeshBuilder@physx@@QEAA_NAEBVPxTriangleMeshDesc@2@PEAW4Enum@PxTriangleMeshCookingResult@2@_N@Z 00000001800489f0     TriangleMeshBuilder.obj
 0002:00004a00       $chain$7$?loadFromDesc@TriangleMeshBuilder@physx@@QEAA_NAEBVPxTriangleMeshDesc@2@PEAW4Enum@PxTriangleMeshCookingResult@2@_N@Z 0000000180048a00     TriangleMeshBuilder.obj
 0002:00004a1c       $chain$8$?loadFromDesc@TriangleMeshBuilder@physx@@QEAA_NAEBVPxTriangleMeshDesc@2@PEAW4Enum@PxTriangleMeshCookingResult@2@_N@Z 0000000180048a1c     TriangleMeshBuilder.obj
 0002:00004a2c       $unwind$?save@TriangleMeshBuilder@physx@@QEBA_NAEAVPxOutputStream@2@_NAEBUPxCookingParams@2@@Z 0000000180048a2c     TriangleMeshBuilder.obj
 0002:00004a48       $chain$3$?save@TriangleMeshBuilder@physx@@QEBA_NAEAVPxOutputStream@2@_NAEBUPxCookingParams@2@@Z 0000000180048a48     TriangleMeshBuilder.obj
 0002:00004a5c       $unwind$?checkMeshIndicesSize@TriangleMeshBuilder@physx@@QEAAXXZ 0000000180048a5c     TriangleMeshBuilder.obj
 0002:00004a68       $chain$1$?checkMeshIndicesSize@TriangleMeshBuilder@physx@@QEAAXXZ 0000000180048a68     TriangleMeshBuilder.obj
 0002:00004a80       $chain$2$?checkMeshIndicesSize@TriangleMeshBuilder@physx@@QEAAXXZ 0000000180048a80     TriangleMeshBuilder.obj
 0002:00004a94       $chain$3$?checkMeshIndicesSize@TriangleMeshBuilder@physx@@QEAAXXZ 0000000180048a94     TriangleMeshBuilder.obj
 0002:00004aa4       $chain$4$?checkMeshIndicesSize@TriangleMeshBuilder@physx@@QEAAXXZ 0000000180048aa4     TriangleMeshBuilder.obj
 0002:00004ab4       $unwind$?computeLocalBounds@TriangleMeshBuilder@physx@@IEAAXXZ 0000000180048ab4     TriangleMeshBuilder.obj
 0002:00004ac0       $unwind$?importMesh@TriangleMeshBuilder@physx@@IEAA_NAEBVPxTriangleMeshDesc@2@AEBUPxCookingParams@2@PEAW4Enum@PxTriangleMeshCookingResult@2@_N@Z 0000000180048ac0     TriangleMeshBuilder.obj
 0002:00004ad8       $unwind$?releaseEdgeList@TriangleMeshBuilder@physx@@IEAAXXZ 0000000180048ad8     TriangleMeshBuilder.obj
 0002:00004ae4       $unwind$?createEdgeList@TriangleMeshBuilder@physx@@IEAAXXZ 0000000180048ae4     TriangleMeshBuilder.obj
 0002:00004af0       $unwind$??1RTreeTriangleMeshBuilder@physx@@UEAA@XZ 0000000180048af0     TriangleMeshBuilder.obj
 0002:00004af8       $unwind$?createMidPhaseStructure@RTreeTriangleMeshBuilder@physx@@UEAAXXZ 0000000180048af8     TriangleMeshBuilder.obj
 0002:00004b0c       $unwind$?saveMidPhaseStructure@RTreeTriangleMeshBuilder@physx@@UEBAXAEAVPxOutputStream@2@_N@Z 0000000180048b0c     TriangleMeshBuilder.obj
 0002:00004b1c       $chain$0$?saveMidPhaseStructure@RTreeTriangleMeshBuilder@physx@@UEBAXAEAVPxOutputStream@2@_N@Z 0000000180048b1c     TriangleMeshBuilder.obj
 0002:00004b30       $chain$1$?saveMidPhaseStructure@RTreeTriangleMeshBuilder@physx@@UEBAXAEAVPxOutputStream@2@_N@Z 0000000180048b30     TriangleMeshBuilder.obj
 0002:00004b40       $unwind$??0BV4TriangleMeshBuilder@physx@@QEAA@AEBUPxCookingParams@1@@Z 0000000180048b40     TriangleMeshBuilder.obj
 0002:00004b4c       $unwind$??1BV4TriangleMeshBuilder@physx@@UEAA@XZ 0000000180048b4c     TriangleMeshBuilder.obj
 0002:00004b58       $unwind$?createMidPhaseStructure@BV4TriangleMeshBuilder@physx@@UEAAXXZ 0000000180048b58     TriangleMeshBuilder.obj
 0002:00004b64       $chain$2$?createMidPhaseStructure@BV4TriangleMeshBuilder@physx@@UEAAXXZ 0000000180048b64     TriangleMeshBuilder.obj
 0002:00004b80       $chain$3$?createMidPhaseStructure@BV4TriangleMeshBuilder@physx@@UEAAXXZ 0000000180048b80     TriangleMeshBuilder.obj
 0002:00004b94       $chain$4$?createMidPhaseStructure@BV4TriangleMeshBuilder@physx@@UEAAXXZ 0000000180048b94     TriangleMeshBuilder.obj
 0002:00004ba4       $chain$5$?createMidPhaseStructure@BV4TriangleMeshBuilder@physx@@UEAAXXZ 0000000180048ba4     TriangleMeshBuilder.obj
 0002:00004bb8       $unwind$?saveMidPhaseStructure@BV4TriangleMeshBuilder@physx@@UEBAXAEAVPxOutputStream@2@_N@Z 0000000180048bb8     TriangleMeshBuilder.obj
 0002:00004bc8       $chain$0$?saveMidPhaseStructure@BV4TriangleMeshBuilder@physx@@UEBAXAEAVPxOutputStream@2@_N@Z 0000000180048bc8     TriangleMeshBuilder.obj
 0002:00004bdc       $chain$1$?saveMidPhaseStructure@BV4TriangleMeshBuilder@physx@@UEBAXAEAVPxOutputStream@2@_N@Z 0000000180048bdc     TriangleMeshBuilder.obj
 0002:00004bec       $unwind$?createMidPhaseStructure@BV32TriangleMeshBuilder@physx@@SAXAEBUPxCookingParams@2@AEAVTriangleMeshData@Gu@2@AEAVBV32Tree@52@@Z 0000000180048bec     TriangleMeshBuilder.obj
 0002:00004bfc       $unwind$?saveMidPhaseStructure@BV32TriangleMeshBuilder@physx@@SAXPEAVBV32Tree@Gu@2@AEAVPxOutputStream@2@_N@Z 0000000180048bfc     TriangleMeshBuilder.obj
 0002:00004c0c       $chain$1$?saveMidPhaseStructure@BV32TriangleMeshBuilder@physx@@SAXPEAVBV32Tree@Gu@2@AEAVPxOutputStream@2@_N@Z 0000000180048c0c     TriangleMeshBuilder.obj
 0002:00004c24       $chain$2$?saveMidPhaseStructure@BV32TriangleMeshBuilder@physx@@SAXPEAVBV32Tree@Gu@2@AEAVPxOutputStream@2@_N@Z 0000000180048c24     TriangleMeshBuilder.obj
 0002:00004c34       $unwind$?findSharpVertices@GrbTrimeshCookerHelper@physx@@YAXAEAV?$Array@USortedNeighbor@GrbTrimeshCookerHelper@physx@@VNamedAllocator@shdfnd@3@@shdfnd@2@AEAV?$Array@USharpEdgeRange@GrbTrimeshCookerHelper@physx@@VNamedAllocator@shdfnd@3@@42@PEBUuint3@2@PEBUuint4@2@II@Z 0000000180048c34     TriangleMeshBuilder.obj
 0002:00004c44       $chain$0$?findSharpVertices@GrbTrimeshCookerHelper@physx@@YAXAEAV?$Array@USortedNeighbor@GrbTrimeshCookerHelper@physx@@VNamedAllocator@shdfnd@3@@shdfnd@2@AEAV?$Array@USharpEdgeRange@GrbTrimeshCookerHelper@physx@@VNamedAllocator@shdfnd@3@@42@PEBUuint3@2@PEBUuint4@2@II@Z 0000000180048c44     TriangleMeshBuilder.obj
 0002:00004c58       $chain$1$?findSharpVertices@GrbTrimeshCookerHelper@physx@@YAXAEAV?$Array@USortedNeighbor@GrbTrimeshCookerHelper@physx@@VNamedAllocator@shdfnd@3@@shdfnd@2@AEAV?$Array@USharpEdgeRange@GrbTrimeshCookerHelper@physx@@VNamedAllocator@shdfnd@3@@42@PEBUuint3@2@PEBUuint4@2@II@Z 0000000180048c58     TriangleMeshBuilder.obj
 0002:00004c6c       $chain$2$?findSharpVertices@GrbTrimeshCookerHelper@physx@@YAXAEAV?$Array@USortedNeighbor@GrbTrimeshCookerHelper@physx@@VNamedAllocator@shdfnd@3@@shdfnd@2@AEAV?$Array@USharpEdgeRange@GrbTrimeshCookerHelper@physx@@VNamedAllocator@shdfnd@3@@42@PEBUuint3@2@PEBUuint4@2@II@Z 0000000180048c6c     TriangleMeshBuilder.obj
 0002:00004c7c       $chain$3$?findSharpVertices@GrbTrimeshCookerHelper@physx@@YAXAEAV?$Array@USortedNeighbor@GrbTrimeshCookerHelper@physx@@VNamedAllocator@shdfnd@3@@shdfnd@2@AEAV?$Array@USharpEdgeRange@GrbTrimeshCookerHelper@physx@@VNamedAllocator@shdfnd@3@@42@PEBUuint3@2@PEBUuint4@2@II@Z 0000000180048c7c     TriangleMeshBuilder.obj
 0002:00004c8c       $unwind$?buildVertexConnectionNew_p1@GrbTrimeshCookerHelper@physx@@YAIAEAV?$Array@USortedNeighbor@GrbTrimeshCookerHelper@physx@@VNamedAllocator@shdfnd@3@@shdfnd@2@AEAV?$Array@USharpEdgeRange@GrbTrimeshCookerHelper@physx@@VNamedAllocator@shdfnd@3@@42@PEBUuint3@2@PEBUuint4@2@II@Z 0000000180048c8c     TriangleMeshBuilder.obj
 0002:00004c9c       $chain$1$?buildVertexConnectionNew_p1@GrbTrimeshCookerHelper@physx@@YAIAEAV?$Array@USortedNeighbor@GrbTrimeshCookerHelper@physx@@VNamedAllocator@shdfnd@3@@shdfnd@2@AEAV?$Array@USharpEdgeRange@GrbTrimeshCookerHelper@physx@@VNamedAllocator@shdfnd@3@@42@PEBUuint3@2@PEBUuint4@2@II@Z 0000000180048c9c     TriangleMeshBuilder.obj
 0002:00004cb4       $chain$2$?buildVertexConnectionNew_p1@GrbTrimeshCookerHelper@physx@@YAIAEAV?$Array@USortedNeighbor@GrbTrimeshCookerHelper@physx@@VNamedAllocator@shdfnd@3@@shdfnd@2@AEAV?$Array@USharpEdgeRange@GrbTrimeshCookerHelper@physx@@VNamedAllocator@shdfnd@3@@42@PEBUuint3@2@PEBUuint4@2@II@Z 0000000180048cb4     TriangleMeshBuilder.obj
 0002:00004cc4       $unwind$?buildVertexConnectionNew_p2@GrbTrimeshCookerHelper@physx@@YAXPEAI00AEAV?$Array@USortedNeighbor@GrbTrimeshCookerHelper@physx@@VNamedAllocator@shdfnd@3@@shdfnd@2@AEAV?$Array@USharpEdgeRange@GrbTrimeshCookerHelper@physx@@VNamedAllocator@shdfnd@3@@42@I@Z 0000000180048cc4     TriangleMeshBuilder.obj
 0002:00004cd0       $chain$2$?buildVertexConnectionNew_p2@GrbTrimeshCookerHelper@physx@@YAXPEAI00AEAV?$Array@USortedNeighbor@GrbTrimeshCookerHelper@physx@@VNamedAllocator@shdfnd@3@@shdfnd@2@AEAV?$Array@USharpEdgeRange@GrbTrimeshCookerHelper@physx@@VNamedAllocator@shdfnd@3@@42@I@Z 0000000180048cd0     TriangleMeshBuilder.obj
 0002:00004cec       $chain$3$?buildVertexConnectionNew_p2@GrbTrimeshCookerHelper@physx@@YAXPEAI00AEAV?$Array@USortedNeighbor@GrbTrimeshCookerHelper@physx@@VNamedAllocator@shdfnd@3@@shdfnd@2@AEAV?$Array@USharpEdgeRange@GrbTrimeshCookerHelper@physx@@VNamedAllocator@shdfnd@3@@42@I@Z 0000000180048cec     TriangleMeshBuilder.obj
 0002:00004d88       $unwind$??_GTriangleMeshBuilder@physx@@UEAAPEAXI@Z 0000000180048d88     TriangleMeshBuilder.obj
 0002:00004d98       $unwind$??_GRTreeTriangleMeshBuilder@physx@@UEAAPEAXI@Z 0000000180048d98     TriangleMeshBuilder.obj
 0002:00004da8       $unwind$??_GBV4TriangleMeshBuilder@physx@@UEAAPEAXI@Z 0000000180048da8     TriangleMeshBuilder.obj
 0002:00004dbc       $unwind$?findAdjacent@physx@@YAIPEBVPxVec3@1@0PEBUuint3@1@IIIAEBVPxPlane@1@PEAUEdgeTriLookup@1@I@Z 0000000180048dbc     TriangleMeshBuilder.obj
 0002:00004de4       $unwind$?buildAdjacencies@physx@@YAXPEAUuint4@1@PEAVPxVec3@1@PEBV31@PEBUuint3@1@I@Z 0000000180048de4     TriangleMeshBuilder.obj
 0002:00004df4       $chain$7$?buildAdjacencies@physx@@YAXPEAUuint4@1@PEAVPxVec3@1@PEBV31@PEBUuint3@1@I@Z 0000000180048df4     TriangleMeshBuilder.obj
 0002:00004e28       $chain$11$?buildAdjacencies@physx@@YAXPEAUuint4@1@PEAVPxVec3@1@PEBV31@PEBUuint3@1@I@Z 0000000180048e28     TriangleMeshBuilder.obj
 0002:00004e4c       $chain$12$?buildAdjacencies@physx@@YAXPEAUuint4@1@PEAVPxVec3@1@PEBV31@PEBUuint3@1@I@Z 0000000180048e4c     TriangleMeshBuilder.obj
 0002:00004e60       $chain$13$?buildAdjacencies@physx@@YAXPEAUuint4@1@PEAVPxVec3@1@PEBV31@PEBUuint3@1@I@Z 0000000180048e60     TriangleMeshBuilder.obj
 0002:00004e74       $unwind$??$sort@UEdgeTriLookup@physx@@@shdfnd@physx@@YAXPEAUEdgeTriLookup@1@I@Z 0000000180048e74     TriangleMeshBuilder.obj
 0002:00004e84       $unwind$?resizeUninitialized@?$Array@USortedNeighbor@GrbTrimeshCookerHelper@physx@@VNamedAllocator@shdfnd@3@@shdfnd@physx@@QEAAXI@Z 0000000180048e84     TriangleMeshBuilder.obj
 0002:00004e94       $unwind$?growAndPushBack@?$Array@USortedNeighbor@GrbTrimeshCookerHelper@physx@@VNamedAllocator@shdfnd@3@@shdfnd@physx@@IEAAAEAUSortedNeighbor@GrbTrimeshCookerHelper@3@AEBU453@@Z 0000000180048e94     TriangleMeshBuilder.obj
 0002:00004eac       $unwind$?recreate@?$Array@USortedNeighbor@GrbTrimeshCookerHelper@physx@@VNamedAllocator@shdfnd@3@@shdfnd@physx@@IEAAXI@Z 0000000180048eac     TriangleMeshBuilder.obj
 0002:00004ec4       $unwind$??$sort@USortedNeighbor@GrbTrimeshCookerHelper@physx@@@shdfnd@physx@@YAXPEAUSortedNeighbor@GrbTrimeshCookerHelper@1@I@Z 0000000180048ec4     TriangleMeshBuilder.obj
 0002:00004ed4       $unwind$?resize@?$Array@USharpEdgeRange@GrbTrimeshCookerHelper@physx@@VNamedAllocator@shdfnd@3@@shdfnd@physx@@QEAAXIAEBUSharpEdgeRange@GrbTrimeshCookerHelper@3@@Z 0000000180048ed4     TriangleMeshBuilder.obj
 0002:00004eec       $unwind$?recreate@?$Array@USharpEdgeRange@GrbTrimeshCookerHelper@physx@@VNamedAllocator@shdfnd@3@@shdfnd@physx@@IEAAXI@Z 0000000180048eec     TriangleMeshBuilder.obj
 0002:00004f00       $chain$0$?recreate@?$Array@USharpEdgeRange@GrbTrimeshCookerHelper@physx@@VNamedAllocator@shdfnd@3@@shdfnd@physx@@IEAAXI@Z 0000000180048f00     TriangleMeshBuilder.obj
 0002:00004f18       $chain$1$?recreate@?$Array@USharpEdgeRange@GrbTrimeshCookerHelper@physx@@VNamedAllocator@shdfnd@3@@shdfnd@physx@@IEAAXI@Z 0000000180048f18     TriangleMeshBuilder.obj
 0002:00004f2c       $unwind$??_GRTreeCookerRemap@physx@@UEAAPEAXI@Z 0000000180048f2c     TriangleMeshBuilder.obj
 0002:00004f34       $unwind$??$sort@UEdgeTriLookup@physx@@U?$Less@UEdgeTriLookup@physx@@@shdfnd@2@VNamedAllocator@42@@shdfnd@physx@@YAXPEAUEdgeTriLookup@1@IAEBU?$Less@UEdgeTriLookup@physx@@@01@AEBVNamedAllocator@01@I@Z 0000000180048f34     TriangleMeshBuilder.obj
 0002:00004f58       $unwind$??$sort@USortedNeighbor@GrbTrimeshCookerHelper@physx@@U?$Less@USortedNeighbor@GrbTrimeshCookerHelper@physx@@@shdfnd@3@VNamedAllocator@53@@shdfnd@physx@@YAXPEAUSortedNeighbor@GrbTrimeshCookerHelper@1@IAEBU?$Less@USortedNeighbor@GrbTrimeshCookerHelper@physx@@@01@AEBVNamedAllocator@01@I@Z 0000000180048f58     TriangleMeshBuilder.obj
 0002:00004f7c       $unwind$?precompute@BigConvexDataBuilder@physx@@QEAA_NI@Z 0000000180048f7c     BigConvexDataBuilder.obj
 0002:00004f94       $chain$10$?precompute@BigConvexDataBuilder@physx@@QEAA_NI@Z 0000000180048f94     BigConvexDataBuilder.obj
 0002:00004fd0       $chain$11$?precompute@BigConvexDataBuilder@physx@@QEAA_NI@Z 0000000180048fd0     BigConvexDataBuilder.obj
 0002:00004fe0       $unwind$?initialize@BigConvexDataBuilder@physx@@QEAA_NXZ 0000000180048fe0     BigConvexDataBuilder.obj
 0002:00004fec       $chain$0$?initialize@BigConvexDataBuilder@physx@@QEAA_NXZ 0000000180048fec     BigConvexDataBuilder.obj
 0002:00005000       $chain$1$?initialize@BigConvexDataBuilder@physx@@QEAA_NXZ 0000000180049000     BigConvexDataBuilder.obj
 0002:00005010       $unwind$?save@BigConvexDataBuilder@physx@@QEBA_NAEAVPxOutputStream@2@_N@Z 0000000180049010     BigConvexDataBuilder.obj
 0002:00005020       $chain$0$?save@BigConvexDataBuilder@physx@@QEBA_NAEAVPxOutputStream@2@_N@Z 0000000180049020     BigConvexDataBuilder.obj
 0002:00005034       $chain$1$?save@BigConvexDataBuilder@physx@@QEBA_NAEAVPxOutputStream@2@_N@Z 0000000180049034     BigConvexDataBuilder.obj
 0002:00005048       $chain$2$?save@BigConvexDataBuilder@physx@@QEBA_NAEAVPxOutputStream@2@_N@Z 0000000180049048     BigConvexDataBuilder.obj
 0002:00005058       $chain$3$?save@BigConvexDataBuilder@physx@@QEBA_NAEAVPxOutputStream@2@_N@Z 0000000180049058     BigConvexDataBuilder.obj
 0002:00005068       $unwind$?computeValencies@BigConvexDataBuilder@physx@@QEAA_NAEBVConvexHullBuilder@2@@Z 0000000180049068     BigConvexDataBuilder.obj
 0002:0000507c       $chain$2$?computeValencies@BigConvexDataBuilder@physx@@QEAA_NAEBVConvexHullBuilder@2@@Z 000000018004907c     BigConvexDataBuilder.obj
 0002:00005098       $chain$3$?computeValencies@BigConvexDataBuilder@physx@@QEAA_NAEBVConvexHullBuilder@2@@Z 0000000180049098     BigConvexDataBuilder.obj
 0002:000050a8       $unwind$?saveValencies@BigConvexDataBuilder@physx@@QEBA_NAEAVPxOutputStream@2@_N@Z 00000001800490a8     BigConvexDataBuilder.obj
 0002:000050b4       $chain$1$?saveValencies@BigConvexDataBuilder@physx@@QEBA_NAEAVPxOutputStream@2@_N@Z 00000001800490b4     BigConvexDataBuilder.obj
 0002:000050cc       $chain$2$?saveValencies@BigConvexDataBuilder@physx@@QEBA_NAEAVPxOutputStream@2@_N@Z 00000001800490cc     BigConvexDataBuilder.obj
 0002:000050e0       $chain$3$?saveValencies@BigConvexDataBuilder@physx@@QEBA_NAEAVPxOutputStream@2@_N@Z 00000001800490e0     BigConvexDataBuilder.obj
 0002:000050f0       $chain$4$?saveValencies@BigConvexDataBuilder@physx@@QEBA_NAEAVPxOutputStream@2@_N@Z 00000001800490f0     BigConvexDataBuilder.obj
 0002:0000512c       $unwind$??1ConvexHullBuilder@physx@@QEAA@XZ 000000018004912c     ConvexHullBuilder.obj
 0002:0000513c       $unwind$?init@ConvexHullBuilder@physx@@QEAA_NIPEBVPxVec3@2@PEBIIIPEBUPxHullPolygon@2@_NPEAVConvexHullLib@2@@Z 000000018004913c     ConvexHullBuilder.obj
 0002:00005154       $chain$0$?init@ConvexHullBuilder@physx@@QEAA_NIPEBVPxVec3@2@PEBIIIPEBUPxHullPolygon@2@_NPEAVConvexHullLib@2@@Z 0000000180049154     ConvexHullBuilder.obj
 0002:00005168       $chain$2$?init@ConvexHullBuilder@physx@@QEAA_NIPEBVPxVec3@2@PEBIIIPEBUPxHullPolygon@2@_NPEAVConvexHullLib@2@@Z 0000000180049168     ConvexHullBuilder.obj
 0002:00005180       $chain$3$?init@ConvexHullBuilder@physx@@QEAA_NIPEBVPxVec3@2@PEBIIIPEBUPxHullPolygon@2@_NPEAVConvexHullLib@2@@Z 0000000180049180     ConvexHullBuilder.obj
 0002:00005190       $chain$4$?init@ConvexHullBuilder@physx@@QEAA_NIPEBVPxVec3@2@PEBIIIPEBUPxHullPolygon@2@_NPEAVConvexHullLib@2@@Z 0000000180049190     ConvexHullBuilder.obj
 0002:000051a0       $unwind$?save@ConvexHullBuilder@physx@@QEBA_NAEAVPxOutputStream@2@_N@Z 00000001800491a0     ConvexHullBuilder.obj
 0002:000051b0       $chain$0$?save@ConvexHullBuilder@physx@@QEBA_NAEAVPxOutputStream@2@_N@Z 00000001800491b0     ConvexHullBuilder.obj
 0002:000051c4       $chain$3$?save@ConvexHullBuilder@physx@@QEBA_NAEAVPxOutputStream@2@_N@Z 00000001800491c4     ConvexHullBuilder.obj
 0002:000051e0       $chain$4$?save@ConvexHullBuilder@physx@@QEBA_NAEAVPxOutputStream@2@_N@Z 00000001800491e0     ConvexHullBuilder.obj
 0002:000051f4       $chain$5$?save@ConvexHullBuilder@physx@@QEBA_NAEAVPxOutputStream@2@_N@Z 00000001800491f4     ConvexHullBuilder.obj
 0002:00005204       $unwind$?copy@ConvexHullBuilder@physx@@QEAA_NAEAUConvexHullData@Gu@2@AEAI@Z 0000000180049204     ConvexHullBuilder.obj
 0002:00005220       $unwind$?createEdgeList@ConvexHullBuilder@physx@@QEAA_N_NI@Z 0000000180049220     ConvexHullBuilder.obj
 0002:00005230       $chain$4$?createEdgeList@ConvexHullBuilder@physx@@QEAA_N_NI@Z 0000000180049230     ConvexHullBuilder.obj
 0002:00005254       $chain$6$?createEdgeList@ConvexHullBuilder@physx@@QEAA_N_NI@Z 0000000180049254     ConvexHullBuilder.obj
 0002:00005278       $unwind$?checkHullPolygons@ConvexHullBuilder@physx@@QEBA_NXZ 0000000180049278     ConvexHullBuilder.obj
 0002:00005284       $chain$14$?checkHullPolygons@ConvexHullBuilder@physx@@QEBA_NXZ 0000000180049284     ConvexHullBuilder.obj
 0002:000052d0       $chain$16$?checkHullPolygons@ConvexHullBuilder@physx@@QEBA_NXZ 00000001800492d0     ConvexHullBuilder.obj
 0002:0000531c       $chain$17$?checkHullPolygons@ConvexHullBuilder@physx@@QEBA_NXZ 000000018004931c     ConvexHullBuilder.obj
 0002:0000532c       $unwind$?calculateVertexMapTable@ConvexHullBuilder@physx@@QEAA_NI_N@Z 000000018004932c     ConvexHullBuilder.obj
 0002:00005344       $unwind$?computeGeomCenter@ConvexHullBuilder@physx@@IEBA_NAEAVPxVec3@2@IPEAUHullTriangleData@2@@Z 0000000180049344     ConvexHullBuilder.obj
 0002:0000534c       $chain$1$?computeGeomCenter@ConvexHullBuilder@physx@@IEBA_NAEAVPxVec3@2@IPEAUHullTriangleData@2@@Z 000000018004934c     ConvexHullBuilder.obj
 0002:00005364       $chain$10$?computeGeomCenter@ConvexHullBuilder@physx@@IEBA_NAEAVPxVec3@2@IPEAUHullTriangleData@2@@Z 0000000180049364     ConvexHullBuilder.obj
 0002:00005398       $chain$11$?computeGeomCenter@ConvexHullBuilder@physx@@IEBA_NAEAVPxVec3@2@IPEAUHullTriangleData@2@@Z 0000000180049398     ConvexHullBuilder.obj
 0002:000053a8       $chain$12$?computeGeomCenter@ConvexHullBuilder@physx@@IEBA_NAEAVPxVec3@2@IPEAUHullTriangleData@2@@Z 00000001800493a8     ConvexHullBuilder.obj
 0002:000053fc       $unwind$??$?_UE@@YAPEAX_KV?$ReflectionAllocator@E@shdfnd@physx@@PEBDH@Z 00000001800493fc     ConvexHullBuilder.obj
 0002:00005410       $chain$0$??$?_UE@@YAPEAX_KV?$ReflectionAllocator@E@shdfnd@physx@@PEBDH@Z 0000000180049410     ConvexHullBuilder.obj
 0002:00005428       $chain$1$??$?_UE@@YAPEAX_KV?$ReflectionAllocator@E@shdfnd@physx@@PEBDH@Z 0000000180049428     ConvexHullBuilder.obj
 0002:0000543c       $unwind$??1ConvexHullLib@physx@@UEAA@XZ 000000018004943c     ConvexHullLib.obj
 0002:00005448       $unwind$?cleanupVertices@ConvexHullLib@physx@@IEAA_NIPEBVPxVec3@2@IAEAIPEAV32@AEAV32@3@Z 0000000180049448     ConvexHullLib.obj
 0002:00005470       $chain$6$?cleanupVertices@ConvexHullLib@physx@@IEAA_NIPEBVPxVec3@2@IAEAIPEAV32@AEAV32@3@Z 0000000180049470     ConvexHullLib.obj
 0002:00005488       $chain$12$?cleanupVertices@ConvexHullLib@physx@@IEAA_NIPEBVPxVec3@2@IAEAIPEAV32@AEAV32@3@Z 0000000180049488     ConvexHullLib.obj
 0002:000054b0       $chain$13$?cleanupVertices@ConvexHullLib@physx@@IEAA_NIPEBVPxVec3@2@IAEAIPEAV32@AEAV32@3@Z 00000001800494b0     ConvexHullLib.obj
 0002:000054c0       $chain$14$?cleanupVertices@ConvexHullLib@physx@@IEAA_NIPEBVPxVec3@2@IAEAIPEAV32@AEAV32@3@Z 00000001800494c0     ConvexHullLib.obj
 0002:000054d0       $unwind$?shiftAndcleanupVertices@ConvexHullLib@physx@@IEAA_NIPEBVPxVec3@2@IAEAIPEAV32@AEAV32@3@Z 00000001800494d0     ConvexHullLib.obj
 0002:000054e0       $chain$7$?shiftAndcleanupVertices@ConvexHullLib@physx@@IEAA_NIPEBVPxVec3@2@IAEAIPEAV32@AEAV32@3@Z 00000001800494e0     ConvexHullLib.obj
 0002:00005510       $chain$8$?shiftAndcleanupVertices@ConvexHullLib@physx@@IEAA_NIPEBVPxVec3@2@IAEAIPEAV32@AEAV32@3@Z 0000000180049510     ConvexHullLib.obj
 0002:00005538       $chain$12$?shiftAndcleanupVertices@ConvexHullLib@physx@@IEAA_NIPEBVPxVec3@2@IAEAIPEAV32@AEAV32@3@Z 0000000180049538     ConvexHullLib.obj
 0002:00005558       $chain$13$?shiftAndcleanupVertices@ConvexHullLib@physx@@IEAA_NIPEBVPxVec3@2@IAEAIPEAV32@AEAV32@3@Z 0000000180049558     ConvexHullLib.obj
 0002:00005568       $chain$14$?shiftAndcleanupVertices@ConvexHullLib@physx@@IEAA_NIPEBVPxVec3@2@IAEAIPEAV32@AEAV32@3@Z 0000000180049568     ConvexHullLib.obj
 0002:00005578       $unwind$?swapLargestFace@ConvexHullLib@physx@@IEAAXAEAVPxConvexMeshDesc@2@@Z 0000000180049578     ConvexHullLib.obj
 0002:00005588       $chain$1$?swapLargestFace@ConvexHullLib@physx@@IEAAXAEAVPxConvexMeshDesc@2@@Z 0000000180049588     ConvexHullLib.obj
 0002:000055a0       $chain$2$?swapLargestFace@ConvexHullLib@physx@@IEAAXAEAVPxConvexMeshDesc@2@@Z 00000001800495a0     ConvexHullLib.obj
 0002:000055b4       $chain$3$?swapLargestFace@ConvexHullLib@physx@@IEAAXAEAVPxConvexMeshDesc@2@@Z 00000001800495b4     ConvexHullLib.obj
 0002:000055c4       $chain$4$?swapLargestFace@ConvexHullLib@physx@@IEAAXAEAVPxConvexMeshDesc@2@@Z 00000001800495c4     ConvexHullLib.obj
 0002:000055fc       $unwind$??_GConvexHullLib@physx@@UEAAPEAXI@Z 00000001800495fc     ConvexHullLib.obj
 0002:00005610       $unwind$?checkPointsAABBValidity@local@@YA_NIPEBVPxVec3@physx@@IMMAEAV23@1AEAIPEAV23@_N@Z 0000000180049610     ConvexHullLib.obj
 0002:00005634       $chain$3$?checkPointsAABBValidity@local@@YA_NIPEBVPxVec3@physx@@IMMAEAV23@1AEAIPEAV23@_N@Z 0000000180049634     ConvexHullLib.obj
 0002:00005658       $chain$4$?checkPointsAABBValidity@local@@YA_NIPEBVPxVec3@physx@@IMMAEAV23@1AEAIPEAV23@_N@Z 0000000180049658     ConvexHullLib.obj
 0002:00005670       $chain$5$?checkPointsAABBValidity@local@@YA_NIPEBVPxVec3@physx@@IMMAEAV23@1AEAIPEAV23@_N@Z 0000000180049670     ConvexHullLib.obj
 0002:00005684       $chain$6$?checkPointsAABBValidity@local@@YA_NIPEBVPxVec3@physx@@IMMAEAV23@1AEAIPEAV23@_N@Z 0000000180049684     ConvexHullLib.obj
 0002:00005698       $unwind$?getInverse@PxMat33@physx@@QEBA?BV12@XZ 0000000180049698     ConvexHullUtils.obj
 0002:000056bc       $chain$1$?getInverse@PxMat33@physx@@QEBA?BV12@XZ 00000001800496bc     ConvexHullUtils.obj
 0002:000056d8       $chain$2$?getInverse@PxMat33@physx@@QEBA?BV12@XZ 00000001800496d8     ConvexHullUtils.obj
 0002:000056ec       $unwind$??0ConvexHull@physx@@QEAA@AEBVPxVec3@1@0AEBV?$Array@VPxPlane@physx@@VNamedAllocator@shdfnd@2@@shdfnd@1@@Z 00000001800496ec     ConvexHullUtils.obj
 0002:00005708       $unwind$??0ConvexHull@physx@@QEAA@AEBVPxVec3@1@AEBVPxTransform@1@AEBV?$Array@VPxPlane@physx@@VNamedAllocator@shdfnd@2@@shdfnd@1@@Z 0000000180049708     ConvexHullUtils.obj
 0002:00005748       $unwind$?findCandidatePlane@ConvexHull@physx@@QEBAHMM@Z 0000000180049748     ConvexHullUtils.obj
 0002:00005764       $chain$10$?findCandidatePlane@ConvexHull@physx@@QEBAHMM@Z 0000000180049764     ConvexHullUtils.obj
 0002:000057a0       $chain$11$?findCandidatePlane@ConvexHull@physx@@QEBAHMM@Z 00000001800497a0     ConvexHullUtils.obj
 0002:000057b0       $chain$12$?findCandidatePlane@ConvexHull@physx@@QEBAHMM@Z 00000001800497b0     ConvexHullUtils.obj
 0002:000057ec       $unwind$?assertIntact@ConvexHull@physx@@QEBA_NM@Z 00000001800497ec     ConvexHullUtils.obj
 0002:00005830       $unwind$?maxNumVertsPerFace@ConvexHull@physx@@QEBAIXZ 0000000180049830     ConvexHullUtils.obj
 0002:0000583c       $chain$0$?maxNumVertsPerFace@ConvexHull@physx@@QEBAIXZ 000000018004983c     ConvexHullUtils.obj
 0002:00005850       $chain$1$?maxNumVertsPerFace@ConvexHull@physx@@QEBAIXZ 0000000180049850     ConvexHullUtils.obj
 0002:00005860       $unwind$?convexHullCrop@physx@@YAPEAVConvexHull@1@AEBV21@AEBVPxPlane@1@M@Z 0000000180049860     ConvexHullUtils.obj
 0002:0000586c       $chain$6$?convexHullCrop@physx@@YAPEAVConvexHull@1@AEBV21@AEBVPxPlane@1@M@Z 000000018004986c     ConvexHullUtils.obj
 0002:00005898       $chain$7$?convexHullCrop@physx@@YAPEAVConvexHull@1@AEBV21@AEBVPxPlane@1@M@Z 0000000180049898     ConvexHullUtils.obj
 0002:000058ac       $chain$9$?convexHullCrop@physx@@YAPEAVConvexHull@1@AEBV21@AEBVPxPlane@1@M@Z 00000001800498ac     ConvexHullUtils.obj
 0002:000058c0       $chain$10$?convexHullCrop@physx@@YAPEAVConvexHull@1@AEBV21@AEBVPxPlane@1@M@Z 00000001800498c0     ConvexHullUtils.obj
 0002:000058d4       $chain$11$?convexHullCrop@physx@@YAPEAVConvexHull@1@AEBV21@AEBVPxPlane@1@M@Z 00000001800498d4     ConvexHullUtils.obj
 0002:000058e8       $chain$12$?convexHullCrop@physx@@YAPEAVConvexHull@1@AEBV21@AEBVPxPlane@1@M@Z 00000001800498e8     ConvexHullUtils.obj
 0002:000058f8       $unwind$?computeOBBFromConvex@physx@@YA_NAEBVPxConvexMeshDesc@1@AEAVPxVec3@1@AEAVPxTransform@1@@Z 00000001800498f8     ConvexHullUtils.obj
 0002:0000591c       $chain$4$?computeOBBFromConvex@physx@@YA_NAEBVPxConvexMeshDesc@1@AEAVPxVec3@1@AEAVPxTransform@1@@Z 000000018004991c     ConvexHullUtils.obj
 0002:00005940       $chain$5$?computeOBBFromConvex@physx@@YA_NAEBVPxConvexMeshDesc@1@AEAVPxVec3@1@AEAVPxTransform@1@@Z 0000000180049940     ConvexHullUtils.obj
 0002:00005950       $unwind$?computeOBBSIMD@local@@YAXIPEBT__m128@@AEAT2@AEBT2@1@Z 0000000180049950     ConvexHullUtils.obj
 0002:00005964       $chain$5$?computeOBBSIMD@local@@YAXIPEBT__m128@@AEAT2@AEBT2@1@Z 0000000180049964     ConvexHullUtils.obj
 0002:0000598c       $chain$6$?computeOBBSIMD@local@@YAXIPEBT__m128@@AEAT2@AEBT2@1@Z 000000018004998c     ConvexHullUtils.obj
 0002:000059e0       $unwind$?resize@?$Array@VPxVec3@physx@@VNamedAllocator@shdfnd@2@@shdfnd@physx@@QEAAXIAEBVPxVec3@3@@Z 00000001800499e0     ConvexHullUtils.obj
 0002:000059f4       $unwind$?resize@?$Array@VHalfEdge@ConvexHull@physx@@VNamedAllocator@shdfnd@3@@shdfnd@physx@@QEAAXIAEBVHalfEdge@ConvexHull@3@@Z 00000001800499f4     ConvexHullUtils.obj
 0002:00005a0c       $unwind$?growAndPushBack@?$Array@VHalfEdge@ConvexHull@physx@@VNamedAllocator@shdfnd@3@@shdfnd@physx@@IEAAAEAVHalfEdge@ConvexHull@3@AEBV453@@Z 0000000180049a0c     ConvexHullUtils.obj
 0002:00005a24       $unwind$?recreate@?$Array@VHalfEdge@ConvexHull@physx@@VNamedAllocator@shdfnd@3@@shdfnd@physx@@IEAAXI@Z 0000000180049a24     ConvexHullUtils.obj
 0002:00005a38       $chain$0$?recreate@?$Array@VHalfEdge@ConvexHull@physx@@VNamedAllocator@shdfnd@3@@shdfnd@physx@@IEAAXI@Z 0000000180049a38     ConvexHullUtils.obj
 0002:00005a50       $chain$1$?recreate@?$Array@VHalfEdge@ConvexHull@physx@@VNamedAllocator@shdfnd@3@@shdfnd@physx@@IEAAXI@Z 0000000180049a50     ConvexHullUtils.obj
 0002:00005a64       $unwind$?resize@?$Array@VPxPlane@physx@@VNamedAllocator@shdfnd@2@@shdfnd@physx@@QEAAXIAEBVPxPlane@3@@Z 0000000180049a64     ConvexHullUtils.obj
 0002:00005a78       $unwind$?growAndPushBack@?$Array@VPxPlane@physx@@VNamedAllocator@shdfnd@2@@shdfnd@physx@@IEAAAEAVPxPlane@3@AEBV43@@Z 0000000180049a78     ConvexHullUtils.obj
 0002:00005a88       $chain$0$?growAndPushBack@?$Array@VPxPlane@physx@@VNamedAllocator@shdfnd@2@@shdfnd@physx@@IEAAAEAVPxPlane@3@AEBV43@@Z 0000000180049a88     ConvexHullUtils.obj
 0002:00005aa0       $chain$1$?growAndPushBack@?$Array@VPxPlane@physx@@VNamedAllocator@shdfnd@2@@shdfnd@physx@@IEAAAEAVPxPlane@3@AEBV43@@Z 0000000180049aa0     ConvexHullUtils.obj
 0002:00005ab8       $chain$2$?growAndPushBack@?$Array@VPxPlane@physx@@VNamedAllocator@shdfnd@2@@shdfnd@physx@@IEAAAEAVPxPlane@3@AEBV43@@Z 0000000180049ab8     ConvexHullUtils.obj
 0002:00005acc       $chain$3$?growAndPushBack@?$Array@VPxPlane@physx@@VNamedAllocator@shdfnd@2@@shdfnd@physx@@IEAAAEAVPxPlane@3@AEBV43@@Z 0000000180049acc     ConvexHullUtils.obj
 0002:00005ae0       $unwind$?recreate@?$Array@VPxPlane@physx@@VNamedAllocator@shdfnd@2@@shdfnd@physx@@IEAAXI@Z 0000000180049ae0     ConvexHullUtils.obj
 0002:00005af4       $chain$0$?recreate@?$Array@VPxPlane@physx@@VNamedAllocator@shdfnd@2@@shdfnd@physx@@IEAAXI@Z 0000000180049af4     ConvexHullUtils.obj
 0002:00005b0c       $chain$1$?recreate@?$Array@VPxPlane@physx@@VNamedAllocator@shdfnd@2@@shdfnd@physx@@IEAAXI@Z 0000000180049b0c     ConvexHullUtils.obj
 0002:00005b20       $unwind$?isFinite@PxVec3@physx@@QEBA_NXZ 0000000180049b20     ConvexMeshBuilder.obj
 0002:00005b28       $unwind$??0ConvexMeshBuilder@physx@@QEAA@_N@Z 0000000180049b28     ConvexMeshBuilder.obj
 0002:00005b30       $unwind$??1ConvexMeshBuilder@physx@@QEAA@XZ 0000000180049b30     ConvexMeshBuilder.obj
 0002:00005b3c       $unwind$?build@ConvexMeshBuilder@physx@@QEAA_NAEBVPxConvexMeshDesc@2@I_NPEAVConvexHullLib@2@@Z 0000000180049b3c     ConvexMeshBuilder.obj
 0002:00005b4c       $chain$0$?build@ConvexMeshBuilder@physx@@QEAA_NAEBVPxConvexMeshDesc@2@I_NPEAVConvexHullLib@2@@Z 0000000180049b4c     ConvexMeshBuilder.obj
 0002:00005b60       $chain$2$?build@ConvexMeshBuilder@physx@@QEAA_NAEBVPxConvexMeshDesc@2@I_NPEAVConvexHullLib@2@@Z 0000000180049b60     ConvexMeshBuilder.obj
 0002:00005b78       $chain$3$?build@ConvexMeshBuilder@physx@@QEAA_NAEBVPxConvexMeshDesc@2@I_NPEAVConvexHullLib@2@@Z 0000000180049b78     ConvexMeshBuilder.obj
 0002:00005b88       $chain$4$?build@ConvexMeshBuilder@physx@@QEAA_NAEBVPxConvexMeshDesc@2@I_NPEAVConvexHullLib@2@@Z 0000000180049b88     ConvexMeshBuilder.obj
 0002:00005b98       $unwind$?save@ConvexMeshBuilder@physx@@QEBA_NAEAVPxOutputStream@2@_N@Z 0000000180049b98     ConvexMeshBuilder.obj
 0002:00005ba8       $chain$0$?save@ConvexMeshBuilder@physx@@QEBA_NAEAVPxOutputStream@2@_N@Z 0000000180049ba8     ConvexMeshBuilder.obj
 0002:00005bbc       $chain$1$?save@ConvexMeshBuilder@physx@@QEBA_NAEAVPxOutputStream@2@_N@Z 0000000180049bbc     ConvexMeshBuilder.obj
 0002:00005bcc       $unwind$?copy@ConvexMeshBuilder@physx@@QEAA_NAEAUConvexHullData@Gu@2@AEAI@Z 0000000180049bcc     ConvexMeshBuilder.obj
 0002:00005bd8       $unwind$?loadConvexHull@ConvexMeshBuilder@physx@@QEAA_NAEBVPxConvexMeshDesc@2@PEAVConvexHullLib@2@@Z 0000000180049bd8     ConvexMeshBuilder.obj
 0002:00005bf8       $unwind$?computeHullPolygons@ConvexMeshBuilder@physx@@QEAA_NAEBIPEBVPxVec3@2@0PEBIAEAVPxAllocatorCallback@2@AEAIAEAPEAV32@4AEAPEAI4AEAPEAUPxHullPolygon@2@@Z 0000000180049bf8     ConvexMeshBuilder.obj
 0002:00005c04       $chain$3$?computeHullPolygons@ConvexMeshBuilder@physx@@QEAA_NAEBIPEBVPxVec3@2@0PEBIAEAVPxAllocatorCallback@2@AEAIAEAPEAV32@4AEAPEAI4AEAPEAUPxHullPolygon@2@@Z 0000000180049c04     ConvexMeshBuilder.obj
 0002:00005c20       $chain$4$?computeHullPolygons@ConvexMeshBuilder@physx@@QEAA_NAEBIPEBVPxVec3@2@0PEBIAEAVPxAllocatorCallback@2@AEAIAEAPEAV32@4AEAPEAI4AEAPEAUPxHullPolygon@2@@Z 0000000180049c20     ConvexMeshBuilder.obj
 0002:00005c34       $unwind$?computeGaussMaps@ConvexMeshBuilder@physx@@QEAA_NXZ 0000000180049c34     ConvexMeshBuilder.obj
 0002:00005c40       $unwind$?computeMassInfo@ConvexMeshBuilder@physx@@QEAAX_N@Z 0000000180049c40     ConvexMeshBuilder.obj
 0002:00005c50       $chain$0$?computeMassInfo@ConvexMeshBuilder@physx@@QEAAX_N@Z 0000000180049c50     ConvexMeshBuilder.obj
 0002:00005c64       $chain$1$?computeMassInfo@ConvexMeshBuilder@physx@@QEAAX_N@Z 0000000180049c64     ConvexMeshBuilder.obj
 0002:00005c78       $chain$5$?computeMassInfo@ConvexMeshBuilder@physx@@QEAAX_N@Z 0000000180049c78     ConvexMeshBuilder.obj
 0002:00005c98       $chain$6$?computeMassInfo@ConvexMeshBuilder@physx@@QEAAX_N@Z 0000000180049c98     ConvexMeshBuilder.obj
 0002:00005ca8       $chain$7$?computeMassInfo@ConvexMeshBuilder@physx@@QEAAX_N@Z 0000000180049ca8     ConvexMeshBuilder.obj
 0002:00005cb8       $chain$8$?computeMassInfo@ConvexMeshBuilder@physx@@QEAAX_N@Z 0000000180049cb8     ConvexMeshBuilder.obj
 0002:00005cf4       $unwind$?ComputeInternalExtent@@YAXAEAUConvexHullData@Gu@physx@@PEBUHullPolygonData@23@@Z 0000000180049cf4     ConvexMeshBuilder.obj
 0002:00005d24       $chain$0$?ComputeInternalExtent@@YAXAEAUConvexHullData@Gu@physx@@PEBUHullPolygonData@23@@Z 0000000180049d24     ConvexMeshBuilder.obj
 0002:00005d3c       $chain$1$?ComputeInternalExtent@@YAXAEAUConvexHullData@Gu@physx@@PEBUHullPolygonData@23@@Z 0000000180049d3c     ConvexMeshBuilder.obj
 0002:00005d50       $unwind$??0ConvexPolygonsBuilder@physx@@QEAA@PEAUConvexHullData@Gu@1@_N@Z 0000000180049d50     ConvexPolygonsBuilder.obj
 0002:00005d58       $unwind$??1ConvexPolygonsBuilder@physx@@QEAA@XZ 0000000180049d58     ConvexPolygonsBuilder.obj
 0002:00005d64       $unwind$?computeHullPolygons@ConvexPolygonsBuilder@physx@@QEAA_NAEBIPEBVPxVec3@2@0PEBI@Z 0000000180049d64     ConvexPolygonsBuilder.obj
 0002:00005d7c       $unwind$?createPolygonData@ConvexPolygonsBuilder@physx@@AEAA_NXZ 0000000180049d7c     ConvexPolygonsBuilder.obj
 0002:00005d88       $chain$7$?createPolygonData@ConvexPolygonsBuilder@physx@@AEAA_NXZ 0000000180049d88     ConvexPolygonsBuilder.obj
 0002:00005db8       $chain$8$?createPolygonData@ConvexPolygonsBuilder@physx@@AEAA_NXZ 0000000180049db8     ConvexPolygonsBuilder.obj
 0002:00005dc8       $chain$9$?createPolygonData@ConvexPolygonsBuilder@physx@@AEAA_NXZ 0000000180049dc8     ConvexPolygonsBuilder.obj
 0002:00005df8       $chain$17$?createPolygonData@ConvexPolygonsBuilder@physx@@AEAA_NXZ 0000000180049df8     ConvexPolygonsBuilder.obj
 0002:00005e28       $chain$18$?createPolygonData@ConvexPolygonsBuilder@physx@@AEAA_NXZ 0000000180049e28     ConvexPolygonsBuilder.obj
 0002:00005e38       $unwind$?createTrianglesFromPolygons@ConvexPolygonsBuilder@physx@@AEAA_NXZ 0000000180049e38     ConvexPolygonsBuilder.obj
 0002:00005e5c       $chain$3$?createTrianglesFromPolygons@ConvexPolygonsBuilder@physx@@AEAA_NXZ 0000000180049e5c     ConvexPolygonsBuilder.obj
 0002:00005e7c       $chain$4$?createTrianglesFromPolygons@ConvexPolygonsBuilder@physx@@AEAA_NXZ 0000000180049e7c     ConvexPolygonsBuilder.obj
 0002:00005eac       $unwind$?findLineStrip@@YA_NAEAV?$Array@IVNamedAllocator@shdfnd@physx@@@shdfnd@physx@@AEBV?$Array@VPair@@VNamedAllocator@shdfnd@physx@@@23@@Z 0000000180049eac     ConvexPolygonsBuilder.obj
 0002:00005ec8       $unwind$?growAndPushBack@?$Array@VPair@@VNamedAllocator@shdfnd@physx@@@shdfnd@physx@@IEAAAEAVPair@@AEBV4@@Z 0000000180049ec8     ConvexPolygonsBuilder.obj
 0002:00005ee0       $unwind$?TestDuplicateTriangles@@YA_NAEAIPEAU?$TriangleT@I@Gu@physx@@_N@Z 0000000180049ee0     ConvexPolygonsBuilder.obj
 0002:00005f00       $unwind$?TestUnifiedNormals@@YA_NIPEBVPxVec3@physx@@IPEAU?$TriangleT@I@Gu@2@_N@Z 0000000180049f00     ConvexPolygonsBuilder.obj
 0002:00005f14       $chain$10$?TestUnifiedNormals@@YA_NIPEBVPxVec3@physx@@IPEAU?$TriangleT@I@Gu@2@_N@Z 0000000180049f14     ConvexPolygonsBuilder.obj
 0002:00005f58       $chain$12$?TestUnifiedNormals@@YA_NIPEBVPxVec3@physx@@IPEAU?$TriangleT@I@Gu@2@_N@Z 0000000180049f58     ConvexPolygonsBuilder.obj
 0002:00005f74       $chain$13$?TestUnifiedNormals@@YA_NIPEBVPxVec3@physx@@IPEAU?$TriangleT@I@Gu@2@_N@Z 0000000180049f74     ConvexPolygonsBuilder.obj
 0002:00005f88       $chain$14$?TestUnifiedNormals@@YA_NIPEBVPxVec3@physx@@IPEAU?$TriangleT@I@Gu@2@_N@Z 0000000180049f88     ConvexPolygonsBuilder.obj
 0002:00005f9c       $unwind$?checkRedundantVertices@@YAXAEAIAEAV?$Array@IVNamedAllocator@shdfnd@physx@@@shdfnd@physx@@AEBVConvexPolygonsBuilder@3@11@Z 0000000180049f9c     ConvexPolygonsBuilder.obj
 0002:00005fbc       $unwind$?extractHullPolygons@@YA_NAEAIAEAV?$Array@IVNamedAllocator@shdfnd@physx@@@shdfnd@physx@@AEBVConvexPolygonsBuilder@3@PEAV123@1@Z 0000000180049fbc     ConvexPolygonsBuilder.obj
 0002:00005fdc       $unwind$?FloodFill@Local@?7??extractHullPolygons@@YA_NAEAIAEAV?$Array@IVNamedAllocator@shdfnd@physx@@@shdfnd@physx@@AEBVConvexPolygonsBuilder@5@PEAV345@1@Z@SAX1PEBVAdjTriangle@5@IPEA_N@Z 0000000180049fdc     ConvexPolygonsBuilder.obj
 0002:00005ff0       $chain$0$?FloodFill@Local@?7??extractHullPolygons@@YA_NAEAIAEAV?$Array@IVNamedAllocator@shdfnd@physx@@@shdfnd@physx@@AEBVConvexPolygonsBuilder@5@PEAV345@1@Z@SAX1PEBVAdjTriangle@5@IPEA_N@Z 0000000180049ff0     ConvexPolygonsBuilder.obj
 0002:00006008       $chain$1$?FloodFill@Local@?7??extractHullPolygons@@YA_NAEAIAEAV?$Array@IVNamedAllocator@shdfnd@physx@@@shdfnd@physx@@AEBVConvexPolygonsBuilder@5@PEAV345@1@Z@SAX1PEBVAdjTriangle@5@IPEA_N@Z 000000018004a008     ConvexPolygonsBuilder.obj
 0002:0000601c       $unwind$?CheckFloodFillFace@Local@?7??extractHullPolygons@@YA_NAEAIAEAV?$Array@IVNamedAllocator@shdfnd@physx@@@shdfnd@physx@@AEBVConvexPolygonsBuilder@5@PEAV345@1@Z@SA_NIPEBVAdjTriangle@5@PEBI@Z 000000018004a01c     ConvexPolygonsBuilder.obj
 0002:00006038       $unwind$??$?_UUHullTriangleData@physx@@@@YAPEAX_KV?$ReflectionAllocator@UHullTriangleData@physx@@@shdfnd@physx@@PEBDH@Z 000000018004a038     ConvexPolygonsBuilder.obj
 0002:0000604c       $chain$0$??$?_UUHullTriangleData@physx@@@@YAPEAX_KV?$ReflectionAllocator@UHullTriangleData@physx@@@shdfnd@physx@@PEBDH@Z 000000018004a04c     ConvexPolygonsBuilder.obj
 0002:00006064       $chain$1$??$?_UUHullTriangleData@physx@@@@YAPEAX_KV?$ReflectionAllocator@UHullTriangleData@physx@@@shdfnd@physx@@PEBDH@Z 000000018004a064     ConvexPolygonsBuilder.obj
 0002:00006078       $unwind$??$copy@VNamedAllocator@shdfnd@physx@@@?$Array@VPair@@VNamedAllocator@shdfnd@physx@@@shdfnd@physx@@IEAAXAEBV012@@Z 000000018004a078     ConvexPolygonsBuilder.obj
 0002:00006088       $chain$0$??$copy@VNamedAllocator@shdfnd@physx@@@?$Array@VPair@@VNamedAllocator@shdfnd@physx@@@shdfnd@physx@@IEAAXAEBV012@@Z 000000018004a088     ConvexPolygonsBuilder.obj
 0002:000060a0       $chain$1$??$copy@VNamedAllocator@shdfnd@physx@@@?$Array@VPair@@VNamedAllocator@shdfnd@physx@@@shdfnd@physx@@IEAAXAEBV012@@Z 000000018004a0a0     ConvexPolygonsBuilder.obj
 0002:000060b4       $unwind$??1InflationConvexHullLib@physx@@UEAA@XZ 000000018004a0b4     InflationConvexHullLib.obj
 0002:000060c0       $unwind$?createConvexHull@InflationConvexHullLib@physx@@UEAA?AW4Enum@PxConvexMeshCookingResult@2@XZ 000000018004a0c0     InflationConvexHullLib.obj
 0002:000060d0       $unwind$?fillConvexMeshDesc@InflationConvexHullLib@physx@@UEAAXAEAVPxConvexMeshDesc@2@@Z 000000018004a0d0     InflationConvexHullLib.obj
 0002:000060dc       $unwind$?computeHull@InflationConvexHullLib@physx@@IEAA?AW4ErrorCode@ConvexHullLibResult@2@IPEBVPxVec3@2@@Z 000000018004a0dc     InflationConvexHullLib.obj
 0002:000060e8       $chain$2$?computeHull@InflationConvexHullLib@physx@@IEAA?AW4ErrorCode@ConvexHullLibResult@2@IPEBVPxVec3@2@@Z 000000018004a0e8     InflationConvexHullLib.obj
 0002:00006104       $chain$3$?computeHull@InflationConvexHullLib@physx@@IEAA?AW4ErrorCode@ConvexHullLibResult@2@IPEBVPxVec3@2@@Z 000000018004a104     InflationConvexHullLib.obj
 0002:00006118       $chain$4$?computeHull@InflationConvexHullLib@physx@@IEAA?AW4ErrorCode@ConvexHullLibResult@2@IPEBVPxVec3@2@@Z 000000018004a118     InflationConvexHullLib.obj
 0002:00006128       $chain$5$?computeHull@InflationConvexHullLib@physx@@IEAA?AW4ErrorCode@ConvexHullLibResult@2@IPEBVPxVec3@2@@Z 000000018004a128     InflationConvexHullLib.obj
 0002:00006138       $unwind$?calchull@InflationConvexHullLib@physx@@IEAA?AW4ErrorCode@ConvexHullLibResult@2@PEBVPxVec3@2@IAEAPEAVConvexHull@2@@Z 000000018004a138     InflationConvexHullLib.obj
 0002:00006154       $unwind$?calchullgen@InflationConvexHullLib@physx@@IEAA?AW4ErrorCode@ConvexHullLibResult@2@PEBVPxVec3@2@IAEAVHullTriangles@local@@@Z 000000018004a154     InflationConvexHullLib.obj
 0002:0000616c       $chain$8$?calchullgen@InflationConvexHullLib@physx@@IEAA?AW4ErrorCode@ConvexHullLibResult@2@PEBVPxVec3@2@IAEAVHullTriangles@local@@@Z 000000018004a16c     InflationConvexHullLib.obj
 0002:0000619c       $chain$9$?calchullgen@InflationConvexHullLib@physx@@IEAA?AW4ErrorCode@ConvexHullLibResult@2@PEBVPxVec3@2@IAEAVHullTriangles@local@@@Z 000000018004a19c     InflationConvexHullLib.obj
 0002:000061b0       $chain$12$?calchullgen@InflationConvexHullLib@physx@@IEAA?AW4ErrorCode@ConvexHullLibResult@2@PEBVPxVec3@2@IAEAVHullTriangles@local@@@Z 000000018004a1b0     InflationConvexHullLib.obj
 0002:000061cc       $chain$13$?calchullgen@InflationConvexHullLib@physx@@IEAA?AW4ErrorCode@ConvexHullLibResult@2@PEBVPxVec3@2@IAEAVHullTriangles@local@@@Z 000000018004a1cc     InflationConvexHullLib.obj
 0002:000061dc       $unwind$?calchullplanes@InflationConvexHullLib@physx@@IEAA_NPEBVPxVec3@2@AEAVHullTriangles@local@@AEAV?$Array@VPxPlane@physx@@VNamedAllocator@shdfnd@2@@shdfnd@2@@Z 000000018004a1dc     InflationConvexHullLib.obj
 0002:000061ec       $chain$9$?calchullplanes@InflationConvexHullLib@physx@@IEAA_NPEBVPxVec3@2@AEAVHullTriangles@local@@AEAV?$Array@VPxPlane@physx@@VNamedAllocator@shdfnd@2@@shdfnd@2@@Z 000000018004a1ec     InflationConvexHullLib.obj
 0002:00006224       $chain$14$?calchullplanes@InflationConvexHullLib@physx@@IEAA_NPEBVPxVec3@2@AEAVHullTriangles@local@@AEAV?$Array@VPxPlane@physx@@VNamedAllocator@shdfnd@2@@shdfnd@2@@Z 000000018004a224     InflationConvexHullLib.obj
 0002:00006248       $chain$15$?calchullplanes@InflationConvexHullLib@physx@@IEAA_NPEBVPxVec3@2@AEAVHullTriangles@local@@AEAV?$Array@VPxPlane@physx@@VNamedAllocator@shdfnd@2@@shdfnd@2@@Z 000000018004a248     InflationConvexHullLib.obj
 0002:00006258       $chain$16$?calchullplanes@InflationConvexHullLib@physx@@IEAA_NPEBVPxVec3@2@AEAVHullTriangles@local@@AEAV?$Array@VPxPlane@physx@@VNamedAllocator@shdfnd@2@@shdfnd@2@@Z 000000018004a258     InflationConvexHullLib.obj
 0002:0000628c       $chain$17$?calchullplanes@InflationConvexHullLib@physx@@IEAA_NPEBVPxVec3@2@AEAVHullTriangles@local@@AEAV?$Array@VPxPlane@physx@@VNamedAllocator@shdfnd@2@@shdfnd@2@@Z 000000018004a28c     InflationConvexHullLib.obj
 0002:0000629c       $unwind$?overhull@InflationConvexHullLib@physx@@IEAA_NPEBVPxVec3@2@IAEBV?$Array@VPxPlane@physx@@VNamedAllocator@shdfnd@2@@shdfnd@2@AEAPEAVConvexHull@2@@Z 000000018004a29c     InflationConvexHullLib.obj
 0002:000062c0       $chain$13$?overhull@InflationConvexHullLib@physx@@IEAA_NPEBVPxVec3@2@IAEBV?$Array@VPxPlane@physx@@VNamedAllocator@shdfnd@2@@shdfnd@2@AEAPEAVConvexHull@2@@Z 000000018004a2c0     InflationConvexHullLib.obj
 0002:000062f0       $chain$14$?overhull@InflationConvexHullLib@physx@@IEAA_NPEBVPxVec3@2@IAEBV?$Array@VPxPlane@physx@@VNamedAllocator@shdfnd@2@@shdfnd@2@AEAPEAVConvexHull@2@@Z 000000018004a2f0     InflationConvexHullLib.obj
 0002:00006310       $chain$15$?overhull@InflationConvexHullLib@physx@@IEAA_NPEBVPxVec3@2@IAEBV?$Array@VPxPlane@physx@@VNamedAllocator@shdfnd@2@@shdfnd@2@AEAPEAVConvexHull@2@@Z 000000018004a310     InflationConvexHullLib.obj
 0002:0000632c       $chain$16$?overhull@InflationConvexHullLib@physx@@IEAA_NPEBVPxVec3@2@IAEBV?$Array@VPxPlane@physx@@VNamedAllocator@shdfnd@2@@shdfnd@2@AEAPEAVConvexHull@2@@Z 000000018004a32c     InflationConvexHullLib.obj
 0002:00006344       $chain$17$?overhull@InflationConvexHullLib@physx@@IEAA_NPEBVPxVec3@2@IAEBV?$Array@VPxPlane@physx@@VNamedAllocator@shdfnd@2@@shdfnd@2@AEAPEAVConvexHull@2@@Z 000000018004a344     InflationConvexHullLib.obj
 0002:00006358       $chain$18$?overhull@InflationConvexHullLib@physx@@IEAA_NPEBVPxVec3@2@IAEBV?$Array@VPxPlane@physx@@VNamedAllocator@shdfnd@2@@shdfnd@2@AEAPEAVConvexHull@2@@Z 000000018004a358     InflationConvexHullLib.obj
 0002:00006368       $chain$19$?overhull@InflationConvexHullLib@physx@@IEAA_NPEBVPxVec3@2@IAEBV?$Array@VPxPlane@physx@@VNamedAllocator@shdfnd@2@@shdfnd@2@AEAPEAVConvexHull@2@@Z 000000018004a368     InflationConvexHullLib.obj
 0002:0000637c       $chain$20$?overhull@InflationConvexHullLib@physx@@IEAA_NPEBVPxVec3@2@IAEBV?$Array@VPxPlane@physx@@VNamedAllocator@shdfnd@2@@shdfnd@2@AEAPEAVConvexHull@2@@Z 000000018004a37c     InflationConvexHullLib.obj
 0002:0000638c       $unwind$?expandHull@InflationConvexHullLib@physx@@IEAA?AW4ErrorCode@ConvexHullLibResult@2@PEBVPxVec3@2@IAEBVHullTriangles@local@@AEAPEAVConvexHull@2@@Z 000000018004a38c     InflationConvexHullLib.obj
 0002:00006398       $chain$1$?expandHull@InflationConvexHullLib@physx@@IEAA?AW4ErrorCode@ConvexHullLibResult@2@PEBVPxVec3@2@IAEBVHullTriangles@local@@AEAPEAVConvexHull@2@@Z 000000018004a398     InflationConvexHullLib.obj
 0002:000063b0       $chain$2$?expandHull@InflationConvexHullLib@physx@@IEAA?AW4ErrorCode@ConvexHullLibResult@2@PEBVPxVec3@2@IAEBVHullTriangles@local@@AEAPEAVConvexHull@2@@Z 000000018004a3b0     InflationConvexHullLib.obj
 0002:000063c4       $chain$13$?expandHull@InflationConvexHullLib@physx@@IEAA?AW4ErrorCode@ConvexHullLibResult@2@PEBVPxVec3@2@IAEBVHullTriangles@local@@AEAPEAVConvexHull@2@@Z 000000018004a3c4     InflationConvexHullLib.obj
 0002:00006400       $chain$15$?expandHull@InflationConvexHullLib@physx@@IEAA?AW4ErrorCode@ConvexHullLibResult@2@PEBVPxVec3@2@IAEBVHullTriangles@local@@AEAPEAVConvexHull@2@@Z 000000018004a400     InflationConvexHullLib.obj
 0002:00006418       $chain$16$?expandHull@InflationConvexHullLib@physx@@IEAA?AW4ErrorCode@ConvexHullLibResult@2@PEBVPxVec3@2@IAEBVHullTriangles@local@@AEAPEAVConvexHull@2@@Z 000000018004a418     InflationConvexHullLib.obj
 0002:00006428       $chain$17$?expandHull@InflationConvexHullLib@physx@@IEAA?AW4ErrorCode@ConvexHullLibResult@2@PEBVPxVec3@2@IAEBVHullTriangles@local@@AEAPEAVConvexHull@2@@Z 000000018004a428     InflationConvexHullLib.obj
 0002:00006454       $chain$18$?expandHull@InflationConvexHullLib@physx@@IEAA?AW4ErrorCode@ConvexHullLibResult@2@PEBVPxVec3@2@IAEBVHullTriangles@local@@AEAPEAVConvexHull@2@@Z 000000018004a454     InflationConvexHullLib.obj
 0002:00006464       $chain$19$?expandHull@InflationConvexHullLib@physx@@IEAA?AW4ErrorCode@ConvexHullLibResult@2@PEBVPxVec3@2@IAEBVHullTriangles@local@@AEAPEAVConvexHull@2@@Z 000000018004a464     InflationConvexHullLib.obj
 0002:00006474       $unwind$?expandHullOBB@InflationConvexHullLib@physx@@IEAA?AW4ErrorCode@ConvexHullLibResult@2@PEBVPxVec3@2@IAEBVHullTriangles@local@@AEAPEAVConvexHull@2@@Z 000000018004a474     InflationConvexHullLib.obj
 0002:00006480       $chain$2$?expandHullOBB@InflationConvexHullLib@physx@@IEAA?AW4ErrorCode@ConvexHullLibResult@2@PEBVPxVec3@2@IAEBVHullTriangles@local@@AEAPEAVConvexHull@2@@Z 000000018004a480     InflationConvexHullLib.obj
 0002:0000649c       $chain$3$?expandHullOBB@InflationConvexHullLib@physx@@IEAA?AW4ErrorCode@ConvexHullLibResult@2@PEBVPxVec3@2@IAEBVHullTriangles@local@@AEAPEAVConvexHull@2@@Z 000000018004a49c     InflationConvexHullLib.obj
 0002:000064b0       $chain$8$?expandHullOBB@InflationConvexHullLib@physx@@IEAA?AW4ErrorCode@ConvexHullLibResult@2@PEBVPxVec3@2@IAEBVHullTriangles@local@@AEAPEAVConvexHull@2@@Z 000000018004a4b0     InflationConvexHullLib.obj
 0002:000064d4       $chain$14$?expandHullOBB@InflationConvexHullLib@physx@@IEAA?AW4ErrorCode@ConvexHullLibResult@2@PEBVPxVec3@2@IAEBVHullTriangles@local@@AEAPEAVConvexHull@2@@Z 000000018004a4d4     InflationConvexHullLib.obj
 0002:000064fc       $chain$15$?expandHullOBB@InflationConvexHullLib@physx@@IEAA?AW4ErrorCode@ConvexHullLibResult@2@PEBVPxVec3@2@IAEBVHullTriangles@local@@AEAPEAVConvexHull@2@@Z 000000018004a4fc     InflationConvexHullLib.obj
 0002:0000650c       $chain$16$?expandHullOBB@InflationConvexHullLib@physx@@IEAA?AW4ErrorCode@ConvexHullLibResult@2@PEBVPxVec3@2@IAEBVHullTriangles@local@@AEAPEAVConvexHull@2@@Z 000000018004a50c     InflationConvexHullLib.obj
 0002:0000652c       $chain$17$?expandHullOBB@InflationConvexHullLib@physx@@IEAA?AW4ErrorCode@ConvexHullLibResult@2@PEBVPxVec3@2@IAEBVHullTriangles@local@@AEAPEAVConvexHull@2@@Z 000000018004a52c     InflationConvexHullLib.obj
 0002:0000654c       $chain$18$?expandHullOBB@InflationConvexHullLib@physx@@IEAA?AW4ErrorCode@ConvexHullLibResult@2@PEBVPxVec3@2@IAEBVHullTriangles@local@@AEAPEAVConvexHull@2@@Z 000000018004a54c     InflationConvexHullLib.obj
 0002:0000655c       $unwind$?maxIndexInDirFiltered@local@@YAHPEBVPxVec3@physx@@IAEBV23@PEA_N@Z 000000018004a55c     InflationConvexHullLib.obj
 0002:0000656c       $chain$1$?maxIndexInDirFiltered@local@@YAHPEBVPxVec3@physx@@IAEBV23@PEA_N@Z 000000018004a56c     InflationConvexHullLib.obj
 0002:00006584       $chain$2$?maxIndexInDirFiltered@local@@YAHPEBVPxVec3@physx@@IAEBV23@PEA_N@Z 000000018004a584     InflationConvexHullLib.obj
 0002:00006594       $unwind$?maxIndexInDirSterid@local@@YAHPEBVPxVec3@physx@@IAEBV23@AEAV?$Array@EVNamedAllocator@shdfnd@physx@@@shdfnd@3@@Z 000000018004a594     InflationConvexHullLib.obj
 0002:0000665c       $unwind$??_GInflationConvexHullLib@physx@@UEAAPEAXI@Z 000000018004a65c     InflationConvexHullLib.obj
 0002:00006670       $unwind$??_GConvexHull@physx@@QEAAPEAXI@Z 000000018004a670     InflationConvexHullLib.obj
 0002:00006684       $unwind$?growAndPushBack@?$Array@EVNamedAllocator@shdfnd@physx@@@shdfnd@physx@@IEAAAEAEAEBE@Z 000000018004a684     InflationConvexHullLib.obj
 0002:00006694       $chain$2$?growAndPushBack@?$Array@EVNamedAllocator@shdfnd@physx@@@shdfnd@physx@@IEAAAEAEAEBE@Z 000000018004a694     InflationConvexHullLib.obj
 0002:000066b4       $chain$3$?growAndPushBack@?$Array@EVNamedAllocator@shdfnd@physx@@@shdfnd@physx@@IEAAAEAEAEBE@Z 000000018004a6b4     InflationConvexHullLib.obj
 0002:000066cc       $chain$4$?growAndPushBack@?$Array@EVNamedAllocator@shdfnd@physx@@@shdfnd@physx@@IEAAAEAEAEBE@Z 000000018004a6cc     InflationConvexHullLib.obj
 0002:000066e0       $chain$5$?growAndPushBack@?$Array@EVNamedAllocator@shdfnd@physx@@@shdfnd@physx@@IEAAAEAEAEBE@Z 000000018004a6e0     InflationConvexHullLib.obj
 0002:000066f4       $unwind$?recreate@?$Array@EVNamedAllocator@shdfnd@physx@@@shdfnd@physx@@IEAAXI@Z 000000018004a6f4     InflationConvexHullLib.obj
 0002:00006704       $chain$1$?recreate@?$Array@EVNamedAllocator@shdfnd@physx@@@shdfnd@physx@@IEAAXI@Z 000000018004a704     InflationConvexHullLib.obj
 0002:00006720       $chain$2$?recreate@?$Array@EVNamedAllocator@shdfnd@physx@@@shdfnd@physx@@IEAAXI@Z 000000018004a720     InflationConvexHullLib.obj
 0002:00006738       $chain$3$?recreate@?$Array@EVNamedAllocator@shdfnd@physx@@@shdfnd@physx@@IEAAXI@Z 000000018004a738     InflationConvexHullLib.obj
 0002:0000674c       $chain$4$?recreate@?$Array@EVNamedAllocator@shdfnd@physx@@@shdfnd@physx@@IEAAXI@Z 000000018004a74c     InflationConvexHullLib.obj
 0002:00006760       $unwind$?findSimplex@local@@YA?AVHullSimplex@1@PEBVPxVec3@physx@@IAEAV?$Array@EVNamedAllocator@shdfnd@physx@@@shdfnd@4@AEBV34@@Z 000000018004a760     InflationConvexHullLib.obj
 0002:000067a8       $unwind$?neib@Tri@local@@QEAAAEAHHH@Z 000000018004a7a8     InflationConvexHullLib.obj
 0002:000067bc       $unwind$?getNormal@Tri@local@@QEBA?AVPxVec3@physx@@PEBV34@@Z 000000018004a7bc     InflationConvexHullLib.obj
 0002:000067d0       $unwind$?createTri@HullTriangles@local@@QEAAPEAVTri@2@HHH@Z 000000018004a7d0     InflationConvexHullLib.obj
 0002:000067e8       $unwind$?findExtrudable@HullTriangles@local@@QEBAPEAVTri@2@M@Z 000000018004a7e8     InflationConvexHullLib.obj
 0002:000067f8       $unwind$?b2bfix@HullTriangles@local@@IEAAXPEAVTri@2@0@Z 000000018004a7f8     InflationConvexHullLib.obj
 0002:00006818       $unwind$?removeb2b@HullTriangles@local@@IEAAXPEAVTri@2@0@Z 000000018004a818     InflationConvexHullLib.obj
 0002:0000682c       $unwind$?growAndPushBack@?$Array@PEAVTri@local@@VNamedAllocator@shdfnd@physx@@@shdfnd@physx@@IEAAAEAPEAVTri@local@@AEBQEAV45@@Z 000000018004a82c     InflationConvexHullLib.obj
 0002:00006844       $unwind$?recreate@?$Array@PEAVTri@local@@VNamedAllocator@shdfnd@physx@@@shdfnd@physx@@IEAAXI@Z 000000018004a844     InflationConvexHullLib.obj
 0002:00006858       $chain$0$?recreate@?$Array@PEAVTri@local@@VNamedAllocator@shdfnd@physx@@@shdfnd@physx@@IEAAXI@Z 000000018004a858     InflationConvexHullLib.obj
 0002:00006870       $chain$1$?recreate@?$Array@PEAVTri@local@@VNamedAllocator@shdfnd@physx@@@shdfnd@physx@@IEAAXI@Z 000000018004a870     InflationConvexHullLib.obj
 0002:00006884       $unwind$?growAndPushBack@?$Array@UExpandPlane@local@@VNamedAllocator@shdfnd@physx@@@shdfnd@physx@@IEAAAEAUExpandPlane@local@@AEBU45@@Z 000000018004a884     InflationConvexHullLib.obj
 0002:0000689c       $unwind$?resize@?$Array@HVNamedAllocator@shdfnd@physx@@@shdfnd@physx@@QEAAXIAEBH@Z 000000018004a89c     InflationConvexHullLib.obj
 0002:000068b4       $unwind$?growAndPushBack@?$Array@HVNamedAllocator@shdfnd@physx@@@shdfnd@physx@@IEAAAEAHAEBH@Z 000000018004a8b4     InflationConvexHullLib.obj
 0002:000068cc       $unwind$?recreate@?$Array@HVNamedAllocator@shdfnd@physx@@@shdfnd@physx@@IEAAXI@Z 000000018004a8cc     InflationConvexHullLib.obj
 0002:000068e0       $chain$0$?recreate@?$Array@HVNamedAllocator@shdfnd@physx@@@shdfnd@physx@@IEAAXI@Z 000000018004a8e0     InflationConvexHullLib.obj
 0002:000068f8       $chain$1$?recreate@?$Array@HVNamedAllocator@shdfnd@physx@@@shdfnd@physx@@IEAAXI@Z 000000018004a8f8     InflationConvexHullLib.obj
 0002:0000690c       $unwind$??__G@YAXPEAX0_K1P6APEAX00@Z@Z 000000018004a90c     QuickHullConvexHullLib.obj
 0002:00006924       $chain$0$??__G@YAXPEAX0_K1P6APEAX00@Z@Z 000000018004a924     QuickHullConvexHullLib.obj
 0002:0000693c       $chain$1$??__G@YAXPEAX0_K1P6APEAX00@Z@Z 000000018004a93c     QuickHullConvexHullLib.obj
 0002:00006950       $unwind$??0QuickHullConvexHullLib@physx@@QEAA@AEBVPxConvexMeshDesc@1@AEBUPxCookingParams@1@@Z 000000018004a950     QuickHullConvexHullLib.obj
 0002:00006968       $unwind$??1QuickHullConvexHullLib@physx@@UEAA@XZ 000000018004a968     QuickHullConvexHullLib.obj
 0002:00006978       $unwind$?createConvexHull@QuickHullConvexHullLib@physx@@UEAA?AW4Enum@PxConvexMeshCookingResult@2@XZ 000000018004a978     QuickHullConvexHullLib.obj
 0002:0000698c       $chain$0$?createConvexHull@QuickHullConvexHullLib@physx@@UEAA?AW4Enum@PxConvexMeshCookingResult@2@XZ 000000018004a98c     QuickHullConvexHullLib.obj
 0002:000069a0       $chain$2$?createConvexHull@QuickHullConvexHullLib@physx@@UEAA?AW4Enum@PxConvexMeshCookingResult@2@XZ 000000018004a9a0     QuickHullConvexHullLib.obj
 0002:000069b8       $chain$3$?createConvexHull@QuickHullConvexHullLib@physx@@UEAA?AW4Enum@PxConvexMeshCookingResult@2@XZ 000000018004a9b8     QuickHullConvexHullLib.obj
 0002:000069cc       $chain$4$?createConvexHull@QuickHullConvexHullLib@physx@@UEAA?AW4Enum@PxConvexMeshCookingResult@2@XZ 000000018004a9cc     QuickHullConvexHullLib.obj
 0002:000069dc       $chain$5$?createConvexHull@QuickHullConvexHullLib@physx@@UEAA?AW4Enum@PxConvexMeshCookingResult@2@XZ 000000018004a9dc     QuickHullConvexHullLib.obj
 0002:000069ec       $chain$6$?createConvexHull@QuickHullConvexHullLib@physx@@UEAA?AW4Enum@PxConvexMeshCookingResult@2@XZ 000000018004a9ec     QuickHullConvexHullLib.obj
 0002:000069fc       $chain$7$?createConvexHull@QuickHullConvexHullLib@physx@@UEAA?AW4Enum@PxConvexMeshCookingResult@2@XZ 000000018004a9fc     QuickHullConvexHullLib.obj
 0002:00006a1c       $unwind$?fillConvexMeshDesc@QuickHullConvexHullLib@physx@@UEAAXAEAVPxConvexMeshDesc@2@@Z 000000018004aa1c     QuickHullConvexHullLib.obj
 0002:00006a28       $unwind$?createEdgeList@QuickHullConvexHullLib@physx@@UEAA_NIPEBEPEAPEAEPEAPEAG2@Z 000000018004aa28     QuickHullConvexHullLib.obj
 0002:00006a48       $unwind$?expandHullOBB@QuickHullConvexHullLib@physx@@IEAA?AW4Enum@PxConvexMeshCookingResult@2@XZ 000000018004aa48     QuickHullConvexHullLib.obj
 0002:00006a54       $chain$6$?expandHullOBB@QuickHullConvexHullLib@physx@@IEAA?AW4Enum@PxConvexMeshCookingResult@2@XZ 000000018004aa54     QuickHullConvexHullLib.obj
 0002:00006a80       $chain$7$?expandHullOBB@QuickHullConvexHullLib@physx@@IEAA?AW4Enum@PxConvexMeshCookingResult@2@XZ 000000018004aa80     QuickHullConvexHullLib.obj
 0002:00006a94       $chain$8$?expandHullOBB@QuickHullConvexHullLib@physx@@IEAA?AW4Enum@PxConvexMeshCookingResult@2@XZ 000000018004aa94     QuickHullConvexHullLib.obj
 0002:00006aa4       $chain$9$?expandHullOBB@QuickHullConvexHullLib@physx@@IEAA?AW4Enum@PxConvexMeshCookingResult@2@XZ 000000018004aaa4     QuickHullConvexHullLib.obj
 0002:00006ab4       $unwind$?expandHull@QuickHullConvexHullLib@physx@@IEAA?AW4Enum@PxConvexMeshCookingResult@2@XZ 000000018004aab4     QuickHullConvexHullLib.obj
 0002:00006adc       $unwind$?cleanupForSimplex@QuickHullConvexHullLib@physx@@IEAA_NPEAVPxVec3@2@IPEAUQuickHullVertex@local@@1AEAM2@Z 000000018004aadc     QuickHullConvexHullLib.obj
 0002:00006b00       $chain$0$?cleanupForSimplex@QuickHullConvexHullLib@physx@@IEAA_NPEAVPxVec3@2@IPEAUQuickHullVertex@local@@1AEAM2@Z 000000018004ab00     QuickHullConvexHullLib.obj
 0002:00006b14       $chain$3$?cleanupForSimplex@QuickHullConvexHullLib@physx@@IEAA_NPEAVPxVec3@2@IPEAUQuickHullVertex@local@@1AEAM2@Z 000000018004ab14     QuickHullConvexHullLib.obj
 0002:00006b30       $chain$5$?cleanupForSimplex@QuickHullConvexHullLib@physx@@IEAA_NPEAVPxVec3@2@IPEAUQuickHullVertex@local@@1AEAM2@Z 000000018004ab30     QuickHullConvexHullLib.obj
 0002:00006b48       $chain$6$?cleanupForSimplex@QuickHullConvexHullLib@physx@@IEAA_NPEAVPxVec3@2@IPEAUQuickHullVertex@local@@1AEAM2@Z 000000018004ab48     QuickHullConvexHullLib.obj
 0002:00006b5c       $chain$7$?cleanupForSimplex@QuickHullConvexHullLib@physx@@IEAA_NPEAVPxVec3@2@IPEAUQuickHullVertex@local@@1AEAM2@Z 000000018004ab5c     QuickHullConvexHullLib.obj
 0002:00006b70       $chain$8$?cleanupForSimplex@QuickHullConvexHullLib@physx@@IEAA_NPEAVPxVec3@2@IPEAUQuickHullVertex@local@@1AEAM2@Z 000000018004ab70     QuickHullConvexHullLib.obj
 0002:00006b80       $chain$9$?cleanupForSimplex@QuickHullConvexHullLib@physx@@IEAA_NPEAVPxVec3@2@IPEAUQuickHullVertex@local@@1AEAM2@Z 000000018004ab80     QuickHullConvexHullLib.obj
 0002:00006b90       $chain$10$?cleanupForSimplex@QuickHullConvexHullLib@physx@@IEAA_NPEAVPxVec3@2@IPEAUQuickHullVertex@local@@1AEAM2@Z 000000018004ab90     QuickHullConvexHullLib.obj
 0002:00006ba0       $chain$11$?cleanupForSimplex@QuickHullConvexHullLib@physx@@IEAA_NPEAVPxVec3@2@IPEAUQuickHullVertex@local@@1AEAM2@Z 000000018004aba0     QuickHullConvexHullLib.obj
 0002:00006bb4       $chain$12$?cleanupForSimplex@QuickHullConvexHullLib@physx@@IEAA_NPEAVPxVec3@2@IPEAUQuickHullVertex@local@@1AEAM2@Z 000000018004abb4     QuickHullConvexHullLib.obj
 0002:00006bc4       $unwind$?fillConvexMeshDescFromQuickHull@QuickHullConvexHullLib@physx@@IEAAXAEAVPxConvexMeshDesc@2@@Z 000000018004abc4     QuickHullConvexHullLib.obj
 0002:00006bdc       $unwind$?fillConvexMeshDescFromCroppedHull@QuickHullConvexHullLib@physx@@IEAAXAEAVPxConvexMeshDesc@2@@Z 000000018004abdc     QuickHullConvexHullLib.obj
 0002:00006bf4       $unwind$?mergeAdjacentFace@QuickHullFace@local@@QEAA_NPEAUQuickHullHalfEdge@2@AEAV?$Array@PEAUQuickHullFace@local@@VNamedAllocator@shdfnd@physx@@@shdfnd@physx@@@Z 000000018004abf4     QuickHullConvexHullLib.obj
 0002:00006c0c       $chain$4$?mergeAdjacentFace@QuickHullFace@local@@QEAA_NPEAUQuickHullHalfEdge@2@AEAV?$Array@PEAUQuickHullFace@local@@VNamedAllocator@shdfnd@physx@@@shdfnd@physx@@@Z 000000018004ac0c     QuickHullConvexHullLib.obj
 0002:00006c30       $chain$5$?mergeAdjacentFace@QuickHullFace@local@@QEAA_NPEAUQuickHullHalfEdge@2@AEAV?$Array@PEAUQuickHullFace@local@@VNamedAllocator@shdfnd@physx@@@shdfnd@physx@@@Z 000000018004ac30     QuickHullConvexHullLib.obj
 0002:00006c40       $chain$6$?mergeAdjacentFace@QuickHullFace@local@@QEAA_NPEAUQuickHullHalfEdge@2@AEAV?$Array@PEAUQuickHullFace@local@@VNamedAllocator@shdfnd@physx@@@shdfnd@physx@@@Z 000000018004ac40     QuickHullConvexHullLib.obj
 0002:00006c64       $chain$7$?mergeAdjacentFace@QuickHullFace@local@@QEAA_NPEAUQuickHullHalfEdge@2@AEAV?$Array@PEAUQuickHullFace@local@@VNamedAllocator@shdfnd@physx@@@shdfnd@physx@@@Z 000000018004ac64     QuickHullConvexHullLib.obj
 0002:00006c78       $chain$8$?mergeAdjacentFace@QuickHullFace@local@@QEAA_NPEAUQuickHullHalfEdge@2@AEAV?$Array@PEAUQuickHullFace@local@@VNamedAllocator@shdfnd@physx@@@shdfnd@physx@@@Z 000000018004ac78     QuickHullConvexHullLib.obj
 0002:00006c88       $unwind$?connectHalfEdges@QuickHullFace@local@@AEAAPEAU12@PEAUQuickHullHalfEdge@2@0@Z 000000018004ac88     QuickHullConvexHullLib.obj
 0002:00006c90       $chain$0$?connectHalfEdges@QuickHullFace@local@@AEAAPEAU12@PEAUQuickHullHalfEdge@2@0@Z 000000018004ac90     QuickHullConvexHullLib.obj
 0002:00006ca4       $chain$4$?connectHalfEdges@QuickHullFace@local@@AEAAPEAU12@PEAUQuickHullHalfEdge@2@0@Z 000000018004aca4     QuickHullConvexHullLib.obj
 0002:00006cc4       $chain$5$?connectHalfEdges@QuickHullFace@local@@AEAAPEAU12@PEAUQuickHullHalfEdge@2@0@Z 000000018004acc4     QuickHullConvexHullLib.obj
 0002:00006cd4       $chain$6$?connectHalfEdges@QuickHullFace@local@@AEAAPEAU12@PEAUQuickHullHalfEdge@2@0@Z 000000018004acd4     QuickHullConvexHullLib.obj
 0002:00006ce4       $unwind$??0QuickHull@local@@QEAA@AEBUPxCookingParams@physx@@AEBVPxConvexMeshDesc@3@@Z 000000018004ace4     QuickHullConvexHullLib.obj
 0002:00006cf4       $unwind$??1QuickHull@local@@QEAA@XZ 000000018004acf4     QuickHullConvexHullLib.obj
 0002:00006d00       $unwind$?preallocate@QuickHull@local@@QEAAXI@Z 000000018004ad00     QuickHullConvexHullLib.obj
 0002:00006d10       $unwind$?parseInputVertices@QuickHull@local@@QEAAXPEBVPxVec3@physx@@I@Z 000000018004ad10     QuickHullConvexHullLib.obj
 0002:00006d1c       $chain$0$?parseInputVertices@QuickHull@local@@QEAAXPEBVPxVec3@physx@@I@Z 000000018004ad1c     QuickHullConvexHullLib.obj
 0002:00006d30       $chain$1$?parseInputVertices@QuickHull@local@@QEAAXPEBVPxVec3@physx@@I@Z 000000018004ad30     QuickHullConvexHullLib.obj
 0002:00006d40       $unwind$?releaseHull@QuickHull@local@@QEAAXXZ 000000018004ad40     QuickHullConvexHullLib.obj
 0002:00006d4c       $unwind$?buildHull@QuickHull@local@@QEAA?AW4Enum@QuickHullResult@2@XZ 000000018004ad4c     QuickHullConvexHullLib.obj
 0002:00006d60       $unwind$?computeMinMaxVerts@QuickHull@local@@IEAAXXZ 000000018004ad60     QuickHullConvexHullLib.obj
 0002:00006d6c       $unwind$?findSimplex@QuickHull@local@@IEAA_NXZ 000000018004ad6c     QuickHullConvexHullLib.obj
 0002:00006d80       $chain$8$?findSimplex@QuickHull@local@@IEAA_NXZ 000000018004ad80     QuickHullConvexHullLib.obj
 0002:00006db4       $chain$10$?findSimplex@QuickHull@local@@IEAA_NXZ 000000018004adb4     QuickHullConvexHullLib.obj
 0002:00006dcc       $chain$11$?findSimplex@QuickHull@local@@IEAA_NXZ 000000018004adcc     QuickHullConvexHullLib.obj
 0002:00006de0       $chain$12$?findSimplex@QuickHull@local@@IEAA_NXZ 000000018004ade0     QuickHullConvexHullLib.obj
 0002:00006df0       $chain$13$?findSimplex@QuickHull@local@@IEAA_NXZ 000000018004adf0     QuickHullConvexHullLib.obj
 0002:00006e20       $chain$14$?findSimplex@QuickHull@local@@IEAA_NXZ 000000018004ae20     QuickHullConvexHullLib.obj
 0002:00006e30       $unwind$?addSimplex@QuickHull@local@@IEAAXPEAUQuickHullVertex@2@_N@Z 000000018004ae30     QuickHullConvexHullLib.obj
 0002:00006e44       $chain$2$?addSimplex@QuickHull@local@@IEAAXPEAUQuickHullVertex@2@_N@Z 000000018004ae44     QuickHullConvexHullLib.obj
 0002:00006e60       $chain$8$?addSimplex@QuickHull@local@@IEAAXPEAUQuickHullVertex@2@_N@Z 000000018004ae60     QuickHullConvexHullLib.obj
 0002:00006e84       $chain$3$?addSimplex@QuickHull@local@@IEAAXPEAUQuickHullVertex@2@_N@Z 000000018004ae84     QuickHullConvexHullLib.obj
 0002:00006e94       $unwind$?nextPointToAdd@QuickHull@local@@IEAAPEAUQuickHullVertex@2@AEAPEAUQuickHullFace@2@@Z 000000018004ae94     QuickHullConvexHullLib.obj
 0002:00006ea4       $unwind$?addPointToHull@QuickHull@local@@IEAA_NPEBUQuickHullVertex@2@AEAUQuickHullFace@2@AEA_N@Z 000000018004aea4     QuickHullConvexHullLib.obj
 0002:00006eb8       $chain$3$?addPointToHull@QuickHull@local@@IEAA_NPEBUQuickHullVertex@2@AEAUQuickHullFace@2@AEA_N@Z 000000018004aeb8     QuickHullConvexHullLib.obj
 0002:00006ed4       $chain$4$?addPointToHull@QuickHull@local@@IEAA_NPEBUQuickHullVertex@2@AEAUQuickHullFace@2@AEA_N@Z 000000018004aed4     QuickHullConvexHullLib.obj
 0002:00006eec       $chain$5$?addPointToHull@QuickHull@local@@IEAA_NPEBUQuickHullVertex@2@AEAUQuickHullFace@2@AEA_N@Z 000000018004aeec     QuickHullConvexHullLib.obj
 0002:00006f00       $chain$6$?addPointToHull@QuickHull@local@@IEAA_NPEBUQuickHullVertex@2@AEAUQuickHullFace@2@AEA_N@Z 000000018004af00     QuickHullConvexHullLib.obj
 0002:00006f10       $unwind$?createTriangle@QuickHull@local@@IEAAPEAUQuickHullFace@2@AEBUQuickHullVertex@2@00@Z 000000018004af10     QuickHullConvexHullLib.obj
 0002:00006f38       $unwind$?calculateHorizon@QuickHull@local@@IEAAXAEBVPxVec3@physx@@PEAUQuickHullHalfEdge@2@AEAUQuickHullFace@2@AEAV?$Array@PEAUQuickHullHalfEdge@local@@VNamedAllocator@shdfnd@physx@@@shdfnd@4@AEAV?$Array@PEAUQuickHullFace@local@@VNamedAllocator@shdfnd@physx@@@84@@Z 000000018004af38     QuickHullConvexHullLib.obj
 0002:00006f50       $unwind$?addNewFacesFromHorizon@QuickHull@local@@IEAAXPEBUQuickHullVertex@2@AEBV?$Array@PEAUQuickHullHalfEdge@local@@VNamedAllocator@shdfnd@physx@@@shdfnd@physx@@AEAV?$Array@PEAUQuickHullFace@local@@VNamedAllocator@shdfnd@physx@@@56@@Z 000000018004af50     QuickHullConvexHullLib.obj
 0002:00006f60       $chain$2$?addNewFacesFromHorizon@QuickHull@local@@IEAAXPEBUQuickHullVertex@2@AEBV?$Array@PEAUQuickHullHalfEdge@local@@VNamedAllocator@shdfnd@physx@@@shdfnd@physx@@AEAV?$Array@PEAUQuickHullFace@local@@VNamedAllocator@shdfnd@physx@@@56@@Z 000000018004af60     QuickHullConvexHullLib.obj
 0002:00006f7c       $chain$3$?addNewFacesFromHorizon@QuickHull@local@@IEAAXPEBUQuickHullVertex@2@AEBV?$Array@PEAUQuickHullHalfEdge@local@@VNamedAllocator@shdfnd@physx@@@shdfnd@physx@@AEAV?$Array@PEAUQuickHullFace@local@@VNamedAllocator@shdfnd@physx@@@56@@Z 000000018004af7c     QuickHullConvexHullLib.obj
 0002:00006f8c       $unwind$?doAdjacentMerge@QuickHull@local@@IEAA_NAEAUQuickHullFace@2@_NAEA_N@Z 000000018004af8c     QuickHullConvexHullLib.obj
 0002:00006f9c       $chain$1$?doAdjacentMerge@QuickHull@local@@IEAA_NAEAUQuickHullFace@2@_NAEA_N@Z 000000018004af9c     QuickHullConvexHullLib.obj
 0002:00006fb4       $unwind$?doPostAdjacentMerge@QuickHull@local@@IEAA_NAEAUQuickHullFace@2@M@Z 000000018004afb4     QuickHullConvexHullLib.obj
 0002:00006fc8       $chain$0$?doPostAdjacentMerge@QuickHull@local@@IEAA_NAEAUQuickHullFace@2@M@Z 000000018004afc8     QuickHullConvexHullLib.obj
 0002:00006fdc       $chain$1$?doPostAdjacentMerge@QuickHull@local@@IEAA_NAEAUQuickHullFace@2@M@Z 000000018004afdc     QuickHullConvexHullLib.obj
 0002:00006fec       $unwind$?deleteFacePoints@QuickHull@local@@IEAAXAEAUQuickHullFace@2@PEAU32@@Z 000000018004afec     QuickHullConvexHullLib.obj
 0002:00006ffc       $chain$0$?deleteFacePoints@QuickHull@local@@IEAAXAEAUQuickHullFace@2@PEAU32@@Z 000000018004affc     QuickHullConvexHullLib.obj
 0002:00007010       $chain$1$?deleteFacePoints@QuickHull@local@@IEAAXAEAUQuickHullFace@2@PEAU32@@Z 000000018004b010     QuickHullConvexHullLib.obj
 0002:00007020       $unwind$?resolveUnclaimedPoints@QuickHull@local@@IEAAXAEBV?$Array@PEAUQuickHullFace@local@@VNamedAllocator@shdfnd@physx@@@shdfnd@physx@@@Z 000000018004b020     QuickHullConvexHullLib.obj
 0002:00007034       $unwind$?postMergeHull@QuickHull@local@@IEAAXXZ 000000018004b034     QuickHullConvexHullLib.obj
 0002:00007040       $chain$2$?postMergeHull@QuickHull@local@@IEAAXXZ 000000018004b040     QuickHullConvexHullLib.obj
 0002:0000705c       $chain$3$?postMergeHull@QuickHull@local@@IEAAXXZ 000000018004b05c     QuickHullConvexHullLib.obj
 0002:0000706c       $chain$4$?postMergeHull@QuickHull@local@@IEAAXXZ 000000018004b06c     QuickHullConvexHullLib.obj
 0002:00007088       $unwind$?canMergeFaces@QuickHull@local@@IEAA_NAEBUQuickHullHalfEdge@2@@Z 000000018004b088     QuickHullConvexHullLib.obj
 0002:0000718c       $unwind$??_GQuickHullConvexHullLib@physx@@UEAAPEAXI@Z 000000018004b18c     QuickHullConvexHullLib.obj
 0002:000071a4       $unwind$?init@?$MemBlock@UQuickHullHalfEdge@local@@$0A@@local@@QEAAXI@Z 000000018004b1a4     QuickHullConvexHullLib.obj
 0002:000071b4       $unwind$??1?$MemBlock@UQuickHullHalfEdge@local@@$0A@@local@@QEAA@XZ 000000018004b1b4     QuickHullConvexHullLib.obj
 0002:000071bc       $chain$0$??1?$MemBlock@UQuickHullHalfEdge@local@@$0A@@local@@QEAA@XZ 000000018004b1bc     QuickHullConvexHullLib.obj
 0002:000071d4       $chain$1$??1?$MemBlock@UQuickHullHalfEdge@local@@$0A@@local@@QEAA@XZ 000000018004b1d4     QuickHullConvexHullLib.obj
 0002:000071ec       $chain$2$??1?$MemBlock@UQuickHullHalfEdge@local@@$0A@@local@@QEAA@XZ 000000018004b1ec     QuickHullConvexHullLib.obj
 0002:00007200       $chain$3$??1?$MemBlock@UQuickHullHalfEdge@local@@$0A@@local@@QEAA@XZ 000000018004b200     QuickHullConvexHullLib.obj
 0002:00007214       $unwind$?getFreeItem@?$MemBlock@UQuickHullHalfEdge@local@@$0A@@local@@QEAAPEAUQuickHullHalfEdge@2@XZ 000000018004b214     QuickHullConvexHullLib.obj
 0002:00007228       $unwind$?growAndPushBack@?$Array@PEAUQuickHullHalfEdge@local@@VNamedAllocator@shdfnd@physx@@@shdfnd@physx@@IEAAAEAPEAUQuickHullHalfEdge@local@@AEBQEAU45@@Z 000000018004b228     QuickHullConvexHullLib.obj
 0002:00007240       $unwind$?recreate@?$Array@PEAUQuickHullHalfEdge@local@@VNamedAllocator@shdfnd@physx@@@shdfnd@physx@@IEAAXI@Z 000000018004b240     QuickHullConvexHullLib.obj
 0002:00007254       $chain$0$?recreate@?$Array@PEAUQuickHullHalfEdge@local@@VNamedAllocator@shdfnd@physx@@@shdfnd@physx@@IEAAXI@Z 000000018004b254     QuickHullConvexHullLib.obj
 0002:0000726c       $chain$1$?recreate@?$Array@PEAUQuickHullHalfEdge@local@@VNamedAllocator@shdfnd@physx@@@shdfnd@physx@@IEAAXI@Z 000000018004b26c     QuickHullConvexHullLib.obj
 0002:00007280       $unwind$?init@?$MemBlock@UQuickHullFace@local@@$00@local@@QEAAXI@Z 000000018004b280     QuickHullConvexHullLib.obj
 0002:00007290       $unwind$??1?$MemBlock@UQuickHullFace@local@@$00@local@@QEAA@XZ 000000018004b290     QuickHullConvexHullLib.obj
 0002:00007298       $chain$0$??1?$MemBlock@UQuickHullFace@local@@$00@local@@QEAA@XZ 000000018004b298     QuickHullConvexHullLib.obj
 0002:000072b0       $chain$1$??1?$MemBlock@UQuickHullFace@local@@$00@local@@QEAA@XZ 000000018004b2b0     QuickHullConvexHullLib.obj
 0002:000072c8       $chain$2$??1?$MemBlock@UQuickHullFace@local@@$00@local@@QEAA@XZ 000000018004b2c8     QuickHullConvexHullLib.obj
 0002:000072dc       $chain$3$??1?$MemBlock@UQuickHullFace@local@@$00@local@@QEAA@XZ 000000018004b2dc     QuickHullConvexHullLib.obj
 0002:000072f0       $unwind$?getFreeItem@?$MemBlock@UQuickHullFace@local@@$00@local@@QEAAPEAUQuickHullFace@2@XZ 000000018004b2f0     QuickHullConvexHullLib.obj
 0002:00007308       $unwind$?growAndPushBack@?$Array@PEAUQuickHullFace@local@@VNamedAllocator@shdfnd@physx@@@shdfnd@physx@@IEAAAEAPEAUQuickHullFace@local@@AEBQEAU45@@Z 000000018004b308     QuickHullConvexHullLib.obj
 0002:00007320       $unwind$?recreate@?$Array@PEAUQuickHullFace@local@@VNamedAllocator@shdfnd@physx@@@shdfnd@physx@@IEAAXI@Z 000000018004b320     QuickHullConvexHullLib.obj
 0002:00007334       $chain$0$?recreate@?$Array@PEAUQuickHullFace@local@@VNamedAllocator@shdfnd@physx@@@shdfnd@physx@@IEAAXI@Z 000000018004b334     QuickHullConvexHullLib.obj
 0002:0000734c       $chain$1$?recreate@?$Array@PEAUQuickHullFace@local@@VNamedAllocator@shdfnd@physx@@@shdfnd@physx@@IEAAXI@Z 000000018004b34c     QuickHullConvexHullLib.obj
 0002:00007360       $unwind$?growAndPushBack@?$Array@PEAUQuickHullVertex@local@@VNamedAllocator@shdfnd@physx@@@shdfnd@physx@@IEAAAEAPEAUQuickHullVertex@local@@AEBQEAU45@@Z 000000018004b360     QuickHullConvexHullLib.obj
 0002:00007378       $unwind$?recreate@?$Array@PEAUQuickHullVertex@local@@VNamedAllocator@shdfnd@physx@@@shdfnd@physx@@IEAAXI@Z 000000018004b378     QuickHullConvexHullLib.obj
 0002:0000738c       $chain$0$?recreate@?$Array@PEAUQuickHullVertex@local@@VNamedAllocator@shdfnd@physx@@@shdfnd@physx@@IEAAXI@Z 000000018004b38c     QuickHullConvexHullLib.obj
 0002:000073a4       $chain$1$?recreate@?$Array@PEAUQuickHullVertex@local@@VNamedAllocator@shdfnd@physx@@@shdfnd@physx@@IEAAXI@Z 000000018004b3a4     QuickHullConvexHullLib.obj
 0002:000073b8       $unwind$?growAndPushBack@?$Array@UExpandPoint@local@@VNamedAllocator@shdfnd@physx@@@shdfnd@physx@@IEAAAEAUExpandPoint@local@@AEBU45@@Z 000000018004b3b8     QuickHullConvexHullLib.obj
 0002:000073c8       $chain$0$?growAndPushBack@?$Array@UExpandPoint@local@@VNamedAllocator@shdfnd@physx@@@shdfnd@physx@@IEAAAEAUExpandPoint@local@@AEBU45@@Z 000000018004b3c8     QuickHullConvexHullLib.obj
 0002:000073e0       $chain$1$?growAndPushBack@?$Array@UExpandPoint@local@@VNamedAllocator@shdfnd@physx@@@shdfnd@physx@@IEAAAEAUExpandPoint@local@@AEBU45@@Z 000000018004b3e0     QuickHullConvexHullLib.obj
 0002:000073f8       $chain$2$?growAndPushBack@?$Array@UExpandPoint@local@@VNamedAllocator@shdfnd@physx@@@shdfnd@physx@@IEAAAEAUExpandPoint@local@@AEBU45@@Z 000000018004b3f8     QuickHullConvexHullLib.obj
 0002:0000740c       $chain$3$?growAndPushBack@?$Array@UExpandPoint@local@@VNamedAllocator@shdfnd@physx@@@shdfnd@physx@@IEAAAEAUExpandPoint@local@@AEBU45@@Z 000000018004b40c     QuickHullConvexHullLib.obj
 0002:00007420       $unwind$?recreate@?$Array@UExpandPoint@local@@VNamedAllocator@shdfnd@physx@@@shdfnd@physx@@IEAAXI@Z 000000018004b420     QuickHullConvexHullLib.obj
 0002:00007434       $chain$0$?recreate@?$Array@UExpandPoint@local@@VNamedAllocator@shdfnd@physx@@@shdfnd@physx@@IEAAXI@Z 000000018004b434     QuickHullConvexHullLib.obj
 0002:0000744c       $chain$1$?recreate@?$Array@UExpandPoint@local@@VNamedAllocator@shdfnd@physx@@@shdfnd@physx@@IEAAXI@Z 000000018004b44c     QuickHullConvexHullLib.obj
 0002:00007460       $unwind$?computeVolumeIntegrals@physx@@YA_NAEBVPxSimpleTriangleMesh@1@MAEAUPxIntegrals@1@@Z 000000018004b460     VolumeIntegration.obj
 0002:00007468       $unwind$?computeVolumeIntegralsEberly@physx@@YA_NAEBVPxConvexMeshDesc@1@MAEAUPxIntegrals@1@AEBVPxVec3@1@@Z 000000018004b468     VolumeIntegration.obj
 0002:00007470       $unwind$?computeVolumeIntegralsEberlySIMD@physx@@YA_NAEBVPxConvexMeshDesc@1@MAEAUPxIntegrals@1@AEBVPxVec3@1@@Z 000000018004b470     VolumeIntegration.obj
 0002:0000747c       $unwind$?computeVolumeIntegrals@VolumeIntegrator@?A0x0a1571c3@physx@@QEAA_NAEAUPxIntegrals@3@@Z 000000018004b47c     VolumeIntegration.obj
 0002:000074c4       $unwind$?computeProjectionIntegrals@VolumeIntegrator@?A0x0a1571c3@physx@@AEAAXAEBUFace@123@@Z 000000018004b4c4     VolumeIntegration.obj
 0002:00007508       $unwind$?computeFaceIntegrals@VolumeIntegrator@?A0x0a1571c3@physx@@AEAAXAEBUFace@123@@Z 000000018004b508     VolumeIntegration.obj
 0002:00007544       $unwind$?computeVolumeIntegralsSIMD@VolumeIntegratorEberly@?A0x0a1571c3@physx@@QEAA_NAEAUPxIntegrals@3@AEBVPxVec3@3@@Z 000000018004b544     VolumeIntegration.obj
 0002:00007580       $chain$0$?computeVolumeIntegralsSIMD@VolumeIntegratorEberly@?A0x0a1571c3@physx@@QEAA_NAEAUPxIntegrals@3@AEBVPxVec3@3@@Z 000000018004b580     VolumeIntegration.obj
 0002:00007598       $chain$2$?computeVolumeIntegralsSIMD@VolumeIntegratorEberly@?A0x0a1571c3@physx@@QEAA_NAEAUPxIntegrals@3@AEBVPxVec3@3@@Z 000000018004b598     VolumeIntegration.obj
 0002:000075b4       $chain$3$?computeVolumeIntegralsSIMD@VolumeIntegratorEberly@?A0x0a1571c3@physx@@QEAA_NAEAUPxIntegrals@3@AEBVPxVec3@3@@Z 000000018004b5b4     VolumeIntegration.obj
 0002:000075c8       $chain$4$?computeVolumeIntegralsSIMD@VolumeIntegratorEberly@?A0x0a1571c3@physx@@QEAA_NAEAUPxIntegrals@3@AEBVPxVec3@3@@Z 000000018004b5c8     VolumeIntegration.obj
 0002:000075dc       $unwind$?computeVolumeIntegrals@VolumeIntegratorEberly@?A0x0a1571c3@physx@@QEAA_NAEAUPxIntegrals@3@AEBVPxVec3@3@@Z 000000018004b5dc     VolumeIntegration.obj
 0002:00007610       $chain$0$?computeVolumeIntegrals@VolumeIntegratorEberly@?A0x0a1571c3@physx@@QEAA_NAEAUPxIntegrals@3@AEBVPxVec3@3@@Z 000000018004b610     VolumeIntegration.obj
 0002:00007628       $chain$6$?computeVolumeIntegrals@VolumeIntegratorEberly@?A0x0a1571c3@physx@@QEAA_NAEAUPxIntegrals@3@AEBVPxVec3@3@@Z 000000018004b628     VolumeIntegration.obj
 0002:00007654       $chain$7$?computeVolumeIntegrals@VolumeIntegratorEberly@?A0x0a1571c3@physx@@QEAA_NAEAUPxIntegrals@3@AEBVPxVec3@3@@Z 000000018004b654     VolumeIntegration.obj
 0002:00007668       $chain$8$?computeVolumeIntegrals@VolumeIntegratorEberly@?A0x0a1571c3@physx@@QEAA_NAEAUPxIntegrals@3@AEBVPxVec3@3@@Z 000000018004b668     VolumeIntegration.obj
 0002:0000767c       $unwind$??_I@YAXPEAX_K1P6AX0@Z@Z 000000018004b67c     Adjacencies.obj
 0002:00007694       $unwind$??_EAdjTriangle@physx@@QEAAPEAXI@Z 000000018004b694     Adjacencies.obj
 0002:0000769c       $unwind$??1Adjacencies@physx@@QEAA@XZ 000000018004b69c     Adjacencies.obj
 0002:000076a4       $chain$0$??1Adjacencies@physx@@QEAA@XZ 000000018004b6a4     Adjacencies.obj
 0002:000076b8       $chain$2$??1Adjacencies@physx@@QEAA@XZ 000000018004b6b8     Adjacencies.obj
 0002:000076cc       $chain$3$??1Adjacencies@physx@@QEAA@XZ 000000018004b6cc     Adjacencies.obj
 0002:000076dc       $unwind$?Load@Adjacencies@physx@@QEAA_NAEAVPxInputStream@2@@Z 000000018004b6dc     Adjacencies.obj
 0002:000076ec       $unwind$?GetBoundaryVertices@Adjacencies@physx@@QEBA_NIPEA_NPEBU?$TriangleT@I@Gu@2@@Z 000000018004b6ec     Adjacencies.obj
 0002:00007700       $unwind$?MakeLastRef@Adjacencies@physx@@QEAA_NAEAVAdjTriangle@2@IPEAU?$TriangleT@I@Gu@2@@Z 000000018004b700     Adjacencies.obj
 0002:00007708       $chain$1$?MakeLastRef@Adjacencies@physx@@QEAA_NAEAVAdjTriangle@2@IPEAU?$TriangleT@I@Gu@2@@Z 000000018004b708     Adjacencies.obj
 0002:00007720       $chain$3$?MakeLastRef@Adjacencies@physx@@QEAA_NAEAVAdjTriangle@2@IPEAU?$TriangleT@I@Gu@2@@Z 000000018004b720     Adjacencies.obj
 0002:00007738       $chain$5$?MakeLastRef@Adjacencies@physx@@QEAA_NAEAVAdjTriangle@2@IPEAU?$TriangleT@I@Gu@2@@Z 000000018004b738     Adjacencies.obj
 0002:00007750       $chain$7$?MakeLastRef@Adjacencies@physx@@QEAA_NAEAVAdjTriangle@2@IPEAU?$TriangleT@I@Gu@2@@Z 000000018004b750     Adjacencies.obj
 0002:00007768       $unwind$?Init@AdjacenciesBuilder@physx@@QEAA_NAEBUADJACENCIESCREATE@2@@Z 000000018004b768     Adjacencies.obj
 0002:00007774       $chain$3$?Init@AdjacenciesBuilder@physx@@QEAA_NAEBUADJACENCIESCREATE@2@@Z 000000018004b774     Adjacencies.obj
 0002:00007794       $chain$4$?Init@AdjacenciesBuilder@physx@@QEAA_NAEBUADJACENCIESCREATE@2@@Z 000000018004b794     Adjacencies.obj
 0002:000077b0       $chain$5$?Init@AdjacenciesBuilder@physx@@QEAA_NAEBUADJACENCIESCREATE@2@@Z 000000018004b7b0     Adjacencies.obj
 0002:000077e8       $unwind$??$?_UV?$ReflectionAllocator@VAdjTriangle@physx@@@shdfnd@physx@@@UserAllocated@shdfnd@physx@@SAPEAX_KV?$ReflectionAllocator@VAdjTriangle@physx@@@12@PEBDH@Z 000000018004b7e8     Adjacencies.obj
 0002:000077fc       $chain$0$??$?_UV?$ReflectionAllocator@VAdjTriangle@physx@@@shdfnd@physx@@@UserAllocated@shdfnd@physx@@SAPEAX_KV?$ReflectionAllocator@VAdjTriangle@physx@@@12@PEBDH@Z 000000018004b7fc     Adjacencies.obj
 0002:00007814       $chain$1$??$?_UV?$ReflectionAllocator@VAdjTriangle@physx@@@shdfnd@physx@@@UserAllocated@shdfnd@physx@@SAPEAX_KV?$ReflectionAllocator@VAdjTriangle@physx@@@12@PEBDH@Z 000000018004b814     Adjacencies.obj
 0002:00007828       $unwind$??_EAdjEdge@@QEAAPEAXI@Z 000000018004b828     Adjacencies.obj
 0002:00007830       $unwind$?UpdateLink@@YA_NIIIIPEAVAdjTriangle@physx@@AEBUADJACENCIESCREATE@2@@Z 000000018004b830     Adjacencies.obj
 0002:00007840       $chain$3$?UpdateLink@@YA_NIIIIPEAVAdjTriangle@physx@@AEBUADJACENCIESCREATE@2@@Z 000000018004b840     Adjacencies.obj
 0002:00007864       $chain$5$?UpdateLink@@YA_NIIIIPEAVAdjTriangle@physx@@AEBUADJACENCIESCREATE@2@@Z 000000018004b864     Adjacencies.obj
 0002:00007880       $chain$6$?UpdateLink@@YA_NIIIIPEAVAdjTriangle@physx@@AEBUADJACENCIESCREATE@2@@Z 000000018004b880     Adjacencies.obj
 0002:00007894       $chain$7$?UpdateLink@@YA_NIIIIPEAVAdjTriangle@physx@@AEBUADJACENCIESCREATE@2@@Z 000000018004b894     Adjacencies.obj
 0002:000078b0       $chain$8$?UpdateLink@@YA_NIIIIPEAVAdjTriangle@physx@@AEBUADJACENCIESCREATE@2@@Z 000000018004b8b0     Adjacencies.obj
 0002:000078c4       $unwind$?CreateDatabase@@YA_NPEAVAdjTriangle@physx@@IPEBVAdjEdge@@AEBUADJACENCIESCREATE@2@@Z 000000018004b8c4     Adjacencies.obj
 0002:000078e4       $unwind$??_GPxCooking@physx@@MEAAPEAXI@Z 000000018004b8e4     Cooking.obj
 0002:000078ec       $unwind$PxCreateCooking    000000018004b8ec     Cooking.obj
 0002:000078f8       $unwind$?release@Cooking@physx@@UEAAXXZ 000000018004b8f8     Cooking.obj
 0002:00007900       $unwind$?cookTriangleMesh@Cooking@physx@@UEBA_NAEBVPxTriangleMeshDesc@2@AEAVPxOutputStream@2@PEAW4Enum@PxTriangleMeshCookingResult@2@@Z 000000018004b900     Cooking.obj
 0002:0000791c       $unwind$?createTriangleMesh@Cooking@physx@@UEBAPEAVPxTriangleMesh@2@AEBVPxTriangleMeshDesc@2@AEAVPxPhysicsInsertionCallback@2@PEAW4Enum@PxTriangleMeshCookingResult@2@@Z 000000018004b91c     Cooking.obj
 0002:00007938       $unwind$?validateTriangleMesh@Cooking@physx@@UEBA_NAEBVPxTriangleMeshDesc@2@@Z 000000018004b938     Cooking.obj
 0002:00007948       $unwind$?cookConvexMesh@Cooking@physx@@UEBA_NAEBVPxConvexMeshDesc@2@AEAVPxOutputStream@2@PEAW4Enum@PxConvexMeshCookingResult@2@@Z 000000018004b948     Cooking.obj
 0002:00007964       $unwind$?createConvexMesh@Cooking@physx@@UEBAPEAVPxConvexMesh@2@AEBVPxConvexMeshDesc@2@AEAVPxPhysicsInsertionCallback@2@PEAW4Enum@PxConvexMeshCookingResult@2@@Z 000000018004b964     Cooking.obj
 0002:00007980       $unwind$?validateConvexMesh@Cooking@physx@@UEBA_NAEBVPxConvexMeshDesc@2@@Z 000000018004b980     Cooking.obj
 0002:00007990       $unwind$?computeHullPolygons@Cooking@physx@@UEBA_NAEBVPxSimpleTriangleMesh@2@AEAVPxAllocatorCallback@2@AEAIAEAPEAVPxVec3@2@2AEAPEAI2AEAPEAUPxHullPolygon@2@@Z 000000018004b990     Cooking.obj
 0002:000079b0       $unwind$?cookHeightField@Cooking@physx@@UEBA_NAEBVPxHeightFieldDesc@2@AEAVPxOutputStream@2@@Z 000000018004b9b0     Cooking.obj
 0002:000079c4       $unwind$?createHeightField@Cooking@physx@@UEBAPEAVPxHeightField@2@AEBVPxHeightFieldDesc@2@AEAVPxPhysicsInsertionCallback@2@@Z 000000018004b9c4     Cooking.obj
 0002:000079d4       $unwind$?cookConvexMeshInternal@Cooking@physx@@AEBA_NAEBVPxConvexMeshDesc@2@AEAVConvexMeshBuilder@2@PEAVConvexHullLib@2@PEAW4Enum@PxConvexMeshCookingResult@2@@Z 000000018004b9d4     Cooking.obj
 0002:000079e8       $chain$1$?cookConvexMeshInternal@Cooking@physx@@AEBA_NAEBVPxConvexMeshDesc@2@AEAVConvexMeshBuilder@2@PEAVConvexHullLib@2@PEAW4Enum@PxConvexMeshCookingResult@2@@Z 000000018004b9e8     Cooking.obj
 0002:000079fc       $chain$2$?cookConvexMeshInternal@Cooking@physx@@AEBA_NAEBVPxConvexMeshDesc@2@AEAVConvexMeshBuilder@2@PEAVConvexHullLib@2@PEAW4Enum@PxConvexMeshCookingResult@2@@Z 000000018004b9fc     Cooking.obj
 0002:00007a0c       $chain$3$?cookConvexMeshInternal@Cooking@physx@@AEBA_NAEBVPxConvexMeshDesc@2@AEAVConvexMeshBuilder@2@PEAVConvexHullLib@2@PEAW4Enum@PxConvexMeshCookingResult@2@@Z 000000018004ba0c     Cooking.obj
 0002:00007a20       $chain$4$?cookConvexMeshInternal@Cooking@physx@@AEBA_NAEBVPxConvexMeshDesc@2@AEAVConvexMeshBuilder@2@PEAVConvexHullLib@2@PEAW4Enum@PxConvexMeshCookingResult@2@@Z 000000018004ba20     Cooking.obj
 0002:00007a30       $unwind$?cookTriangleMesh@Cooking@physx@@AEBA_NAEAVTriangleMeshBuilder@2@AEBVPxTriangleMeshDesc@2@AEAVPxOutputStream@2@PEAW4Enum@PxTriangleMeshCookingResult@2@@Z 000000018004ba30     Cooking.obj
 0002:00007a44       $unwind$?createTriangleMesh@Cooking@physx@@AEBAPEAVPxTriangleMesh@2@AEAVTriangleMeshBuilder@2@AEBVPxTriangleMeshDesc@2@AEAVPxPhysicsInsertionCallback@2@PEAW4Enum@PxTriangleMeshCookingResult@2@@Z 000000018004ba44     Cooking.obj
 0002:00007a80       $unwind$??_GCooking@physx@@UEAAPEAXI@Z 000000018004ba80     Cooking.obj
 0002:00007a88       $unwind$?Clean@ReducedVertexCloud@physx@@QEAAAEAV12@XZ 000000018004ba88     CookingUtils.obj
 0002:00007a94       $unwind$?Reduce@ReducedVertexCloud@physx@@QEAA_NPEAUREDUCEDCLOUD@2@@Z 000000018004ba94     CookingUtils.obj
 0002:00007ab0       $unwind$??1EdgeList@Gu@physx@@QEAA@XZ 000000018004bab0     EdgeList.obj
 0002:00007ac0       $unwind$?load@EdgeList@Gu@physx@@QEAA_NAEAVPxInputStream@3@@Z 000000018004bac0     EdgeList.obj
 0002:00007ad4       $unwind$?init@EdgeListBuilder@Gu@physx@@QEAA_NAEBUEDGELISTCREATE@23@@Z 000000018004bad4     EdgeList.obj
 0002:00007ae4       $unwind$?createFacesToEdges@EdgeListBuilder@Gu@physx@@AEAA_NIPEBIPEBG@Z 000000018004bae4     EdgeList.obj
 0002:00007af4       $chain$3$?createFacesToEdges@EdgeListBuilder@Gu@physx@@AEAA_NIPEBIPEBG@Z 000000018004baf4     EdgeList.obj
 0002:00007b14       $chain$4$?createFacesToEdges@EdgeListBuilder@Gu@physx@@AEAA_NIPEBIPEBG@Z 000000018004bb14     EdgeList.obj
 0002:00007b2c       $chain$5$?createFacesToEdges@EdgeListBuilder@Gu@physx@@AEAA_NIPEBIPEBG@Z 000000018004bb2c     EdgeList.obj
 0002:00007b40       $chain$6$?createFacesToEdges@EdgeListBuilder@Gu@physx@@AEAA_NIPEBIPEBG@Z 000000018004bb40     EdgeList.obj
 0002:00007b50       $unwind$?createEdgesToFaces@EdgeListBuilder@Gu@physx@@AEAA_NIPEBIPEBG@Z 000000018004bb50     EdgeList.obj
 0002:00007b60       $chain$1$?createEdgesToFaces@EdgeListBuilder@Gu@physx@@AEAA_NIPEBIPEBG@Z 000000018004bb60     EdgeList.obj
 0002:00007b74       $chain$2$?createEdgesToFaces@EdgeListBuilder@Gu@physx@@AEAA_NIPEBIPEBG@Z 000000018004bb74     EdgeList.obj
 0002:00007b84       $unwind$?computeActiveEdges@EdgeListBuilder@Gu@physx@@AEAA_NIPEBIPEBGPEBVPxVec3@3@M@Z 000000018004bb84     EdgeList.obj
 0002:00007b94       $chain$0$?computeActiveEdges@EdgeListBuilder@Gu@physx@@AEAA_NIPEBIPEBGPEBVPxVec3@3@M@Z 000000018004bb94     EdgeList.obj
 0002:00007ba8       $chain$4$?computeActiveEdges@EdgeListBuilder@Gu@physx@@AEAA_NIPEBIPEBGPEBVPxVec3@3@M@Z 000000018004bba8     EdgeList.obj
 0002:00007bc0       $chain$16$?computeActiveEdges@EdgeListBuilder@Gu@physx@@AEAA_NIPEBIPEBGPEBVPxVec3@3@M@Z 000000018004bbc0     EdgeList.obj
 0002:00007c00       $chain$17$?computeActiveEdges@EdgeListBuilder@Gu@physx@@AEAA_NIPEBIPEBGPEBVPxVec3@3@M@Z 000000018004bc00     EdgeList.obj
 0002:00007c10       $chain$18$?computeActiveEdges@EdgeListBuilder@Gu@physx@@AEAA_NIPEBIPEBGPEBVPxVec3@3@M@Z 000000018004bc10     EdgeList.obj
 0002:00007c24       $chain$2$?computeActiveEdges@EdgeListBuilder@Gu@physx@@AEAA_NIPEBIPEBGPEBVPxVec3@3@M@Z 000000018004bc24     EdgeList.obj
 0002:00007c38       $chain$19$?computeActiveEdges@EdgeListBuilder@Gu@physx@@AEAA_NIPEBIPEBGPEBVPxVec3@3@M@Z 000000018004bc38     EdgeList.obj
 0002:00007c70       $unwind$??0MeshCleaner@physx@@QEAA@IPEBVPxVec3@1@IPEBIM@Z 000000018004bc70     MeshCleaner.obj
 0002:00007c7c       $chain$1$??0MeshCleaner@physx@@QEAA@IPEBVPxVec3@1@IPEBIM@Z 000000018004bc7c     MeshCleaner.obj
 0002:00007c94       $chain$5$??0MeshCleaner@physx@@QEAA@IPEBVPxVec3@1@IPEBIM@Z 000000018004bc94     MeshCleaner.obj
 0002:00007cb4       $chain$7$??0MeshCleaner@physx@@QEAA@IPEBVPxVec3@1@IPEBIM@Z 000000018004bcb4     MeshCleaner.obj
 0002:00007ccc       $chain$8$??0MeshCleaner@physx@@QEAA@IPEBVPxVec3@1@IPEBIM@Z 000000018004bccc     MeshCleaner.obj
 0002:00007ce0       $chain$9$??0MeshCleaner@physx@@QEAA@IPEBVPxVec3@1@IPEBIM@Z 000000018004bce0     MeshCleaner.obj
 0002:00007cf0       $chain$10$??0MeshCleaner@physx@@QEAA@IPEBVPxVec3@1@IPEBIM@Z 000000018004bcf0     MeshCleaner.obj
 0002:00007d00       $chain$11$??0MeshCleaner@physx@@QEAA@IPEBVPxVec3@1@IPEBIM@Z 000000018004bd00     MeshCleaner.obj
 0002:00007d18       $chain$12$??0MeshCleaner@physx@@QEAA@IPEBVPxVec3@1@IPEBIM@Z 000000018004bd18     MeshCleaner.obj
 0002:00007d28       $chain$13$??0MeshCleaner@physx@@QEAA@IPEBVPxVec3@1@IPEBIM@Z 000000018004bd28     MeshCleaner.obj
 0002:00007d44       $chain$14$??0MeshCleaner@physx@@QEAA@IPEBVPxVec3@1@IPEBIM@Z 000000018004bd44     MeshCleaner.obj
 0002:00007d54       $unwind$??1MeshCleaner@physx@@QEAA@XZ 000000018004bd54     MeshCleaner.obj
 0002:00007d7c       $unwind$??_GQuantizer@physx@@MEAAPEAXI@Z 000000018004bd7c     Quantizer.obj
 0002:00007d84       $unwind$?createQuantizer@physx@@YAPEAVQuantizer@1@XZ 000000018004bd84     Quantizer.obj
 0002:00007d98       $unwind$??$kmeans_cluster@VPxVec3@physx@@M@@YAIPEBVPxVec3@physx@@IIPEAV01@PEAIMM@Z 000000018004bd98     Quantizer.obj
 0002:00007da8       $chain$6$??$kmeans_cluster@VPxVec3@physx@@M@@YAIPEBVPxVec3@physx@@IIPEAV01@PEAIMM@Z 000000018004bda8     Quantizer.obj
 0002:00007dd8       $chain$12$??$kmeans_cluster@VPxVec3@physx@@M@@YAIPEBVPxVec3@physx@@IIPEAV01@PEAIMM@Z 000000018004bdd8     Quantizer.obj
 0002:00007e04       $chain$13$??$kmeans_cluster@VPxVec3@physx@@M@@YAIPEBVPxVec3@physx@@IIPEAV01@PEAIMM@Z 000000018004be04     Quantizer.obj
 0002:00007e18       $chain$14$??$kmeans_cluster@VPxVec3@physx@@M@@YAIPEBVPxVec3@physx@@IIPEAV01@PEAIMM@Z 000000018004be18     Quantizer.obj
 0002:00007e2c       $unwind$?kmeansQuantize3D@QuantizerImpl@@UEAAPEBVPxVec3@physx@@IPEBV23@I_NIAEAI@Z 000000018004be2c     Quantizer.obj
 0002:00007e40       $chain$0$?kmeansQuantize3D@QuantizerImpl@@UEAAPEBVPxVec3@physx@@IPEBV23@I_NIAEAI@Z 000000018004be40     Quantizer.obj
 0002:00007e58       $chain$2$?kmeansQuantize3D@QuantizerImpl@@UEAAPEBVPxVec3@physx@@IPEBV23@I_NIAEAI@Z 000000018004be58     Quantizer.obj
 0002:00007e74       $chain$3$?kmeansQuantize3D@QuantizerImpl@@UEAAPEBVPxVec3@physx@@IPEBV23@I_NIAEAI@Z 000000018004be74     Quantizer.obj
 0002:00007e8c       $chain$4$?kmeansQuantize3D@QuantizerImpl@@UEAAPEBVPxVec3@physx@@IPEBV23@I_NIAEAI@Z 000000018004be8c     Quantizer.obj
 0002:00007ea0       $chain$5$?kmeansQuantize3D@QuantizerImpl@@UEAAPEBVPxVec3@physx@@IPEBV23@I_NIAEAI@Z 000000018004bea0     Quantizer.obj
 0002:00007eb4       $unwind$?normalizeInput@QuantizerImpl@@AEAAXIPEBVPxVec3@physx@@I@Z 000000018004beb4     Quantizer.obj
 0002:00007ed8       $chain$6$?normalizeInput@QuantizerImpl@@AEAAXIPEBVPxVec3@physx@@I@Z 000000018004bed8     Quantizer.obj
 0002:00007f08       $chain$7$?normalizeInput@QuantizerImpl@@AEAAXIPEBVPxVec3@physx@@I@Z 000000018004bf08     Quantizer.obj
 0002:00007f1c       $chain$8$?normalizeInput@QuantizerImpl@@AEAAXIPEBVPxVec3@physx@@I@Z 000000018004bf1c     Quantizer.obj
 0002:00007f34       $chain$9$?normalizeInput@QuantizerImpl@@AEAAXIPEBVPxVec3@physx@@I@Z 000000018004bf34     Quantizer.obj
 0002:00007f48       $unwind$??1QuantizerImpl@@EEAA@XZ 000000018004bf48     Quantizer.obj
 0002:00007f58       $unwind$??_GQuantizerImpl@@EEAAPEAXI@Z 000000018004bf58     Quantizer.obj
 0002:00007f6c       xdata                      000000018004bf6c     PxFoundationCHECKED_x64:PxFoundationCHECKED_x64.dll
 0002:00007f74       xdata                      000000018004bf74     PhysX3CommonCHECKED_x64:PhysX3CommonCHECKED_x64.dll
 0002:00007f7c       $unwind$__FUnloadDelayLoadedDLL2 000000018004bf7c     delayimp:delayhlp.obj
 0002:00007f98       $unwind$__HrLoadAllImportsForDll 000000018004bf98     delayimp:delayhlp.obj
 0002:00007fac       $unwind$?DloadGetSRWLockFunctionPointers@@YAEXZ 000000018004bfac     delayimp:delayhlp.obj
 0002:00007fbc       $unwind$?DloadLock@@YAXXZ  000000018004bfbc     delayimp:delayhlp.obj
 0002:00007fc4       $unwind$?DloadUnlock@@YAXXZ 000000018004bfc4     delayimp:delayhlp.obj
 0002:00007fcc       $unwind$?DloadObtainSection@@YAPEAXPEAK0@Z 000000018004bfcc     delayimp:delayhlp.obj
 0002:00007fe0       $unwind$?DloadMakePermanentImageCommit@@YAXPEAX_K@Z 000000018004bfe0     delayimp:delayhlp.obj
 0002:00007ff0       $unwind$?DloadProtectSection@@YAXKPEAK@Z 000000018004bff0     delayimp:delayhlp.obj
 0002:00008004       $unwind$?DloadAcquireSectionWriteAccess@@YAXXZ 000000018004c004     delayimp:delayhlp.obj
 0002:0000800c       $unwind$?DloadReleaseSectionWriteAccess@@YAXXZ 000000018004c00c     delayimp:delayhlp.obj
 0002:00008014       $unwind$?PiddFromDllName@@YAPEBUImgDelayDescr@@PEBD@Z 000000018004c014     delayimp:delayhlp.obj
 0002:0000801c       $unwind$__delayLoadHelper2 000000018004c01c     delayimp:delayhlp.obj
 0002:00008038       $xdatasym                  000000018004c038     MSVCRT:chkstk.obj
 0002:00008040       $unwind$??_Gtype_info@@UEAAPEAXI@Z 000000018004c040     MSVCRT:std_type_info_static.obj
 0002:00008048       $unwind$?dllmain_crt_process_attach@@YAHQEAUHINSTANCE__@@QEAX@Z 000000018004c048     MSVCRT:dll_dllmain.obj
 0002:0000808c       $unwind$?fin$0@?0??dllmain_crt_process_attach@@YAHQEAUHINSTANCE__@@QEAX@Z@4HA 000000018004c08c     MSVCRT:dll_dllmain.obj
 0002:00008094       $unwind$?dllmain_crt_process_detach@@YAH_N@Z 000000018004c094     MSVCRT:dll_dllmain.obj
 0002:000080d4       $unwind$?fin$0@?0??dllmain_crt_process_detach@@YAH_N@Z@4HA 000000018004c0d4     MSVCRT:dll_dllmain.obj
 0002:000080dc       $unwind$?dllmain_crt_dispatch@@YAHQEAUHINSTANCE__@@KQEAX@Z 000000018004c0dc     MSVCRT:dll_dllmain.obj
 0002:000080e4       $unwind$?dllmain_dispatch@@YAHQEAUHINSTANCE__@@KQEAX@Z 000000018004c0e4     MSVCRT:dll_dllmain.obj
 0002:00008110       $unwind$?filt$0@?0??dllmain_dispatch@@YAHQEAUHINSTANCE__@@KQEAX@Z@4HA 000000018004c110     MSVCRT:dll_dllmain.obj
 0002:00008118       $unwind$_DllMainCRTStartup 000000018004c118     MSVCRT:dll_dllmain.obj
 0002:00008130       $xdatasym                  000000018004c130     MSVCRT:svml_ssinf4_sse2.obj
 0002:00008144       $unwind$__security_init_cookie 000000018004c144     MSVCRT:gs_support.obj
 0002:00008154       $unwind$__get_entropy      000000018004c154     MSVCRT:gs_support.obj
 0002:0000815c       $unwind$DllMain            000000018004c15c     MSVCRT:dll_dllmain_stub.obj
 0002:00008164       $unwind$__scrt_initialize_default_local_stdio_options 000000018004c164     MSVCRT:default_local_stdio_options.obj
 0002:0000816c       $unwind$atexit             000000018004c16c     MSVCRT:utility.obj
 0002:00008174       $unwind$_onexit            000000018004c174     MSVCRT:utility.obj
 0002:0000817c       $unwind$__scrt_is_nonwritable_in_current_image 000000018004c17c     MSVCRT:utility.obj
 0002:000081a0       $unwind$__scrt_is_nonwritable_in_current_image$filt$0 000000018004c1a0     MSVCRT:utility.obj
 0002:000081a8       $unwind$__scrt_acquire_startup_lock 000000018004c1a8     MSVCRT:utility.obj
 0002:000081b0       $unwind$__scrt_release_startup_lock 000000018004c1b0     MSVCRT:utility.obj
 0002:000081b8       $unwind$__scrt_initialize_crt 000000018004c1b8     MSVCRT:utility.obj
 0002:000081c0       $unwind$__scrt_uninitialize_crt 000000018004c1c0     MSVCRT:utility.obj
 0002:000081c8       $unwind$__scrt_initialize_onexit_tables 000000018004c1c8     MSVCRT:utility.obj
 0002:000081d0       $unwind$__scrt_dllmain_exception_filter 000000018004c1d0     MSVCRT:utility.obj
 0002:000081e8       $unwind$__scrt_dllmain_before_initialize_c 000000018004c1e8     MSVCRT:utility.obj
 0002:000081f0       $unwind$__scrt_dllmain_after_initialize_c 000000018004c1f0     MSVCRT:utility.obj
 0002:000081f8       $unwind$__scrt_dllmain_uninitialize_c 000000018004c1f8     MSVCRT:utility.obj
 0002:00008200       $unwind$__scrt_dllmain_uninitialize_critical 000000018004c200     MSVCRT:utility.obj
 0002:00008208       $unwind$__scrt_dllmain_crt_thread_attach 000000018004c208     MSVCRT:utility.obj
 0002:00008210       $unwind$__scrt_dllmain_crt_thread_detach 000000018004c210     MSVCRT:utility.obj
 0002:00008218       $unwind$?configure_argv@__scrt_narrow_argv_policy@@SAHXZ 000000018004c218     MSVCRT:utility.obj
 0002:00008220       $unwind$__scrt_get_show_window_mode 000000018004c220     MSVCRT:utility_desktop.obj
 0002:00008228       $unwind$__scrt_is_managed_app 000000018004c228     MSVCRT:utility_desktop.obj
 0002:00008230       $unwind$__scrt_fastfail    000000018004c230     MSVCRT:utility_desktop.obj
 0002:00008244       $unwind$__scrt_unhandled_exception_filter 000000018004c244     MSVCRT:utility_desktop.obj
 0002:0000824c       $unwind$_RTC_Initialize    000000018004c24c     MSVCRT:initsect.obj
 0002:0000825c       $unwind$_RTC_Terminate     000000018004c25c     MSVCRT:initsect.obj
 0002:00008270       $xdatasym                  000000018004c270     MSVCRT:guard_dispatch.obj
 0002:00008274       $unwind$__isa_available_init 000000018004c274     MSVCRT:cpu_disp.obj
 0002:00008550       .edata                     000000018004c550     PhysX3CookingCHECKED_x64.exp
 0002:00008578       rgpv                       000000018004c578     PhysX3CookingCHECKED_x64.exp
 0002:00008580       rgszName                   000000018004c580     PhysX3CookingCHECKED_x64.exp
 0002:00008588       rgwOrd                     000000018004c588     PhysX3CookingCHECKED_x64.exp
 0002:0000858c       szName                     000000018004c58c     PhysX3CookingCHECKED_x64.exp
 0002:000085a9       $N00001                    000000018004c5a9     PhysX3CookingCHECKED_x64.exp
 0002:000085b9       $N00002                    000000018004c5b9     PhysX3CookingCHECKED_x64.exp
 0003:0000000c       ?MAXDOT_MINANG@local@@3MB  000000018004d00c     ConvexHullUtils.obj
 0003:00000014       ?MAXDOT_MINANG@local@@3MB  000000018004d014     QuickHullConvexHullLib.obj
 0003:000006d0       ?gDelayLoadHook@@3PEBVPxDelayLoadHook@physx@@EB 000000018004d6d0     WindowsCookingDelayLoadHook.obj
 0003:000006e0       ?maxV3Error@_VecMathTests@aos@shdfnd@physx@@3T__m128@@B 000000018004d6e0     RTreeCooking.obj
 0003:000006f0       ?minFError@_VecMathTests@aos@shdfnd@physx@@3T__m128@@B 000000018004d6f0     RTreeCooking.obj
 0003:00000700       ?maxV4Error@_VecMathTests@aos@shdfnd@physx@@3T__m128@@B 000000018004d700     RTreeCooking.obj
 0003:00000710       ?minV4Error@_VecMathTests@aos@shdfnd@physx@@3T__m128@@B 000000018004d710     RTreeCooking.obj
 0003:00000720       ?minV3Error@_VecMathTests@aos@shdfnd@physx@@3T__m128@@B 000000018004d720     RTreeCooking.obj
 0003:00000730       ?maxFError@_VecMathTests@aos@shdfnd@physx@@3T__m128@@B 000000018004d730     RTreeCooking.obj
 0003:00000760       ?maxV3Error@_VecMathTests@aos@shdfnd@physx@@3T__m128@@B 000000018004d760     TriangleMeshBuilder.obj
 0003:00000770       ?minFError@_VecMathTests@aos@shdfnd@physx@@3T__m128@@B 000000018004d770     TriangleMeshBuilder.obj
 0003:00000780       ?maxV4Error@_VecMathTests@aos@shdfnd@physx@@3T__m128@@B 000000018004d780     TriangleMeshBuilder.obj
 0003:00000790       ?minV4Error@_VecMathTests@aos@shdfnd@physx@@3T__m128@@B 000000018004d790     TriangleMeshBuilder.obj
 0003:000007a0       ?minV3Error@_VecMathTests@aos@shdfnd@physx@@3T__m128@@B 000000018004d7a0     TriangleMeshBuilder.obj
 0003:000007b0       ?maxFError@_VecMathTests@aos@shdfnd@physx@@3T__m128@@B 000000018004d7b0     TriangleMeshBuilder.obj
 0003:000007e0       ?maxV3Error@_VecMathTests@aos@shdfnd@physx@@3T__m128@@B 000000018004d7e0     BigConvexDataBuilder.obj
 0003:000007f0       ?minFError@_VecMathTests@aos@shdfnd@physx@@3T__m128@@B 000000018004d7f0     BigConvexDataBuilder.obj
 0003:00000800       ?maxV4Error@_VecMathTests@aos@shdfnd@physx@@3T__m128@@B 000000018004d800     BigConvexDataBuilder.obj
 0003:00000810       ?minV4Error@_VecMathTests@aos@shdfnd@physx@@3T__m128@@B 000000018004d810     BigConvexDataBuilder.obj
 0003:00000820       ?minV3Error@_VecMathTests@aos@shdfnd@physx@@3T__m128@@B 000000018004d820     BigConvexDataBuilder.obj
 0003:00000830       ?maxFError@_VecMathTests@aos@shdfnd@physx@@3T__m128@@B 000000018004d830     BigConvexDataBuilder.obj
 0003:00000860       ?maxV3Error@_VecMathTests@aos@shdfnd@physx@@3T__m128@@B 000000018004d860     ConvexHullBuilder.obj
 0003:00000870       ?minFError@_VecMathTests@aos@shdfnd@physx@@3T__m128@@B 000000018004d870     ConvexHullBuilder.obj
 0003:00000880       ?maxV4Error@_VecMathTests@aos@shdfnd@physx@@3T__m128@@B 000000018004d880     ConvexHullBuilder.obj
 0003:00000890       ?minV4Error@_VecMathTests@aos@shdfnd@physx@@3T__m128@@B 000000018004d890     ConvexHullBuilder.obj
 0003:000008a0       ?minV3Error@_VecMathTests@aos@shdfnd@physx@@3T__m128@@B 000000018004d8a0     ConvexHullBuilder.obj
 0003:000008b0       ?maxFError@_VecMathTests@aos@shdfnd@physx@@3T__m128@@B 000000018004d8b0     ConvexHullBuilder.obj
 0003:000008e0       ?maxV3Error@_VecMathTests@aos@shdfnd@physx@@3T__m128@@B 000000018004d8e0     ConvexHullUtils.obj
 0003:000008f0       ?minFError@_VecMathTests@aos@shdfnd@physx@@3T__m128@@B 000000018004d8f0     ConvexHullUtils.obj
 0003:00000900       ?maxV4Error@_VecMathTests@aos@shdfnd@physx@@3T__m128@@B 000000018004d900     ConvexHullUtils.obj
 0003:00000910       ?minV4Error@_VecMathTests@aos@shdfnd@physx@@3T__m128@@B 000000018004d910     ConvexHullUtils.obj
 0003:00000920       ?minV3Error@_VecMathTests@aos@shdfnd@physx@@3T__m128@@B 000000018004d920     ConvexHullUtils.obj
 0003:00000930       ?maxFError@_VecMathTests@aos@shdfnd@physx@@3T__m128@@B 000000018004d930     ConvexHullUtils.obj
 0003:00000960       ?maxV3Error@_VecMathTests@aos@shdfnd@physx@@3T__m128@@B 000000018004d960     ConvexMeshBuilder.obj
 0003:00000970       ?minFError@_VecMathTests@aos@shdfnd@physx@@3T__m128@@B 000000018004d970     ConvexMeshBuilder.obj
 0003:00000980       ?maxV4Error@_VecMathTests@aos@shdfnd@physx@@3T__m128@@B 000000018004d980     ConvexMeshBuilder.obj
 0003:00000990       ?minV4Error@_VecMathTests@aos@shdfnd@physx@@3T__m128@@B 000000018004d990     ConvexMeshBuilder.obj
 0003:000009a0       ?minV3Error@_VecMathTests@aos@shdfnd@physx@@3T__m128@@B 000000018004d9a0     ConvexMeshBuilder.obj
 0003:000009b0       ?maxFError@_VecMathTests@aos@shdfnd@physx@@3T__m128@@B 000000018004d9b0     ConvexMeshBuilder.obj
 0003:000009e0       ?maxV3Error@_VecMathTests@aos@shdfnd@physx@@3T__m128@@B 000000018004d9e0     VolumeIntegration.obj
 0003:000009f0       ?minFError@_VecMathTests@aos@shdfnd@physx@@3T__m128@@B 000000018004d9f0     VolumeIntegration.obj
 0003:00000a00       ?maxV4Error@_VecMathTests@aos@shdfnd@physx@@3T__m128@@B 000000018004da00     VolumeIntegration.obj
 0003:00000a10       ?minV4Error@_VecMathTests@aos@shdfnd@physx@@3T__m128@@B 000000018004da10     VolumeIntegration.obj
 0003:00000a20       ?minV3Error@_VecMathTests@aos@shdfnd@physx@@3T__m128@@B 000000018004da20     VolumeIntegration.obj
 0003:00000a30       ?maxFError@_VecMathTests@aos@shdfnd@physx@@3T__m128@@B 000000018004da30     VolumeIntegration.obj
 0003:00000a60       ?maxV3Error@_VecMathTests@aos@shdfnd@physx@@3T__m128@@B 000000018004da60     Cooking.obj
 0003:00000a70       ?minFError@_VecMathTests@aos@shdfnd@physx@@3T__m128@@B 000000018004da70     Cooking.obj
 0003:00000a80       ?maxV4Error@_VecMathTests@aos@shdfnd@physx@@3T__m128@@B 000000018004da80     Cooking.obj
 0003:00000a90       ?minV4Error@_VecMathTests@aos@shdfnd@physx@@3T__m128@@B 000000018004da90     Cooking.obj
 0003:00000aa0       ?minV3Error@_VecMathTests@aos@shdfnd@physx@@3T__m128@@B 000000018004daa0     Cooking.obj
 0003:00000ab0       ?maxFError@_VecMathTests@aos@shdfnd@physx@@3T__m128@@B 000000018004dab0     Cooking.obj
 0003:00000b34       ?__proc_attached@@3HA      000000018004db34     MSVCRT:dll_dllmain.obj
 0003:00000b68       ?is_initialized_as_dll@@3_NA 000000018004db68     MSVCRT:utility.obj
 0003:00000b69       ?module_local_atexit_table_initialized@@3_NA 000000018004db69     MSVCRT:utility.obj
 0003:00000b70       ?module_local_atexit_table@@3U_onexit_table_t@@A 000000018004db70     MSVCRT:utility.obj
 0003:00000b88       ?module_local_at_quick_exit_table@@3U_onexit_table_t@@A 000000018004db88     MSVCRT:utility.obj
 0004:00000000       $pdata$?physXCommonDliNotePreLoadLibrary@Cm@physx@@YAP6A_JXZPEBDPEBVPxDelayLoadHook@2@@Z 000000018004e000     WindowsCookingDelayLoadHook.obj
 0004:0000000c       $pdata$?saveHeightField@physx@@YA_NAEBVHeightField@Gu@1@AEAVPxOutputStream@1@_N@Z 000000018004e00c     HeightFieldCooking.obj
 0004:00000018       $pdata$2$?saveHeightField@physx@@YA_NAEBVHeightField@Gu@1@AEAVPxOutputStream@1@_N@Z 000000018004e018     HeightFieldCooking.obj
 0004:00000024       $pdata$3$?saveHeightField@physx@@YA_NAEBVHeightField@Gu@1@AEAVPxOutputStream@1@_N@Z 000000018004e024     HeightFieldCooking.obj
 0004:00000030       $pdata$??_H@YAXPEAX_K1P6APEAX0@Z@Z 000000018004e030     RTreeCooking.obj
 0004:0000003c       $pdata$?buildFromTriangles@RTreeCooker@physx@@SAXAEAURTree@Gu@2@PEBVPxVec3@2@IPEBGPEBIIAEAV?$Array@IVNamedAllocator@shdfnd@physx@@@shdfnd@2@PEAURemapCallback@12@MW4Enum@PxMeshCookingHint@2@@Z 000000018004e03c     RTreeCooking.obj
 0004:00000048       $pdata$7$?buildFromTriangles@RTreeCooker@physx@@SAXAEAURTree@Gu@2@PEBVPxVec3@2@IPEBGPEBIIAEAV?$Array@IVNamedAllocator@shdfnd@physx@@@shdfnd@2@PEAURemapCallback@12@MW4Enum@PxMeshCookingHint@2@@Z 000000018004e048     RTreeCooking.obj
 0004:00000054       $pdata$8$?buildFromTriangles@RTreeCooker@physx@@SAXAEAURTree@Gu@2@PEBVPxVec3@2@IPEBGPEBIIAEAV?$Array@IVNamedAllocator@shdfnd@physx@@@shdfnd@2@PEAURemapCallback@12@MW4Enum@PxMeshCookingHint@2@@Z 000000018004e054     RTreeCooking.obj
 0004:00000060       $pdata$9$?buildFromTriangles@RTreeCooker@physx@@SAXAEAURTree@Gu@2@PEBVPxVec3@2@IPEBGPEBIIAEAV?$Array@IVNamedAllocator@shdfnd@physx@@@shdfnd@2@PEAURemapCallback@12@MW4Enum@PxMeshCookingHint@2@@Z 000000018004e060     RTreeCooking.obj
 0004:0000006c       $pdata$10$?buildFromTriangles@RTreeCooker@physx@@SAXAEAURTree@Gu@2@PEBVPxVec3@2@IPEBGPEBIIAEAV?$Array@IVNamedAllocator@shdfnd@physx@@@shdfnd@2@PEAURemapCallback@12@MW4Enum@PxMeshCookingHint@2@@Z 000000018004e06c     RTreeCooking.obj
 0004:00000078       $pdata$?buildFromBounds@physx@@YAXAEAURTree@Gu@1@PEBUPxBounds3V@1@IAEAV?$Array@IVNamedAllocator@shdfnd@physx@@@shdfnd@1@PEAURemapCallback@RTreeCooker@1@AEAT__m128@@4MW4Enum@PxMeshCookingHint@1@@Z 000000018004e078     RTreeCooking.obj
 0004:00000084       $pdata$?growAndPushBack@?$Array@UPxBounds3V@physx@@VNamedAllocator@shdfnd@2@@shdfnd@physx@@IEAAAEAUPxBounds3V@3@AEBU43@@Z 000000018004e084     RTreeCooking.obj
 0004:00000090       $pdata$?recreate@?$Array@UPxBounds3V@physx@@VNamedAllocator@shdfnd@2@@shdfnd@physx@@IEAAXI@Z 000000018004e090     RTreeCooking.obj
 0004:0000009c       $pdata$?resize@?$Array@IVNamedAllocator@shdfnd@physx@@@shdfnd@physx@@QEAAXIAEBI@Z 000000018004e09c     RTreeCooking.obj
 0004:000000a8       $pdata$?growAndPushBack@?$Array@IVNamedAllocator@shdfnd@physx@@@shdfnd@physx@@IEAAAEAIAEBI@Z 000000018004e0a8     RTreeCooking.obj
 0004:000000b4       $pdata$?recreate@?$Array@IVNamedAllocator@shdfnd@physx@@@shdfnd@physx@@IEAAXI@Z 000000018004e0b4     RTreeCooking.obj
 0004:000000c0       $pdata$0$?recreate@?$Array@IVNamedAllocator@shdfnd@physx@@@shdfnd@physx@@IEAAXI@Z 000000018004e0c0     RTreeCooking.obj
 0004:000000cc       $pdata$1$?recreate@?$Array@IVNamedAllocator@shdfnd@physx@@@shdfnd@physx@@IEAAXI@Z 000000018004e0cc     RTreeCooking.obj
 0004:000000d8       $pdata$?growAndPushBack@?$Array@VPxVec3@physx@@VNamedAllocator@shdfnd@2@@shdfnd@physx@@IEAAAEAVPxVec3@3@AEBV43@@Z 000000018004e0d8     RTreeCooking.obj
 0004:000000e4       $pdata$0$?growAndPushBack@?$Array@VPxVec3@physx@@VNamedAllocator@shdfnd@2@@shdfnd@physx@@IEAAAEAVPxVec3@3@AEBV43@@Z 000000018004e0e4     RTreeCooking.obj
 0004:000000f0       $pdata$1$?growAndPushBack@?$Array@VPxVec3@physx@@VNamedAllocator@shdfnd@2@@shdfnd@physx@@IEAAAEAVPxVec3@3@AEBV43@@Z 000000018004e0f0     RTreeCooking.obj
 0004:000000fc       $pdata$2$?growAndPushBack@?$Array@VPxVec3@physx@@VNamedAllocator@shdfnd@2@@shdfnd@physx@@IEAAAEAVPxVec3@3@AEBV43@@Z 000000018004e0fc     RTreeCooking.obj
 0004:00000108       $pdata$3$?growAndPushBack@?$Array@VPxVec3@physx@@VNamedAllocator@shdfnd@2@@shdfnd@physx@@IEAAAEAVPxVec3@3@AEBV43@@Z 000000018004e108     RTreeCooking.obj
 0004:00000114       $pdata$?recreate@?$Array@VPxVec3@physx@@VNamedAllocator@shdfnd@2@@shdfnd@physx@@IEAAXI@Z 000000018004e114     RTreeCooking.obj
 0004:00000120       $pdata$0$?recreate@?$Array@VPxVec3@physx@@VNamedAllocator@shdfnd@2@@shdfnd@physx@@IEAAXI@Z 000000018004e120     RTreeCooking.obj
 0004:0000012c       $pdata$1$?recreate@?$Array@VPxVec3@physx@@VNamedAllocator@shdfnd@2@@shdfnd@physx@@IEAAXI@Z 000000018004e12c     RTreeCooking.obj
 0004:00000138       $pdata$?sort4@SubSortQuick@physx@@QEAAXPEIAIIAEAV?$Array@URTreeNodeNQ@physx@@VNamedAllocator@shdfnd@2@@shdfnd@2@AEAIAEAUPxBounds3V@2@I@Z 000000018004e138     RTreeCooking.obj
 0004:00000144       $pdata$?resizeUninitialized@?$Array@URTreeNodeNQ@physx@@VNamedAllocator@shdfnd@2@@shdfnd@physx@@QEAAXI@Z 000000018004e144     RTreeCooking.obj
 0004:00000150       $pdata$?growAndPushBack@?$Array@URTreeNodeNQ@physx@@VNamedAllocator@shdfnd@2@@shdfnd@physx@@IEAAAEAURTreeNodeNQ@3@AEBU43@@Z 000000018004e150     RTreeCooking.obj
 0004:0000015c       $pdata$0$?growAndPushBack@?$Array@URTreeNodeNQ@physx@@VNamedAllocator@shdfnd@2@@shdfnd@physx@@IEAAAEAURTreeNodeNQ@3@AEBU43@@Z 000000018004e15c     RTreeCooking.obj
 0004:00000168       $pdata$1$?growAndPushBack@?$Array@URTreeNodeNQ@physx@@VNamedAllocator@shdfnd@2@@shdfnd@physx@@IEAAAEAURTreeNodeNQ@3@AEBU43@@Z 000000018004e168     RTreeCooking.obj
 0004:00000174       $pdata$2$?growAndPushBack@?$Array@URTreeNodeNQ@physx@@VNamedAllocator@shdfnd@2@@shdfnd@physx@@IEAAAEAURTreeNodeNQ@3@AEBU43@@Z 000000018004e174     RTreeCooking.obj
 0004:00000180       $pdata$3$?growAndPushBack@?$Array@URTreeNodeNQ@physx@@VNamedAllocator@shdfnd@2@@shdfnd@physx@@IEAAAEAURTreeNodeNQ@3@AEBU43@@Z 000000018004e180     RTreeCooking.obj
 0004:0000018c       $pdata$?recreate@?$Array@URTreeNodeNQ@physx@@VNamedAllocator@shdfnd@2@@shdfnd@physx@@IEAAXI@Z 000000018004e18c     RTreeCooking.obj
 0004:00000198       $pdata$0$?recreate@?$Array@URTreeNodeNQ@physx@@VNamedAllocator@shdfnd@2@@shdfnd@physx@@IEAAXI@Z 000000018004e198     RTreeCooking.obj
 0004:000001a4       $pdata$1$?recreate@?$Array@URTreeNodeNQ@physx@@VNamedAllocator@shdfnd@2@@shdfnd@physx@@IEAAXI@Z 000000018004e1a4     RTreeCooking.obj
 0004:000001b0       $pdata$??$quickSelectFirstK@UBoundsLTE@physx@@@quickSelect@physx@@YAXPEIAIIIIAEBUBoundsLTE@1@@Z 000000018004e1b0     RTreeCooking.obj
 0004:000001bc       $pdata$?split@SubSortSAH@physx@@QEAAIPEAII@Z 000000018004e1bc     RTreeCooking.obj
 0004:000001c8       $pdata$4$?split@SubSortSAH@physx@@QEAAIPEAII@Z 000000018004e1c8     RTreeCooking.obj
 0004:000001d4       $pdata$5$?split@SubSortSAH@physx@@QEAAIPEAII@Z 000000018004e1d4     RTreeCooking.obj
 0004:000001e0       $pdata$6$?split@SubSortSAH@physx@@QEAAIPEAII@Z 000000018004e1e0     RTreeCooking.obj
 0004:000001ec       $pdata$7$?split@SubSortSAH@physx@@QEAAIPEAII@Z 000000018004e1ec     RTreeCooking.obj
 0004:000001f8       $pdata$?sort4@SubSortSAH@physx@@QEAAXPEAIIAEAV?$Array@URTreeNodeNQ@physx@@VNamedAllocator@shdfnd@2@@shdfnd@2@AEAIIPEAURTreeNodeNQ@2@@Z 000000018004e1f8     RTreeCooking.obj
 0004:00000204       $pdata$??$sort@I@shdfnd@physx@@YAXPEAII@Z 000000018004e204     RTreeCooking.obj
 0004:00000210       $pdata$?allocate@?$Array@UInterval@physx@@V?$InlineAllocator@$0CAAA@VNamedAllocator@shdfnd@physx@@@shdfnd@2@@shdfnd@physx@@IEAAPEAUInterval@3@I@Z 000000018004e210     RTreeCooking.obj
 0004:0000021c       $pdata$?growAndPushBack@?$Array@UInterval@physx@@V?$InlineAllocator@$0CAAA@VNamedAllocator@shdfnd@physx@@@shdfnd@2@@shdfnd@physx@@IEAAAEAUInterval@3@AEBU43@@Z 000000018004e21c     RTreeCooking.obj
 0004:00000228       $pdata$??0?$InlineArray@UInterval@physx@@$0EAA@VNamedAllocator@shdfnd@2@@shdfnd@physx@@QEAA@AEBVNamedAllocator@12@@Z 000000018004e228     RTreeCooking.obj
 0004:00000234       $pdata$??$sort@IUSortBoundsPredicate@physx@@@shdfnd@physx@@YAXPEAIIAEBUSortBoundsPredicate@1@@Z 000000018004e234     RTreeCooking.obj
 0004:00000240       $pdata$?growAndPushBack@?$Array@URTreeNodeQ@Gu@physx@@VNamedAllocator@shdfnd@3@@shdfnd@physx@@IEAAAEAURTreeNodeQ@Gu@3@AEBU453@@Z 000000018004e240     RTreeCooking.obj
 0004:0000024c       $pdata$?recreate@?$Array@URTreeNodeQ@Gu@physx@@VNamedAllocator@shdfnd@3@@shdfnd@physx@@IEAAXI@Z 000000018004e24c     RTreeCooking.obj
 0004:00000258       $pdata$??$partition@UBoundsLTE@physx@@@quickSelect@physx@@YAIPEIAIIIIAEBUBoundsLTE@1@@Z 000000018004e258     RTreeCooking.obj
 0004:00000264       $pdata$2$??$partition@UBoundsLTE@physx@@@quickSelect@physx@@YAIPEIAIIIIAEBUBoundsLTE@1@@Z 000000018004e264     RTreeCooking.obj
 0004:00000270       $pdata$3$??$partition@UBoundsLTE@physx@@@quickSelect@physx@@YAIPEIAIIIIAEBUBoundsLTE@1@@Z 000000018004e270     RTreeCooking.obj
 0004:0000027c       $pdata$??$sort@IU?$Less@I@shdfnd@physx@@VNamedAllocator@23@@shdfnd@physx@@YAXPEAIIAEBU?$Less@I@01@AEBVNamedAllocator@01@I@Z 000000018004e27c     RTreeCooking.obj
 0004:00000288       $pdata$??$sort@IUSortBoundsPredicate@physx@@VNamedAllocator@shdfnd@2@@shdfnd@physx@@YAXPEAIIAEBUSortBoundsPredicate@1@AEBVNamedAllocator@01@I@Z 000000018004e288     RTreeCooking.obj
 0004:00000294       $pdata$??$smallSort@I$$CBUSortBoundsPredicate@physx@@@internal@shdfnd@physx@@YAXPEAIHHAEBUSortBoundsPredicate@2@@Z 000000018004e294     RTreeCooking.obj
 0004:000002a0       $pdata$5$??$smallSort@I$$CBUSortBoundsPredicate@physx@@@internal@shdfnd@physx@@YAXPEAIHHAEBUSortBoundsPredicate@2@@Z 000000018004e2a0     RTreeCooking.obj
 0004:000002ac       $pdata$6$??$smallSort@I$$CBUSortBoundsPredicate@physx@@@internal@shdfnd@physx@@YAXPEAIHHAEBUSortBoundsPredicate@2@@Z 000000018004e2ac     RTreeCooking.obj
 0004:000002b8       $pdata$??1TriangleMeshData@Gu@physx@@UEAA@XZ 000000018004e2b8     TriangleMeshBuilder.obj
 0004:000002c4       $pdata$?allocateVertices@TriangleMeshData@Gu@physx@@QEAAPEAVPxVec3@3@I@Z 000000018004e2c4     TriangleMeshBuilder.obj
 0004:000002d0       $pdata$?allocateTriangles@TriangleMeshData@Gu@physx@@QEAAPEAXI_NI@Z 000000018004e2d0     TriangleMeshBuilder.obj
 0004:000002dc       $pdata$??_GTriangleMeshData@Gu@physx@@UEAAPEAXI@Z 000000018004e2dc     TriangleMeshBuilder.obj
 0004:000002e8       $pdata$??$?_UG@@YAPEAX_KV?$ReflectionAllocator@G@shdfnd@physx@@PEBDH@Z 000000018004e2e8     TriangleMeshBuilder.obj
 0004:000002f4       $pdata$0$??$?_UG@@YAPEAX_KV?$ReflectionAllocator@G@shdfnd@physx@@PEBDH@Z 000000018004e2f4     TriangleMeshBuilder.obj
 0004:00000300       $pdata$1$??$?_UG@@YAPEAX_KV?$ReflectionAllocator@G@shdfnd@physx@@PEBDH@Z 000000018004e300     TriangleMeshBuilder.obj
 0004:0000030c       $pdata$??$?_UI@@YAPEAX_KV?$ReflectionAllocator@I@shdfnd@physx@@PEBDH@Z 000000018004e30c     TriangleMeshBuilder.obj
 0004:00000318       $pdata$0$??$?_UI@@YAPEAX_KV?$ReflectionAllocator@I@shdfnd@physx@@PEBDH@Z 000000018004e318     TriangleMeshBuilder.obj
 0004:00000324       $pdata$1$??$?_UI@@YAPEAX_KV?$ReflectionAllocator@I@shdfnd@physx@@PEBDH@Z 000000018004e324     TriangleMeshBuilder.obj
 0004:00000330       $pdata$??1RTreeTriangleData@Gu@physx@@UEAA@XZ 000000018004e330     TriangleMeshBuilder.obj
 0004:0000033c       $pdata$0$??1RTreeTriangleData@Gu@physx@@UEAA@XZ 000000018004e33c     TriangleMeshBuilder.obj
 0004:00000348       $pdata$1$??1RTreeTriangleData@Gu@physx@@UEAA@XZ 000000018004e348     TriangleMeshBuilder.obj
 0004:00000354       $pdata$??_GRTreeTriangleData@Gu@physx@@UEAAPEAXI@Z 000000018004e354     TriangleMeshBuilder.obj
 0004:00000360       $pdata$??1BV4TriangleData@Gu@physx@@UEAA@XZ 000000018004e360     TriangleMeshBuilder.obj
 0004:0000036c       $pdata$??_GBV4TriangleData@Gu@physx@@UEAAPEAXI@Z 000000018004e36c     TriangleMeshBuilder.obj
 0004:00000378       $pdata$??_GRemapCallback@RTreeCooker@physx@@UEAAPEAXI@Z 000000018004e378     TriangleMeshBuilder.obj
 0004:00000384       $pdata$??1TriangleMeshBuilder@physx@@UEAA@XZ 000000018004e384     TriangleMeshBuilder.obj
 0004:00000390       $pdata$?cleanMesh@TriangleMeshBuilder@physx@@QEAA_N_NPEAW4Enum@PxTriangleMeshCookingResult@2@@Z 000000018004e390     TriangleMeshBuilder.obj
 0004:0000039c       $pdata$1$?cleanMesh@TriangleMeshBuilder@physx@@QEAA_N_NPEAW4Enum@PxTriangleMeshCookingResult@2@@Z 000000018004e39c     TriangleMeshBuilder.obj
 0004:000003a8       $pdata$2$?cleanMesh@TriangleMeshBuilder@physx@@QEAA_N_NPEAW4Enum@PxTriangleMeshCookingResult@2@@Z 000000018004e3a8     TriangleMeshBuilder.obj
 0004:000003b4       $pdata$3$?cleanMesh@TriangleMeshBuilder@physx@@QEAA_N_NPEAW4Enum@PxTriangleMeshCookingResult@2@@Z 000000018004e3b4     TriangleMeshBuilder.obj
 0004:000003c0       $pdata$7$?cleanMesh@TriangleMeshBuilder@physx@@QEAA_N_NPEAW4Enum@PxTriangleMeshCookingResult@2@@Z 000000018004e3c0     TriangleMeshBuilder.obj
 0004:000003cc       $pdata$4$?cleanMesh@TriangleMeshBuilder@physx@@QEAA_N_NPEAW4Enum@PxTriangleMeshCookingResult@2@@Z 000000018004e3cc     TriangleMeshBuilder.obj
 0004:000003d8       $pdata$8$?cleanMesh@TriangleMeshBuilder@physx@@QEAA_N_NPEAW4Enum@PxTriangleMeshCookingResult@2@@Z 000000018004e3d8     TriangleMeshBuilder.obj
 0004:000003e4       $pdata$?remapTopology@TriangleMeshBuilder@physx@@QEAAXPEBI@Z 000000018004e3e4     TriangleMeshBuilder.obj
 0004:000003f0       $pdata$1$?remapTopology@TriangleMeshBuilder@physx@@QEAAXPEBI@Z 000000018004e3f0     TriangleMeshBuilder.obj
 0004:000003fc       $pdata$2$?remapTopology@TriangleMeshBuilder@physx@@QEAAXPEBI@Z 000000018004e3fc     TriangleMeshBuilder.obj
 0004:00000408       $pdata$3$?remapTopology@TriangleMeshBuilder@physx@@QEAAXPEBI@Z 000000018004e408     TriangleMeshBuilder.obj
 0004:00000414       $pdata$4$?remapTopology@TriangleMeshBuilder@physx@@QEAAXPEBI@Z 000000018004e414     TriangleMeshBuilder.obj
 0004:00000420       $pdata$?createSharedEdgeData@TriangleMeshBuilder@physx@@QEAAX_N0@Z 000000018004e420     TriangleMeshBuilder.obj
 0004:0000042c       $pdata$3$?createSharedEdgeData@TriangleMeshBuilder@physx@@QEAAX_N0@Z 000000018004e42c     TriangleMeshBuilder.obj
 0004:00000438       $pdata$4$?createSharedEdgeData@TriangleMeshBuilder@physx@@QEAAX_N0@Z 000000018004e438     TriangleMeshBuilder.obj
 0004:00000444       $pdata$5$?createSharedEdgeData@TriangleMeshBuilder@physx@@QEAAX_N0@Z 000000018004e444     TriangleMeshBuilder.obj
 0004:00000450       $pdata$6$?createSharedEdgeData@TriangleMeshBuilder@physx@@QEAAX_N0@Z 000000018004e450     TriangleMeshBuilder.obj
 0004:0000045c       $pdata$?recordTriangleIndices@TriangleMeshBuilder@physx@@QEAAXXZ 000000018004e45c     TriangleMeshBuilder.obj
 0004:00000468       $pdata$?createGRBMidPhaseAndData@TriangleMeshBuilder@physx@@QEAAXI@Z 000000018004e468     TriangleMeshBuilder.obj
 0004:00000474       $pdata$0$?createGRBMidPhaseAndData@TriangleMeshBuilder@physx@@QEAAXI@Z 000000018004e474     TriangleMeshBuilder.obj
 0004:00000480       $pdata$1$?createGRBMidPhaseAndData@TriangleMeshBuilder@physx@@QEAAXI@Z 000000018004e480     TriangleMeshBuilder.obj
 0004:0000048c       $pdata$4$?createGRBMidPhaseAndData@TriangleMeshBuilder@physx@@QEAAXI@Z 000000018004e48c     TriangleMeshBuilder.obj
 0004:00000498       $pdata$5$?createGRBMidPhaseAndData@TriangleMeshBuilder@physx@@QEAAXI@Z 000000018004e498     TriangleMeshBuilder.obj
 0004:000004a4       $pdata$6$?createGRBMidPhaseAndData@TriangleMeshBuilder@physx@@QEAAXI@Z 000000018004e4a4     TriangleMeshBuilder.obj
 0004:000004b0       $pdata$7$?createGRBMidPhaseAndData@TriangleMeshBuilder@physx@@QEAAXI@Z 000000018004e4b0     TriangleMeshBuilder.obj
 0004:000004bc       $pdata$8$?createGRBMidPhaseAndData@TriangleMeshBuilder@physx@@QEAAXI@Z 000000018004e4bc     TriangleMeshBuilder.obj
 0004:000004c8       $pdata$?createGRBData@TriangleMeshBuilder@physx@@QEAAXXZ 000000018004e4c8     TriangleMeshBuilder.obj
 0004:000004d4       $pdata$?loadFromDesc@TriangleMeshBuilder@physx@@QEAA_NAEBVPxTriangleMeshDesc@2@PEAW4Enum@PxTriangleMeshCookingResult@2@_N@Z 000000018004e4d4     TriangleMeshBuilder.obj
 0004:000004e0       $pdata$0$?loadFromDesc@TriangleMeshBuilder@physx@@QEAA_NAEBVPxTriangleMeshDesc@2@PEAW4Enum@PxTriangleMeshCookingResult@2@_N@Z 000000018004e4e0     TriangleMeshBuilder.obj
 0004:000004ec       $pdata$2$?loadFromDesc@TriangleMeshBuilder@physx@@QEAA_NAEBVPxTriangleMeshDesc@2@PEAW4Enum@PxTriangleMeshCookingResult@2@_N@Z 000000018004e4ec     TriangleMeshBuilder.obj
 0004:000004f8       $pdata$3$?loadFromDesc@TriangleMeshBuilder@physx@@QEAA_NAEBVPxTriangleMeshDesc@2@PEAW4Enum@PxTriangleMeshCookingResult@2@_N@Z 000000018004e4f8     TriangleMeshBuilder.obj
 0004:00000504       $pdata$4$?loadFromDesc@TriangleMeshBuilder@physx@@QEAA_NAEBVPxTriangleMeshDesc@2@PEAW4Enum@PxTriangleMeshCookingResult@2@_N@Z 000000018004e504     TriangleMeshBuilder.obj
 0004:00000510       $pdata$5$?loadFromDesc@TriangleMeshBuilder@physx@@QEAA_NAEBVPxTriangleMeshDesc@2@PEAW4Enum@PxTriangleMeshCookingResult@2@_N@Z 000000018004e510     TriangleMeshBuilder.obj
 0004:0000051c       $pdata$7$?loadFromDesc@TriangleMeshBuilder@physx@@QEAA_NAEBVPxTriangleMeshDesc@2@PEAW4Enum@PxTriangleMeshCookingResult@2@_N@Z 000000018004e51c     TriangleMeshBuilder.obj
 0004:00000528       $pdata$8$?loadFromDesc@TriangleMeshBuilder@physx@@QEAA_NAEBVPxTriangleMeshDesc@2@PEAW4Enum@PxTriangleMeshCookingResult@2@_N@Z 000000018004e528     TriangleMeshBuilder.obj
 0004:00000534       $pdata$?save@TriangleMeshBuilder@physx@@QEBA_NAEAVPxOutputStream@2@_NAEBUPxCookingParams@2@@Z 000000018004e534     TriangleMeshBuilder.obj
 0004:00000540       $pdata$3$?save@TriangleMeshBuilder@physx@@QEBA_NAEAVPxOutputStream@2@_NAEBUPxCookingParams@2@@Z 000000018004e540     TriangleMeshBuilder.obj
 0004:0000054c       $pdata$?checkMeshIndicesSize@TriangleMeshBuilder@physx@@QEAAXXZ 000000018004e54c     TriangleMeshBuilder.obj
 0004:00000558       $pdata$1$?checkMeshIndicesSize@TriangleMeshBuilder@physx@@QEAAXXZ 000000018004e558     TriangleMeshBuilder.obj
 0004:00000564       $pdata$2$?checkMeshIndicesSize@TriangleMeshBuilder@physx@@QEAAXXZ 000000018004e564     TriangleMeshBuilder.obj
 0004:00000570       $pdata$3$?checkMeshIndicesSize@TriangleMeshBuilder@physx@@QEAAXXZ 000000018004e570     TriangleMeshBuilder.obj
 0004:0000057c       $pdata$4$?checkMeshIndicesSize@TriangleMeshBuilder@physx@@QEAAXXZ 000000018004e57c     TriangleMeshBuilder.obj
 0004:00000588       $pdata$?computeLocalBounds@TriangleMeshBuilder@physx@@IEAAXXZ 000000018004e588     TriangleMeshBuilder.obj
 0004:00000594       $pdata$?importMesh@TriangleMeshBuilder@physx@@IEAA_NAEBVPxTriangleMeshDesc@2@AEBUPxCookingParams@2@PEAW4Enum@PxTriangleMeshCookingResult@2@_N@Z 000000018004e594     TriangleMeshBuilder.obj
 0004:000005a0       $pdata$?releaseEdgeList@TriangleMeshBuilder@physx@@IEAAXXZ 000000018004e5a0     TriangleMeshBuilder.obj
 0004:000005ac       $pdata$?createEdgeList@TriangleMeshBuilder@physx@@IEAAXXZ 000000018004e5ac     TriangleMeshBuilder.obj
 0004:000005b8       $pdata$??1RTreeTriangleMeshBuilder@physx@@UEAA@XZ 000000018004e5b8     TriangleMeshBuilder.obj
 0004:000005c4       $pdata$?createMidPhaseStructure@RTreeTriangleMeshBuilder@physx@@UEAAXXZ 000000018004e5c4     TriangleMeshBuilder.obj
 0004:000005d0       $pdata$?saveMidPhaseStructure@RTreeTriangleMeshBuilder@physx@@UEBAXAEAVPxOutputStream@2@_N@Z 000000018004e5d0     TriangleMeshBuilder.obj
 0004:000005dc       $pdata$0$?saveMidPhaseStructure@RTreeTriangleMeshBuilder@physx@@UEBAXAEAVPxOutputStream@2@_N@Z 000000018004e5dc     TriangleMeshBuilder.obj
 0004:000005e8       $pdata$1$?saveMidPhaseStructure@RTreeTriangleMeshBuilder@physx@@UEBAXAEAVPxOutputStream@2@_N@Z 000000018004e5e8     TriangleMeshBuilder.obj
 0004:000005f4       $pdata$??0BV4TriangleMeshBuilder@physx@@QEAA@AEBUPxCookingParams@1@@Z 000000018004e5f4     TriangleMeshBuilder.obj
 0004:00000600       $pdata$??1BV4TriangleMeshBuilder@physx@@UEAA@XZ 000000018004e600     TriangleMeshBuilder.obj
 0004:0000060c       $pdata$?createMidPhaseStructure@BV4TriangleMeshBuilder@physx@@UEAAXXZ 000000018004e60c     TriangleMeshBuilder.obj
 0004:00000618       $pdata$2$?createMidPhaseStructure@BV4TriangleMeshBuilder@physx@@UEAAXXZ 000000018004e618     TriangleMeshBuilder.obj
 0004:00000624       $pdata$3$?createMidPhaseStructure@BV4TriangleMeshBuilder@physx@@UEAAXXZ 000000018004e624     TriangleMeshBuilder.obj
 0004:00000630       $pdata$4$?createMidPhaseStructure@BV4TriangleMeshBuilder@physx@@UEAAXXZ 000000018004e630     TriangleMeshBuilder.obj
 0004:0000063c       $pdata$5$?createMidPhaseStructure@BV4TriangleMeshBuilder@physx@@UEAAXXZ 000000018004e63c     TriangleMeshBuilder.obj
 0004:00000648       $pdata$?saveMidPhaseStructure@BV4TriangleMeshBuilder@physx@@UEBAXAEAVPxOutputStream@2@_N@Z 000000018004e648     TriangleMeshBuilder.obj
 0004:00000654       $pdata$0$?saveMidPhaseStructure@BV4TriangleMeshBuilder@physx@@UEBAXAEAVPxOutputStream@2@_N@Z 000000018004e654     TriangleMeshBuilder.obj
 0004:00000660       $pdata$1$?saveMidPhaseStructure@BV4TriangleMeshBuilder@physx@@UEBAXAEAVPxOutputStream@2@_N@Z 000000018004e660     TriangleMeshBuilder.obj
 0004:0000066c       $pdata$?createMidPhaseStructure@BV32TriangleMeshBuilder@physx@@SAXAEBUPxCookingParams@2@AEAVTriangleMeshData@Gu@2@AEAVBV32Tree@52@@Z 000000018004e66c     TriangleMeshBuilder.obj
 0004:00000678       $pdata$?saveMidPhaseStructure@BV32TriangleMeshBuilder@physx@@SAXPEAVBV32Tree@Gu@2@AEAVPxOutputStream@2@_N@Z 000000018004e678     TriangleMeshBuilder.obj
 0004:00000684       $pdata$1$?saveMidPhaseStructure@BV32TriangleMeshBuilder@physx@@SAXPEAVBV32Tree@Gu@2@AEAVPxOutputStream@2@_N@Z 000000018004e684     TriangleMeshBuilder.obj
 0004:00000690       $pdata$2$?saveMidPhaseStructure@BV32TriangleMeshBuilder@physx@@SAXPEAVBV32Tree@Gu@2@AEAVPxOutputStream@2@_N@Z 000000018004e690     TriangleMeshBuilder.obj
 0004:0000069c       $pdata$?findSharpVertices@GrbTrimeshCookerHelper@physx@@YAXAEAV?$Array@USortedNeighbor@GrbTrimeshCookerHelper@physx@@VNamedAllocator@shdfnd@3@@shdfnd@2@AEAV?$Array@USharpEdgeRange@GrbTrimeshCookerHelper@physx@@VNamedAllocator@shdfnd@3@@42@PEBUuint3@2@PEBUuint4@2@II@Z 000000018004e69c     TriangleMeshBuilder.obj
 0004:000006a8       $pdata$0$?findSharpVertices@GrbTrimeshCookerHelper@physx@@YAXAEAV?$Array@USortedNeighbor@GrbTrimeshCookerHelper@physx@@VNamedAllocator@shdfnd@3@@shdfnd@2@AEAV?$Array@USharpEdgeRange@GrbTrimeshCookerHelper@physx@@VNamedAllocator@shdfnd@3@@42@PEBUuint3@2@PEBUuint4@2@II@Z 000000018004e6a8     TriangleMeshBuilder.obj
 0004:000006b4       $pdata$1$?findSharpVertices@GrbTrimeshCookerHelper@physx@@YAXAEAV?$Array@USortedNeighbor@GrbTrimeshCookerHelper@physx@@VNamedAllocator@shdfnd@3@@shdfnd@2@AEAV?$Array@USharpEdgeRange@GrbTrimeshCookerHelper@physx@@VNamedAllocator@shdfnd@3@@42@PEBUuint3@2@PEBUuint4@2@II@Z 000000018004e6b4     TriangleMeshBuilder.obj
 0004:000006c0       $pdata$2$?findSharpVertices@GrbTrimeshCookerHelper@physx@@YAXAEAV?$Array@USortedNeighbor@GrbTrimeshCookerHelper@physx@@VNamedAllocator@shdfnd@3@@shdfnd@2@AEAV?$Array@USharpEdgeRange@GrbTrimeshCookerHelper@physx@@VNamedAllocator@shdfnd@3@@42@PEBUuint3@2@PEBUuint4@2@II@Z 000000018004e6c0     TriangleMeshBuilder.obj
 0004:000006cc       $pdata$3$?findSharpVertices@GrbTrimeshCookerHelper@physx@@YAXAEAV?$Array@USortedNeighbor@GrbTrimeshCookerHelper@physx@@VNamedAllocator@shdfnd@3@@shdfnd@2@AEAV?$Array@USharpEdgeRange@GrbTrimeshCookerHelper@physx@@VNamedAllocator@shdfnd@3@@42@PEBUuint3@2@PEBUuint4@2@II@Z 000000018004e6cc     TriangleMeshBuilder.obj
 0004:000006d8       $pdata$?buildVertexConnectionNew_p1@GrbTrimeshCookerHelper@physx@@YAIAEAV?$Array@USortedNeighbor@GrbTrimeshCookerHelper@physx@@VNamedAllocator@shdfnd@3@@shdfnd@2@AEAV?$Array@USharpEdgeRange@GrbTrimeshCookerHelper@physx@@VNamedAllocator@shdfnd@3@@42@PEBUuint3@2@PEBUuint4@2@II@Z 000000018004e6d8     TriangleMeshBuilder.obj
 0004:000006e4       $pdata$1$?buildVertexConnectionNew_p1@GrbTrimeshCookerHelper@physx@@YAIAEAV?$Array@USortedNeighbor@GrbTrimeshCookerHelper@physx@@VNamedAllocator@shdfnd@3@@shdfnd@2@AEAV?$Array@USharpEdgeRange@GrbTrimeshCookerHelper@physx@@VNamedAllocator@shdfnd@3@@42@PEBUuint3@2@PEBUuint4@2@II@Z 000000018004e6e4     TriangleMeshBuilder.obj
 0004:000006f0       $pdata$2$?buildVertexConnectionNew_p1@GrbTrimeshCookerHelper@physx@@YAIAEAV?$Array@USortedNeighbor@GrbTrimeshCookerHelper@physx@@VNamedAllocator@shdfnd@3@@shdfnd@2@AEAV?$Array@USharpEdgeRange@GrbTrimeshCookerHelper@physx@@VNamedAllocator@shdfnd@3@@42@PEBUuint3@2@PEBUuint4@2@II@Z 000000018004e6f0     TriangleMeshBuilder.obj
 0004:000006fc       $pdata$?buildVertexConnectionNew_p2@GrbTrimeshCookerHelper@physx@@YAXPEAI00AEAV?$Array@USortedNeighbor@GrbTrimeshCookerHelper@physx@@VNamedAllocator@shdfnd@3@@shdfnd@2@AEAV?$Array@USharpEdgeRange@GrbTrimeshCookerHelper@physx@@VNamedAllocator@shdfnd@3@@42@I@Z 000000018004e6fc     TriangleMeshBuilder.obj
 0004:00000708       $pdata$2$?buildVertexConnectionNew_p2@GrbTrimeshCookerHelper@physx@@YAXPEAI00AEAV?$Array@USortedNeighbor@GrbTrimeshCookerHelper@physx@@VNamedAllocator@shdfnd@3@@shdfnd@2@AEAV?$Array@USharpEdgeRange@GrbTrimeshCookerHelper@physx@@VNamedAllocator@shdfnd@3@@42@I@Z 000000018004e708     TriangleMeshBuilder.obj
 0004:00000714       $pdata$3$?buildVertexConnectionNew_p2@GrbTrimeshCookerHelper@physx@@YAXPEAI00AEAV?$Array@USortedNeighbor@GrbTrimeshCookerHelper@physx@@VNamedAllocator@shdfnd@3@@shdfnd@2@AEAV?$Array@USharpEdgeRange@GrbTrimeshCookerHelper@physx@@VNamedAllocator@shdfnd@3@@42@I@Z 000000018004e714     TriangleMeshBuilder.obj
 0004:00000720       $pdata$??_GTriangleMeshBuilder@physx@@UEAAPEAXI@Z 000000018004e720     TriangleMeshBuilder.obj
 0004:0000072c       $pdata$??_GRTreeTriangleMeshBuilder@physx@@UEAAPEAXI@Z 000000018004e72c     TriangleMeshBuilder.obj
 0004:00000738       $pdata$??_GBV4TriangleMeshBuilder@physx@@UEAAPEAXI@Z 000000018004e738     TriangleMeshBuilder.obj
 0004:00000744       $pdata$?findAdjacent@physx@@YAIPEBVPxVec3@1@0PEBUuint3@1@IIIAEBVPxPlane@1@PEAUEdgeTriLookup@1@I@Z 000000018004e744     TriangleMeshBuilder.obj
 0004:00000750       $pdata$?buildAdjacencies@physx@@YAXPEAUuint4@1@PEAVPxVec3@1@PEBV31@PEBUuint3@1@I@Z 000000018004e750     TriangleMeshBuilder.obj
 0004:0000075c       $pdata$7$?buildAdjacencies@physx@@YAXPEAUuint4@1@PEAVPxVec3@1@PEBV31@PEBUuint3@1@I@Z 000000018004e75c     TriangleMeshBuilder.obj
 0004:00000768       $pdata$11$?buildAdjacencies@physx@@YAXPEAUuint4@1@PEAVPxVec3@1@PEBV31@PEBUuint3@1@I@Z 000000018004e768     TriangleMeshBuilder.obj
 0004:00000774       $pdata$12$?buildAdjacencies@physx@@YAXPEAUuint4@1@PEAVPxVec3@1@PEBV31@PEBUuint3@1@I@Z 000000018004e774     TriangleMeshBuilder.obj
 0004:00000780       $pdata$13$?buildAdjacencies@physx@@YAXPEAUuint4@1@PEAVPxVec3@1@PEBV31@PEBUuint3@1@I@Z 000000018004e780     TriangleMeshBuilder.obj
 0004:0000078c       $pdata$??$sort@UEdgeTriLookup@physx@@@shdfnd@physx@@YAXPEAUEdgeTriLookup@1@I@Z 000000018004e78c     TriangleMeshBuilder.obj
 0004:00000798       $pdata$?resizeUninitialized@?$Array@USortedNeighbor@GrbTrimeshCookerHelper@physx@@VNamedAllocator@shdfnd@3@@shdfnd@physx@@QEAAXI@Z 000000018004e798     TriangleMeshBuilder.obj
 0004:000007a4       $pdata$?growAndPushBack@?$Array@USortedNeighbor@GrbTrimeshCookerHelper@physx@@VNamedAllocator@shdfnd@3@@shdfnd@physx@@IEAAAEAUSortedNeighbor@GrbTrimeshCookerHelper@3@AEBU453@@Z 000000018004e7a4     TriangleMeshBuilder.obj
 0004:000007b0       $pdata$?recreate@?$Array@USortedNeighbor@GrbTrimeshCookerHelper@physx@@VNamedAllocator@shdfnd@3@@shdfnd@physx@@IEAAXI@Z 000000018004e7b0     TriangleMeshBuilder.obj
 0004:000007bc       $pdata$??$sort@USortedNeighbor@GrbTrimeshCookerHelper@physx@@@shdfnd@physx@@YAXPEAUSortedNeighbor@GrbTrimeshCookerHelper@1@I@Z 000000018004e7bc     TriangleMeshBuilder.obj
 0004:000007c8       $pdata$?resize@?$Array@USharpEdgeRange@GrbTrimeshCookerHelper@physx@@VNamedAllocator@shdfnd@3@@shdfnd@physx@@QEAAXIAEBUSharpEdgeRange@GrbTrimeshCookerHelper@3@@Z 000000018004e7c8     TriangleMeshBuilder.obj
 0004:000007d4       $pdata$?recreate@?$Array@USharpEdgeRange@GrbTrimeshCookerHelper@physx@@VNamedAllocator@shdfnd@3@@shdfnd@physx@@IEAAXI@Z 000000018004e7d4     TriangleMeshBuilder.obj
 0004:000007e0       $pdata$0$?recreate@?$Array@USharpEdgeRange@GrbTrimeshCookerHelper@physx@@VNamedAllocator@shdfnd@3@@shdfnd@physx@@IEAAXI@Z 000000018004e7e0     TriangleMeshBuilder.obj
 0004:000007ec       $pdata$1$?recreate@?$Array@USharpEdgeRange@GrbTrimeshCookerHelper@physx@@VNamedAllocator@shdfnd@3@@shdfnd@physx@@IEAAXI@Z 000000018004e7ec     TriangleMeshBuilder.obj
 0004:000007f8       $pdata$??_GRTreeCookerRemap@physx@@UEAAPEAXI@Z 000000018004e7f8     TriangleMeshBuilder.obj
 0004:00000804       $pdata$??$sort@UEdgeTriLookup@physx@@U?$Less@UEdgeTriLookup@physx@@@shdfnd@2@VNamedAllocator@42@@shdfnd@physx@@YAXPEAUEdgeTriLookup@1@IAEBU?$Less@UEdgeTriLookup@physx@@@01@AEBVNamedAllocator@01@I@Z 000000018004e804     TriangleMeshBuilder.obj
 0004:00000810       $pdata$??$sort@USortedNeighbor@GrbTrimeshCookerHelper@physx@@U?$Less@USortedNeighbor@GrbTrimeshCookerHelper@physx@@@shdfnd@3@VNamedAllocator@53@@shdfnd@physx@@YAXPEAUSortedNeighbor@GrbTrimeshCookerHelper@1@IAEBU?$Less@USortedNeighbor@GrbTrimeshCookerHelper@physx@@@01@AEBVNamedAllocator@01@I@Z 000000018004e810     TriangleMeshBuilder.obj
 0004:0000081c       $pdata$?precompute@BigConvexDataBuilder@physx@@QEAA_NI@Z 000000018004e81c     BigConvexDataBuilder.obj
 0004:00000828       $pdata$10$?precompute@BigConvexDataBuilder@physx@@QEAA_NI@Z 000000018004e828     BigConvexDataBuilder.obj
 0004:00000834       $pdata$11$?precompute@BigConvexDataBuilder@physx@@QEAA_NI@Z 000000018004e834     BigConvexDataBuilder.obj
 0004:00000840       $pdata$?initialize@BigConvexDataBuilder@physx@@QEAA_NXZ 000000018004e840     BigConvexDataBuilder.obj
 0004:0000084c       $pdata$0$?initialize@BigConvexDataBuilder@physx@@QEAA_NXZ 000000018004e84c     BigConvexDataBuilder.obj
 0004:00000858       $pdata$1$?initialize@BigConvexDataBuilder@physx@@QEAA_NXZ 000000018004e858     BigConvexDataBuilder.obj
 0004:00000864       $pdata$?save@BigConvexDataBuilder@physx@@QEBA_NAEAVPxOutputStream@2@_N@Z 000000018004e864     BigConvexDataBuilder.obj
 0004:00000870       $pdata$0$?save@BigConvexDataBuilder@physx@@QEBA_NAEAVPxOutputStream@2@_N@Z 000000018004e870     BigConvexDataBuilder.obj
 0004:0000087c       $pdata$1$?save@BigConvexDataBuilder@physx@@QEBA_NAEAVPxOutputStream@2@_N@Z 000000018004e87c     BigConvexDataBuilder.obj
 0004:00000888       $pdata$2$?save@BigConvexDataBuilder@physx@@QEBA_NAEAVPxOutputStream@2@_N@Z 000000018004e888     BigConvexDataBuilder.obj
 0004:00000894       $pdata$3$?save@BigConvexDataBuilder@physx@@QEBA_NAEAVPxOutputStream@2@_N@Z 000000018004e894     BigConvexDataBuilder.obj
 0004:000008a0       $pdata$?computeValencies@BigConvexDataBuilder@physx@@QEAA_NAEBVConvexHullBuilder@2@@Z 000000018004e8a0     BigConvexDataBuilder.obj
 0004:000008ac       $pdata$2$?computeValencies@BigConvexDataBuilder@physx@@QEAA_NAEBVConvexHullBuilder@2@@Z 000000018004e8ac     BigConvexDataBuilder.obj
 0004:000008b8       $pdata$3$?computeValencies@BigConvexDataBuilder@physx@@QEAA_NAEBVConvexHullBuilder@2@@Z 000000018004e8b8     BigConvexDataBuilder.obj
 0004:000008c4       $pdata$?saveValencies@BigConvexDataBuilder@physx@@QEBA_NAEAVPxOutputStream@2@_N@Z 000000018004e8c4     BigConvexDataBuilder.obj
 0004:000008d0       $pdata$1$?saveValencies@BigConvexDataBuilder@physx@@QEBA_NAEAVPxOutputStream@2@_N@Z 000000018004e8d0     BigConvexDataBuilder.obj
 0004:000008dc       $pdata$2$?saveValencies@BigConvexDataBuilder@physx@@QEBA_NAEAVPxOutputStream@2@_N@Z 000000018004e8dc     BigConvexDataBuilder.obj
 0004:000008e8       $pdata$3$?saveValencies@BigConvexDataBuilder@physx@@QEBA_NAEAVPxOutputStream@2@_N@Z 000000018004e8e8     BigConvexDataBuilder.obj
 0004:000008f4       $pdata$4$?saveValencies@BigConvexDataBuilder@physx@@QEBA_NAEAVPxOutputStream@2@_N@Z 000000018004e8f4     BigConvexDataBuilder.obj
 0004:00000900       $pdata$??1ConvexHullBuilder@physx@@QEAA@XZ 000000018004e900     ConvexHullBuilder.obj
 0004:0000090c       $pdata$?init@ConvexHullBuilder@physx@@QEAA_NIPEBVPxVec3@2@PEBIIIPEBUPxHullPolygon@2@_NPEAVConvexHullLib@2@@Z 000000018004e90c     ConvexHullBuilder.obj
 0004:00000918       $pdata$0$?init@ConvexHullBuilder@physx@@QEAA_NIPEBVPxVec3@2@PEBIIIPEBUPxHullPolygon@2@_NPEAVConvexHullLib@2@@Z 000000018004e918     ConvexHullBuilder.obj
 0004:00000924       $pdata$2$?init@ConvexHullBuilder@physx@@QEAA_NIPEBVPxVec3@2@PEBIIIPEBUPxHullPolygon@2@_NPEAVConvexHullLib@2@@Z 000000018004e924     ConvexHullBuilder.obj
 0004:00000930       $pdata$3$?init@ConvexHullBuilder@physx@@QEAA_NIPEBVPxVec3@2@PEBIIIPEBUPxHullPolygon@2@_NPEAVConvexHullLib@2@@Z 000000018004e930     ConvexHullBuilder.obj
 0004:0000093c       $pdata$4$?init@ConvexHullBuilder@physx@@QEAA_NIPEBVPxVec3@2@PEBIIIPEBUPxHullPolygon@2@_NPEAVConvexHullLib@2@@Z 000000018004e93c     ConvexHullBuilder.obj
 0004:00000948       $pdata$?save@ConvexHullBuilder@physx@@QEBA_NAEAVPxOutputStream@2@_N@Z 000000018004e948     ConvexHullBuilder.obj
 0004:00000954       $pdata$0$?save@ConvexHullBuilder@physx@@QEBA_NAEAVPxOutputStream@2@_N@Z 000000018004e954     ConvexHullBuilder.obj
 0004:00000960       $pdata$3$?save@ConvexHullBuilder@physx@@QEBA_NAEAVPxOutputStream@2@_N@Z 000000018004e960     ConvexHullBuilder.obj
 0004:0000096c       $pdata$4$?save@ConvexHullBuilder@physx@@QEBA_NAEAVPxOutputStream@2@_N@Z 000000018004e96c     ConvexHullBuilder.obj
 0004:00000978       $pdata$5$?save@ConvexHullBuilder@physx@@QEBA_NAEAVPxOutputStream@2@_N@Z 000000018004e978     ConvexHullBuilder.obj
 0004:00000984       $pdata$?copy@ConvexHullBuilder@physx@@QEAA_NAEAUConvexHullData@Gu@2@AEAI@Z 000000018004e984     ConvexHullBuilder.obj
 0004:00000990       $pdata$?createEdgeList@ConvexHullBuilder@physx@@QEAA_N_NI@Z 000000018004e990     ConvexHullBuilder.obj
 0004:0000099c       $pdata$4$?createEdgeList@ConvexHullBuilder@physx@@QEAA_N_NI@Z 000000018004e99c     ConvexHullBuilder.obj
 0004:000009a8       $pdata$6$?createEdgeList@ConvexHullBuilder@physx@@QEAA_N_NI@Z 000000018004e9a8     ConvexHullBuilder.obj
 0004:000009b4       $pdata$?checkHullPolygons@ConvexHullBuilder@physx@@QEBA_NXZ 000000018004e9b4     ConvexHullBuilder.obj
 0004:000009c0       $pdata$14$?checkHullPolygons@ConvexHullBuilder@physx@@QEBA_NXZ 000000018004e9c0     ConvexHullBuilder.obj
 0004:000009cc       $pdata$16$?checkHullPolygons@ConvexHullBuilder@physx@@QEBA_NXZ 000000018004e9cc     ConvexHullBuilder.obj
 0004:000009d8       $pdata$17$?checkHullPolygons@ConvexHullBuilder@physx@@QEBA_NXZ 000000018004e9d8     ConvexHullBuilder.obj
 0004:000009e4       $pdata$?calculateVertexMapTable@ConvexHullBuilder@physx@@QEAA_NI_N@Z 000000018004e9e4     ConvexHullBuilder.obj
 0004:000009f0       $pdata$?computeGeomCenter@ConvexHullBuilder@physx@@IEBA_NAEAVPxVec3@2@IPEAUHullTriangleData@2@@Z 000000018004e9f0     ConvexHullBuilder.obj
 0004:000009fc       $pdata$1$?computeGeomCenter@ConvexHullBuilder@physx@@IEBA_NAEAVPxVec3@2@IPEAUHullTriangleData@2@@Z 000000018004e9fc     ConvexHullBuilder.obj
 0004:00000a08       $pdata$10$?computeGeomCenter@ConvexHullBuilder@physx@@IEBA_NAEAVPxVec3@2@IPEAUHullTriangleData@2@@Z 000000018004ea08     ConvexHullBuilder.obj
 0004:00000a14       $pdata$11$?computeGeomCenter@ConvexHullBuilder@physx@@IEBA_NAEAVPxVec3@2@IPEAUHullTriangleData@2@@Z 000000018004ea14     ConvexHullBuilder.obj
 0004:00000a20       $pdata$12$?computeGeomCenter@ConvexHullBuilder@physx@@IEBA_NAEAVPxVec3@2@IPEAUHullTriangleData@2@@Z 000000018004ea20     ConvexHullBuilder.obj
 0004:00000a2c       $pdata$??$?_UE@@YAPEAX_KV?$ReflectionAllocator@E@shdfnd@physx@@PEBDH@Z 000000018004ea2c     ConvexHullBuilder.obj
 0004:00000a38       $pdata$0$??$?_UE@@YAPEAX_KV?$ReflectionAllocator@E@shdfnd@physx@@PEBDH@Z 000000018004ea38     ConvexHullBuilder.obj
 0004:00000a44       $pdata$1$??$?_UE@@YAPEAX_KV?$ReflectionAllocator@E@shdfnd@physx@@PEBDH@Z 000000018004ea44     ConvexHullBuilder.obj
 0004:00000a50       $pdata$??1ConvexHullLib@physx@@UEAA@XZ 000000018004ea50     ConvexHullLib.obj
 0004:00000a5c       $pdata$?cleanupVertices@ConvexHullLib@physx@@IEAA_NIPEBVPxVec3@2@IAEAIPEAV32@AEAV32@3@Z 000000018004ea5c     ConvexHullLib.obj
 0004:00000a68       $pdata$6$?cleanupVertices@ConvexHullLib@physx@@IEAA_NIPEBVPxVec3@2@IAEAIPEAV32@AEAV32@3@Z 000000018004ea68     ConvexHullLib.obj
 0004:00000a74       $pdata$12$?cleanupVertices@ConvexHullLib@physx@@IEAA_NIPEBVPxVec3@2@IAEAIPEAV32@AEAV32@3@Z 000000018004ea74     ConvexHullLib.obj
 0004:00000a80       $pdata$13$?cleanupVertices@ConvexHullLib@physx@@IEAA_NIPEBVPxVec3@2@IAEAIPEAV32@AEAV32@3@Z 000000018004ea80     ConvexHullLib.obj
 0004:00000a8c       $pdata$14$?cleanupVertices@ConvexHullLib@physx@@IEAA_NIPEBVPxVec3@2@IAEAIPEAV32@AEAV32@3@Z 000000018004ea8c     ConvexHullLib.obj
 0004:00000a98       $pdata$?shiftAndcleanupVertices@ConvexHullLib@physx@@IEAA_NIPEBVPxVec3@2@IAEAIPEAV32@AEAV32@3@Z 000000018004ea98     ConvexHullLib.obj
 0004:00000aa4       $pdata$7$?shiftAndcleanupVertices@ConvexHullLib@physx@@IEAA_NIPEBVPxVec3@2@IAEAIPEAV32@AEAV32@3@Z 000000018004eaa4     ConvexHullLib.obj
 0004:00000ab0       $pdata$8$?shiftAndcleanupVertices@ConvexHullLib@physx@@IEAA_NIPEBVPxVec3@2@IAEAIPEAV32@AEAV32@3@Z 000000018004eab0     ConvexHullLib.obj
 0004:00000abc       $pdata$12$?shiftAndcleanupVertices@ConvexHullLib@physx@@IEAA_NIPEBVPxVec3@2@IAEAIPEAV32@AEAV32@3@Z 000000018004eabc     ConvexHullLib.obj
 0004:00000ac8       $pdata$13$?shiftAndcleanupVertices@ConvexHullLib@physx@@IEAA_NIPEBVPxVec3@2@IAEAIPEAV32@AEAV32@3@Z 000000018004eac8     ConvexHullLib.obj
 0004:00000ad4       $pdata$14$?shiftAndcleanupVertices@ConvexHullLib@physx@@IEAA_NIPEBVPxVec3@2@IAEAIPEAV32@AEAV32@3@Z 000000018004ead4     ConvexHullLib.obj
 0004:00000ae0       $pdata$?swapLargestFace@ConvexHullLib@physx@@IEAAXAEAVPxConvexMeshDesc@2@@Z 000000018004eae0     ConvexHullLib.obj
 0004:00000aec       $pdata$1$?swapLargestFace@ConvexHullLib@physx@@IEAAXAEAVPxConvexMeshDesc@2@@Z 000000018004eaec     ConvexHullLib.obj
 0004:00000af8       $pdata$2$?swapLargestFace@ConvexHullLib@physx@@IEAAXAEAVPxConvexMeshDesc@2@@Z 000000018004eaf8     ConvexHullLib.obj
 0004:00000b04       $pdata$3$?swapLargestFace@ConvexHullLib@physx@@IEAAXAEAVPxConvexMeshDesc@2@@Z 000000018004eb04     ConvexHullLib.obj
 0004:00000b10       $pdata$4$?swapLargestFace@ConvexHullLib@physx@@IEAAXAEAVPxConvexMeshDesc@2@@Z 000000018004eb10     ConvexHullLib.obj
 0004:00000b1c       $pdata$??_GConvexHullLib@physx@@UEAAPEAXI@Z 000000018004eb1c     ConvexHullLib.obj
 0004:00000b28       $pdata$?checkPointsAABBValidity@local@@YA_NIPEBVPxVec3@physx@@IMMAEAV23@1AEAIPEAV23@_N@Z 000000018004eb28     ConvexHullLib.obj
 0004:00000b34       $pdata$3$?checkPointsAABBValidity@local@@YA_NIPEBVPxVec3@physx@@IMMAEAV23@1AEAIPEAV23@_N@Z 000000018004eb34     ConvexHullLib.obj
 0004:00000b40       $pdata$4$?checkPointsAABBValidity@local@@YA_NIPEBVPxVec3@physx@@IMMAEAV23@1AEAIPEAV23@_N@Z 000000018004eb40     ConvexHullLib.obj
 0004:00000b4c       $pdata$5$?checkPointsAABBValidity@local@@YA_NIPEBVPxVec3@physx@@IMMAEAV23@1AEAIPEAV23@_N@Z 000000018004eb4c     ConvexHullLib.obj
 0004:00000b58       $pdata$6$?checkPointsAABBValidity@local@@YA_NIPEBVPxVec3@physx@@IMMAEAV23@1AEAIPEAV23@_N@Z 000000018004eb58     ConvexHullLib.obj
 0004:00000b64       $pdata$?getInverse@PxMat33@physx@@QEBA?BV12@XZ 000000018004eb64     ConvexHullUtils.obj
 0004:00000b70       $pdata$1$?getInverse@PxMat33@physx@@QEBA?BV12@XZ 000000018004eb70     ConvexHullUtils.obj
 0004:00000b7c       $pdata$2$?getInverse@PxMat33@physx@@QEBA?BV12@XZ 000000018004eb7c     ConvexHullUtils.obj
 0004:00000b88       $pdata$??0ConvexHull@physx@@QEAA@AEBVPxVec3@1@0AEBV?$Array@VPxPlane@physx@@VNamedAllocator@shdfnd@2@@shdfnd@1@@Z 000000018004eb88     ConvexHullUtils.obj
 0004:00000b94       $pdata$??0ConvexHull@physx@@QEAA@AEBVPxVec3@1@AEBVPxTransform@1@AEBV?$Array@VPxPlane@physx@@VNamedAllocator@shdfnd@2@@shdfnd@1@@Z 000000018004eb94     ConvexHullUtils.obj
 0004:00000ba0       $pdata$?findCandidatePlane@ConvexHull@physx@@QEBAHMM@Z 000000018004eba0     ConvexHullUtils.obj
 0004:00000bac       $pdata$10$?findCandidatePlane@ConvexHull@physx@@QEBAHMM@Z 000000018004ebac     ConvexHullUtils.obj
 0004:00000bb8       $pdata$11$?findCandidatePlane@ConvexHull@physx@@QEBAHMM@Z 000000018004ebb8     ConvexHullUtils.obj
 0004:00000bc4       $pdata$12$?findCandidatePlane@ConvexHull@physx@@QEBAHMM@Z 000000018004ebc4     ConvexHullUtils.obj
 0004:00000bd0       $pdata$?assertIntact@ConvexHull@physx@@QEBA_NM@Z 000000018004ebd0     ConvexHullUtils.obj
 0004:00000bdc       $pdata$?maxNumVertsPerFace@ConvexHull@physx@@QEBAIXZ 000000018004ebdc     ConvexHullUtils.obj
 0004:00000be8       $pdata$0$?maxNumVertsPerFace@ConvexHull@physx@@QEBAIXZ 000000018004ebe8     ConvexHullUtils.obj
 0004:00000bf4       $pdata$1$?maxNumVertsPerFace@ConvexHull@physx@@QEBAIXZ 000000018004ebf4     ConvexHullUtils.obj
 0004:00000c00       $pdata$?convexHullCrop@physx@@YAPEAVConvexHull@1@AEBV21@AEBVPxPlane@1@M@Z 000000018004ec00     ConvexHullUtils.obj
 0004:00000c0c       $pdata$6$?convexHullCrop@physx@@YAPEAVConvexHull@1@AEBV21@AEBVPxPlane@1@M@Z 000000018004ec0c     ConvexHullUtils.obj
 0004:00000c18       $pdata$7$?convexHullCrop@physx@@YAPEAVConvexHull@1@AEBV21@AEBVPxPlane@1@M@Z 000000018004ec18     ConvexHullUtils.obj
 0004:00000c24       $pdata$9$?convexHullCrop@physx@@YAPEAVConvexHull@1@AEBV21@AEBVPxPlane@1@M@Z 000000018004ec24     ConvexHullUtils.obj
 0004:00000c30       $pdata$10$?convexHullCrop@physx@@YAPEAVConvexHull@1@AEBV21@AEBVPxPlane@1@M@Z 000000018004ec30     ConvexHullUtils.obj
 0004:00000c3c       $pdata$11$?convexHullCrop@physx@@YAPEAVConvexHull@1@AEBV21@AEBVPxPlane@1@M@Z 000000018004ec3c     ConvexHullUtils.obj
 0004:00000c48       $pdata$12$?convexHullCrop@physx@@YAPEAVConvexHull@1@AEBV21@AEBVPxPlane@1@M@Z 000000018004ec48     ConvexHullUtils.obj
 0004:00000c54       $pdata$?computeOBBFromConvex@physx@@YA_NAEBVPxConvexMeshDesc@1@AEAVPxVec3@1@AEAVPxTransform@1@@Z 000000018004ec54     ConvexHullUtils.obj
 0004:00000c60       $pdata$4$?computeOBBFromConvex@physx@@YA_NAEBVPxConvexMeshDesc@1@AEAVPxVec3@1@AEAVPxTransform@1@@Z 000000018004ec60     ConvexHullUtils.obj
 0004:00000c6c       $pdata$5$?computeOBBFromConvex@physx@@YA_NAEBVPxConvexMeshDesc@1@AEAVPxVec3@1@AEAVPxTransform@1@@Z 000000018004ec6c     ConvexHullUtils.obj
 0004:00000c78       $pdata$?computeOBBSIMD@local@@YAXIPEBT__m128@@AEAT2@AEBT2@1@Z 000000018004ec78     ConvexHullUtils.obj
 0004:00000c84       $pdata$5$?computeOBBSIMD@local@@YAXIPEBT__m128@@AEAT2@AEBT2@1@Z 000000018004ec84     ConvexHullUtils.obj
 0004:00000c90       $pdata$6$?computeOBBSIMD@local@@YAXIPEBT__m128@@AEAT2@AEBT2@1@Z 000000018004ec90     ConvexHullUtils.obj
 0004:00000c9c       $pdata$?resize@?$Array@VPxVec3@physx@@VNamedAllocator@shdfnd@2@@shdfnd@physx@@QEAAXIAEBVPxVec3@3@@Z 000000018004ec9c     ConvexHullUtils.obj
 0004:00000ca8       $pdata$?resize@?$Array@VHalfEdge@ConvexHull@physx@@VNamedAllocator@shdfnd@3@@shdfnd@physx@@QEAAXIAEBVHalfEdge@ConvexHull@3@@Z 000000018004eca8     ConvexHullUtils.obj
 0004:00000cb4       $pdata$?growAndPushBack@?$Array@VHalfEdge@ConvexHull@physx@@VNamedAllocator@shdfnd@3@@shdfnd@physx@@IEAAAEAVHalfEdge@ConvexHull@3@AEBV453@@Z 000000018004ecb4     ConvexHullUtils.obj
 0004:00000cc0       $pdata$?recreate@?$Array@VHalfEdge@ConvexHull@physx@@VNamedAllocator@shdfnd@3@@shdfnd@physx@@IEAAXI@Z 000000018004ecc0     ConvexHullUtils.obj
 0004:00000ccc       $pdata$0$?recreate@?$Array@VHalfEdge@ConvexHull@physx@@VNamedAllocator@shdfnd@3@@shdfnd@physx@@IEAAXI@Z 000000018004eccc     ConvexHullUtils.obj
 0004:00000cd8       $pdata$1$?recreate@?$Array@VHalfEdge@ConvexHull@physx@@VNamedAllocator@shdfnd@3@@shdfnd@physx@@IEAAXI@Z 000000018004ecd8     ConvexHullUtils.obj
 0004:00000ce4       $pdata$?resize@?$Array@VPxPlane@physx@@VNamedAllocator@shdfnd@2@@shdfnd@physx@@QEAAXIAEBVPxPlane@3@@Z 000000018004ece4     ConvexHullUtils.obj
 0004:00000cf0       $pdata$?growAndPushBack@?$Array@VPxPlane@physx@@VNamedAllocator@shdfnd@2@@shdfnd@physx@@IEAAAEAVPxPlane@3@AEBV43@@Z 000000018004ecf0     ConvexHullUtils.obj
 0004:00000cfc       $pdata$0$?growAndPushBack@?$Array@VPxPlane@physx@@VNamedAllocator@shdfnd@2@@shdfnd@physx@@IEAAAEAVPxPlane@3@AEBV43@@Z 000000018004ecfc     ConvexHullUtils.obj
 0004:00000d08       $pdata$1$?growAndPushBack@?$Array@VPxPlane@physx@@VNamedAllocator@shdfnd@2@@shdfnd@physx@@IEAAAEAVPxPlane@3@AEBV43@@Z 000000018004ed08     ConvexHullUtils.obj
 0004:00000d14       $pdata$2$?growAndPushBack@?$Array@VPxPlane@physx@@VNamedAllocator@shdfnd@2@@shdfnd@physx@@IEAAAEAVPxPlane@3@AEBV43@@Z 000000018004ed14     ConvexHullUtils.obj
 0004:00000d20       $pdata$3$?growAndPushBack@?$Array@VPxPlane@physx@@VNamedAllocator@shdfnd@2@@shdfnd@physx@@IEAAAEAVPxPlane@3@AEBV43@@Z 000000018004ed20     ConvexHullUtils.obj
 0004:00000d2c       $pdata$?recreate@?$Array@VPxPlane@physx@@VNamedAllocator@shdfnd@2@@shdfnd@physx@@IEAAXI@Z 000000018004ed2c     ConvexHullUtils.obj
 0004:00000d38       $pdata$0$?recreate@?$Array@VPxPlane@physx@@VNamedAllocator@shdfnd@2@@shdfnd@physx@@IEAAXI@Z 000000018004ed38     ConvexHullUtils.obj
 0004:00000d44       $pdata$1$?recreate@?$Array@VPxPlane@physx@@VNamedAllocator@shdfnd@2@@shdfnd@physx@@IEAAXI@Z 000000018004ed44     ConvexHullUtils.obj
 0004:00000d50       $pdata$?isFinite@PxVec3@physx@@QEBA_NXZ 000000018004ed50     ConvexMeshBuilder.obj
 0004:00000d5c       $pdata$??0ConvexMeshBuilder@physx@@QEAA@_N@Z 000000018004ed5c     ConvexMeshBuilder.obj
 0004:00000d68       $pdata$??1ConvexMeshBuilder@physx@@QEAA@XZ 000000018004ed68     ConvexMeshBuilder.obj
 0004:00000d74       $pdata$?build@ConvexMeshBuilder@physx@@QEAA_NAEBVPxConvexMeshDesc@2@I_NPEAVConvexHullLib@2@@Z 000000018004ed74     ConvexMeshBuilder.obj
 0004:00000d80       $pdata$0$?build@ConvexMeshBuilder@physx@@QEAA_NAEBVPxConvexMeshDesc@2@I_NPEAVConvexHullLib@2@@Z 000000018004ed80     ConvexMeshBuilder.obj
 0004:00000d8c       $pdata$2$?build@ConvexMeshBuilder@physx@@QEAA_NAEBVPxConvexMeshDesc@2@I_NPEAVConvexHullLib@2@@Z 000000018004ed8c     ConvexMeshBuilder.obj
 0004:00000d98       $pdata$3$?build@ConvexMeshBuilder@physx@@QEAA_NAEBVPxConvexMeshDesc@2@I_NPEAVConvexHullLib@2@@Z 000000018004ed98     ConvexMeshBuilder.obj
 0004:00000da4       $pdata$4$?build@ConvexMeshBuilder@physx@@QEAA_NAEBVPxConvexMeshDesc@2@I_NPEAVConvexHullLib@2@@Z 000000018004eda4     ConvexMeshBuilder.obj
 0004:00000db0       $pdata$?save@ConvexMeshBuilder@physx@@QEBA_NAEAVPxOutputStream@2@_N@Z 000000018004edb0     ConvexMeshBuilder.obj
 0004:00000dbc       $pdata$0$?save@ConvexMeshBuilder@physx@@QEBA_NAEAVPxOutputStream@2@_N@Z 000000018004edbc     ConvexMeshBuilder.obj
 0004:00000dc8       $pdata$1$?save@ConvexMeshBuilder@physx@@QEBA_NAEAVPxOutputStream@2@_N@Z 000000018004edc8     ConvexMeshBuilder.obj
 0004:00000dd4       $pdata$?copy@ConvexMeshBuilder@physx@@QEAA_NAEAUConvexHullData@Gu@2@AEAI@Z 000000018004edd4     ConvexMeshBuilder.obj
 0004:00000de0       $pdata$?loadConvexHull@ConvexMeshBuilder@physx@@QEAA_NAEBVPxConvexMeshDesc@2@PEAVConvexHullLib@2@@Z 000000018004ede0     ConvexMeshBuilder.obj
 0004:00000dec       $pdata$?computeHullPolygons@ConvexMeshBuilder@physx@@QEAA_NAEBIPEBVPxVec3@2@0PEBIAEAVPxAllocatorCallback@2@AEAIAEAPEAV32@4AEAPEAI4AEAPEAUPxHullPolygon@2@@Z 000000018004edec     ConvexMeshBuilder.obj
 0004:00000df8       $pdata$3$?computeHullPolygons@ConvexMeshBuilder@physx@@QEAA_NAEBIPEBVPxVec3@2@0PEBIAEAVPxAllocatorCallback@2@AEAIAEAPEAV32@4AEAPEAI4AEAPEAUPxHullPolygon@2@@Z 000000018004edf8     ConvexMeshBuilder.obj
 0004:00000e04       $pdata$4$?computeHullPolygons@ConvexMeshBuilder@physx@@QEAA_NAEBIPEBVPxVec3@2@0PEBIAEAVPxAllocatorCallback@2@AEAIAEAPEAV32@4AEAPEAI4AEAPEAUPxHullPolygon@2@@Z 000000018004ee04     ConvexMeshBuilder.obj
 0004:00000e10       $pdata$?computeGaussMaps@ConvexMeshBuilder@physx@@QEAA_NXZ 000000018004ee10     ConvexMeshBuilder.obj
 0004:00000e1c       $pdata$?computeMassInfo@ConvexMeshBuilder@physx@@QEAAX_N@Z 000000018004ee1c     ConvexMeshBuilder.obj
 0004:00000e28       $pdata$0$?computeMassInfo@ConvexMeshBuilder@physx@@QEAAX_N@Z 000000018004ee28     ConvexMeshBuilder.obj
 0004:00000e34       $pdata$1$?computeMassInfo@ConvexMeshBuilder@physx@@QEAAX_N@Z 000000018004ee34     ConvexMeshBuilder.obj
 0004:00000e40       $pdata$5$?computeMassInfo@ConvexMeshBuilder@physx@@QEAAX_N@Z 000000018004ee40     ConvexMeshBuilder.obj
 0004:00000e4c       $pdata$6$?computeMassInfo@ConvexMeshBuilder@physx@@QEAAX_N@Z 000000018004ee4c     ConvexMeshBuilder.obj
 0004:00000e58       $pdata$7$?computeMassInfo@ConvexMeshBuilder@physx@@QEAAX_N@Z 000000018004ee58     ConvexMeshBuilder.obj
 0004:00000e64       $pdata$8$?computeMassInfo@ConvexMeshBuilder@physx@@QEAAX_N@Z 000000018004ee64     ConvexMeshBuilder.obj
 0004:00000e70       $pdata$?ComputeInternalExtent@@YAXAEAUConvexHullData@Gu@physx@@PEBUHullPolygonData@23@@Z 000000018004ee70     ConvexMeshBuilder.obj
 0004:00000e7c       $pdata$0$?ComputeInternalExtent@@YAXAEAUConvexHullData@Gu@physx@@PEBUHullPolygonData@23@@Z 000000018004ee7c     ConvexMeshBuilder.obj
 0004:00000e88       $pdata$1$?ComputeInternalExtent@@YAXAEAUConvexHullData@Gu@physx@@PEBUHullPolygonData@23@@Z 000000018004ee88     ConvexMeshBuilder.obj
 0004:00000e94       $pdata$??0ConvexPolygonsBuilder@physx@@QEAA@PEAUConvexHullData@Gu@1@_N@Z 000000018004ee94     ConvexPolygonsBuilder.obj
 0004:00000ea0       $pdata$??1ConvexPolygonsBuilder@physx@@QEAA@XZ 000000018004eea0     ConvexPolygonsBuilder.obj
 0004:00000eac       $pdata$?computeHullPolygons@ConvexPolygonsBuilder@physx@@QEAA_NAEBIPEBVPxVec3@2@0PEBI@Z 000000018004eeac     ConvexPolygonsBuilder.obj
 0004:00000eb8       $pdata$?createPolygonData@ConvexPolygonsBuilder@physx@@AEAA_NXZ 000000018004eeb8     ConvexPolygonsBuilder.obj
 0004:00000ec4       $pdata$7$?createPolygonData@ConvexPolygonsBuilder@physx@@AEAA_NXZ 000000018004eec4     ConvexPolygonsBuilder.obj
 0004:00000ed0       $pdata$8$?createPolygonData@ConvexPolygonsBuilder@physx@@AEAA_NXZ 000000018004eed0     ConvexPolygonsBuilder.obj
 0004:00000edc       $pdata$9$?createPolygonData@ConvexPolygonsBuilder@physx@@AEAA_NXZ 000000018004eedc     ConvexPolygonsBuilder.obj
 0004:00000ee8       $pdata$17$?createPolygonData@ConvexPolygonsBuilder@physx@@AEAA_NXZ 000000018004eee8     ConvexPolygonsBuilder.obj
 0004:00000ef4       $pdata$18$?createPolygonData@ConvexPolygonsBuilder@physx@@AEAA_NXZ 000000018004eef4     ConvexPolygonsBuilder.obj
 0004:00000f00       $pdata$?createTrianglesFromPolygons@ConvexPolygonsBuilder@physx@@AEAA_NXZ 000000018004ef00     ConvexPolygonsBuilder.obj
 0004:00000f0c       $pdata$3$?createTrianglesFromPolygons@ConvexPolygonsBuilder@physx@@AEAA_NXZ 000000018004ef0c     ConvexPolygonsBuilder.obj
 0004:00000f18       $pdata$4$?createTrianglesFromPolygons@ConvexPolygonsBuilder@physx@@AEAA_NXZ 000000018004ef18     ConvexPolygonsBuilder.obj
 0004:00000f24       $pdata$?findLineStrip@@YA_NAEAV?$Array@IVNamedAllocator@shdfnd@physx@@@shdfnd@physx@@AEBV?$Array@VPair@@VNamedAllocator@shdfnd@physx@@@23@@Z 000000018004ef24     ConvexPolygonsBuilder.obj
 0004:00000f30       $pdata$?growAndPushBack@?$Array@VPair@@VNamedAllocator@shdfnd@physx@@@shdfnd@physx@@IEAAAEAVPair@@AEBV4@@Z 000000018004ef30     ConvexPolygonsBuilder.obj
 0004:00000f3c       $pdata$?TestDuplicateTriangles@@YA_NAEAIPEAU?$TriangleT@I@Gu@physx@@_N@Z 000000018004ef3c     ConvexPolygonsBuilder.obj
 0004:00000f48       $pdata$?TestUnifiedNormals@@YA_NIPEBVPxVec3@physx@@IPEAU?$TriangleT@I@Gu@2@_N@Z 000000018004ef48     ConvexPolygonsBuilder.obj
 0004:00000f54       $pdata$10$?TestUnifiedNormals@@YA_NIPEBVPxVec3@physx@@IPEAU?$TriangleT@I@Gu@2@_N@Z 000000018004ef54     ConvexPolygonsBuilder.obj
 0004:00000f60       $pdata$12$?TestUnifiedNormals@@YA_NIPEBVPxVec3@physx@@IPEAU?$TriangleT@I@Gu@2@_N@Z 000000018004ef60     ConvexPolygonsBuilder.obj
 0004:00000f6c       $pdata$13$?TestUnifiedNormals@@YA_NIPEBVPxVec3@physx@@IPEAU?$TriangleT@I@Gu@2@_N@Z 000000018004ef6c     ConvexPolygonsBuilder.obj
 0004:00000f78       $pdata$14$?TestUnifiedNormals@@YA_NIPEBVPxVec3@physx@@IPEAU?$TriangleT@I@Gu@2@_N@Z 000000018004ef78     ConvexPolygonsBuilder.obj
 0004:00000f84       $pdata$?checkRedundantVertices@@YAXAEAIAEAV?$Array@IVNamedAllocator@shdfnd@physx@@@shdfnd@physx@@AEBVConvexPolygonsBuilder@3@11@Z 000000018004ef84     ConvexPolygonsBuilder.obj
 0004:00000f90       $pdata$?extractHullPolygons@@YA_NAEAIAEAV?$Array@IVNamedAllocator@shdfnd@physx@@@shdfnd@physx@@AEBVConvexPolygonsBuilder@3@PEAV123@1@Z 000000018004ef90     ConvexPolygonsBuilder.obj
 0004:00000f9c       $pdata$?FloodFill@Local@?7??extractHullPolygons@@YA_NAEAIAEAV?$Array@IVNamedAllocator@shdfnd@physx@@@shdfnd@physx@@AEBVConvexPolygonsBuilder@5@PEAV345@1@Z@SAX1PEBVAdjTriangle@5@IPEA_N@Z 000000018004ef9c     ConvexPolygonsBuilder.obj
 0004:00000fa8       $pdata$0$?FloodFill@Local@?7??extractHullPolygons@@YA_NAEAIAEAV?$Array@IVNamedAllocator@shdfnd@physx@@@shdfnd@physx@@AEBVConvexPolygonsBuilder@5@PEAV345@1@Z@SAX1PEBVAdjTriangle@5@IPEA_N@Z 000000018004efa8     ConvexPolygonsBuilder.obj
 0004:00000fb4       $pdata$1$?FloodFill@Local@?7??extractHullPolygons@@YA_NAEAIAEAV?$Array@IVNamedAllocator@shdfnd@physx@@@shdfnd@physx@@AEBVConvexPolygonsBuilder@5@PEAV345@1@Z@SAX1PEBVAdjTriangle@5@IPEA_N@Z 000000018004efb4     ConvexPolygonsBuilder.obj
 0004:00000fc0       $pdata$?CheckFloodFillFace@Local@?7??extractHullPolygons@@YA_NAEAIAEAV?$Array@IVNamedAllocator@shdfnd@physx@@@shdfnd@physx@@AEBVConvexPolygonsBuilder@5@PEAV345@1@Z@SA_NIPEBVAdjTriangle@5@PEBI@Z 000000018004efc0     ConvexPolygonsBuilder.obj
 0004:00000fcc       $pdata$??$?_UUHullTriangleData@physx@@@@YAPEAX_KV?$ReflectionAllocator@UHullTriangleData@physx@@@shdfnd@physx@@PEBDH@Z 000000018004efcc     ConvexPolygonsBuilder.obj
 0004:00000fd8       $pdata$0$??$?_UUHullTriangleData@physx@@@@YAPEAX_KV?$ReflectionAllocator@UHullTriangleData@physx@@@shdfnd@physx@@PEBDH@Z 000000018004efd8     ConvexPolygonsBuilder.obj
 0004:00000fe4       $pdata$1$??$?_UUHullTriangleData@physx@@@@YAPEAX_KV?$ReflectionAllocator@UHullTriangleData@physx@@@shdfnd@physx@@PEBDH@Z 000000018004efe4     ConvexPolygonsBuilder.obj
 0004:00000ff0       $pdata$??$copy@VNamedAllocator@shdfnd@physx@@@?$Array@VPair@@VNamedAllocator@shdfnd@physx@@@shdfnd@physx@@IEAAXAEBV012@@Z 000000018004eff0     ConvexPolygonsBuilder.obj
 0004:00000ffc       $pdata$0$??$copy@VNamedAllocator@shdfnd@physx@@@?$Array@VPair@@VNamedAllocator@shdfnd@physx@@@shdfnd@physx@@IEAAXAEBV012@@Z 000000018004effc     ConvexPolygonsBuilder.obj
 0004:00001008       $pdata$1$??$copy@VNamedAllocator@shdfnd@physx@@@?$Array@VPair@@VNamedAllocator@shdfnd@physx@@@shdfnd@physx@@IEAAXAEBV012@@Z 000000018004f008     ConvexPolygonsBuilder.obj
 0004:00001014       $pdata$??1InflationConvexHullLib@physx@@UEAA@XZ 000000018004f014     InflationConvexHullLib.obj
 0004:00001020       $pdata$?createConvexHull@InflationConvexHullLib@physx@@UEAA?AW4Enum@PxConvexMeshCookingResult@2@XZ 000000018004f020     InflationConvexHullLib.obj
 0004:0000102c       $pdata$?fillConvexMeshDesc@InflationConvexHullLib@physx@@UEAAXAEAVPxConvexMeshDesc@2@@Z 000000018004f02c     InflationConvexHullLib.obj
 0004:00001038       $pdata$?computeHull@InflationConvexHullLib@physx@@IEAA?AW4ErrorCode@ConvexHullLibResult@2@IPEBVPxVec3@2@@Z 000000018004f038     InflationConvexHullLib.obj
 0004:00001044       $pdata$2$?computeHull@InflationConvexHullLib@physx@@IEAA?AW4ErrorCode@ConvexHullLibResult@2@IPEBVPxVec3@2@@Z 000000018004f044     InflationConvexHullLib.obj
 0004:00001050       $pdata$3$?computeHull@InflationConvexHullLib@physx@@IEAA?AW4ErrorCode@ConvexHullLibResult@2@IPEBVPxVec3@2@@Z 000000018004f050     InflationConvexHullLib.obj
 0004:0000105c       $pdata$4$?computeHull@InflationConvexHullLib@physx@@IEAA?AW4ErrorCode@ConvexHullLibResult@2@IPEBVPxVec3@2@@Z 000000018004f05c     InflationConvexHullLib.obj
 0004:00001068       $pdata$5$?computeHull@InflationConvexHullLib@physx@@IEAA?AW4ErrorCode@ConvexHullLibResult@2@IPEBVPxVec3@2@@Z 000000018004f068     InflationConvexHullLib.obj
 0004:00001074       $pdata$?calchull@InflationConvexHullLib@physx@@IEAA?AW4ErrorCode@ConvexHullLibResult@2@PEBVPxVec3@2@IAEAPEAVConvexHull@2@@Z 000000018004f074     InflationConvexHullLib.obj
 0004:00001080       $pdata$?calchullgen@InflationConvexHullLib@physx@@IEAA?AW4ErrorCode@ConvexHullLibResult@2@PEBVPxVec3@2@IAEAVHullTriangles@local@@@Z 000000018004f080     InflationConvexHullLib.obj
 0004:0000108c       $pdata$8$?calchullgen@InflationConvexHullLib@physx@@IEAA?AW4ErrorCode@ConvexHullLibResult@2@PEBVPxVec3@2@IAEAVHullTriangles@local@@@Z 000000018004f08c     InflationConvexHullLib.obj
 0004:00001098       $pdata$9$?calchullgen@InflationConvexHullLib@physx@@IEAA?AW4ErrorCode@ConvexHullLibResult@2@PEBVPxVec3@2@IAEAVHullTriangles@local@@@Z 000000018004f098     InflationConvexHullLib.obj
 0004:000010a4       $pdata$12$?calchullgen@InflationConvexHullLib@physx@@IEAA?AW4ErrorCode@ConvexHullLibResult@2@PEBVPxVec3@2@IAEAVHullTriangles@local@@@Z 000000018004f0a4     InflationConvexHullLib.obj
 0004:000010b0       $pdata$13$?calchullgen@InflationConvexHullLib@physx@@IEAA?AW4ErrorCode@ConvexHullLibResult@2@PEBVPxVec3@2@IAEAVHullTriangles@local@@@Z 000000018004f0b0     InflationConvexHullLib.obj
 0004:000010bc       $pdata$?calchullplanes@InflationConvexHullLib@physx@@IEAA_NPEBVPxVec3@2@AEAVHullTriangles@local@@AEAV?$Array@VPxPlane@physx@@VNamedAllocator@shdfnd@2@@shdfnd@2@@Z 000000018004f0bc     InflationConvexHullLib.obj
 0004:000010c8       $pdata$9$?calchullplanes@InflationConvexHullLib@physx@@IEAA_NPEBVPxVec3@2@AEAVHullTriangles@local@@AEAV?$Array@VPxPlane@physx@@VNamedAllocator@shdfnd@2@@shdfnd@2@@Z 000000018004f0c8     InflationConvexHullLib.obj
 0004:000010d4       $pdata$14$?calchullplanes@InflationConvexHullLib@physx@@IEAA_NPEBVPxVec3@2@AEAVHullTriangles@local@@AEAV?$Array@VPxPlane@physx@@VNamedAllocator@shdfnd@2@@shdfnd@2@@Z 000000018004f0d4     InflationConvexHullLib.obj
 0004:000010e0       $pdata$15$?calchullplanes@InflationConvexHullLib@physx@@IEAA_NPEBVPxVec3@2@AEAVHullTriangles@local@@AEAV?$Array@VPxPlane@physx@@VNamedAllocator@shdfnd@2@@shdfnd@2@@Z 000000018004f0e0     InflationConvexHullLib.obj
 0004:000010ec       $pdata$16$?calchullplanes@InflationConvexHullLib@physx@@IEAA_NPEBVPxVec3@2@AEAVHullTriangles@local@@AEAV?$Array@VPxPlane@physx@@VNamedAllocator@shdfnd@2@@shdfnd@2@@Z 000000018004f0ec     InflationConvexHullLib.obj
 0004:000010f8       $pdata$17$?calchullplanes@InflationConvexHullLib@physx@@IEAA_NPEBVPxVec3@2@AEAVHullTriangles@local@@AEAV?$Array@VPxPlane@physx@@VNamedAllocator@shdfnd@2@@shdfnd@2@@Z 000000018004f0f8     InflationConvexHullLib.obj
 0004:00001104       $pdata$?overhull@InflationConvexHullLib@physx@@IEAA_NPEBVPxVec3@2@IAEBV?$Array@VPxPlane@physx@@VNamedAllocator@shdfnd@2@@shdfnd@2@AEAPEAVConvexHull@2@@Z 000000018004f104     InflationConvexHullLib.obj
 0004:00001110       $pdata$13$?overhull@InflationConvexHullLib@physx@@IEAA_NPEBVPxVec3@2@IAEBV?$Array@VPxPlane@physx@@VNamedAllocator@shdfnd@2@@shdfnd@2@AEAPEAVConvexHull@2@@Z 000000018004f110     InflationConvexHullLib.obj
 0004:0000111c       $pdata$14$?overhull@InflationConvexHullLib@physx@@IEAA_NPEBVPxVec3@2@IAEBV?$Array@VPxPlane@physx@@VNamedAllocator@shdfnd@2@@shdfnd@2@AEAPEAVConvexHull@2@@Z 000000018004f11c     InflationConvexHullLib.obj
 0004:00001128       $pdata$15$?overhull@InflationConvexHullLib@physx@@IEAA_NPEBVPxVec3@2@IAEBV?$Array@VPxPlane@physx@@VNamedAllocator@shdfnd@2@@shdfnd@2@AEAPEAVConvexHull@2@@Z 000000018004f128     InflationConvexHullLib.obj
 0004:00001134       $pdata$16$?overhull@InflationConvexHullLib@physx@@IEAA_NPEBVPxVec3@2@IAEBV?$Array@VPxPlane@physx@@VNamedAllocator@shdfnd@2@@shdfnd@2@AEAPEAVConvexHull@2@@Z 000000018004f134     InflationConvexHullLib.obj
 0004:00001140       $pdata$17$?overhull@InflationConvexHullLib@physx@@IEAA_NPEBVPxVec3@2@IAEBV?$Array@VPxPlane@physx@@VNamedAllocator@shdfnd@2@@shdfnd@2@AEAPEAVConvexHull@2@@Z 000000018004f140     InflationConvexHullLib.obj
 0004:0000114c       $pdata$18$?overhull@InflationConvexHullLib@physx@@IEAA_NPEBVPxVec3@2@IAEBV?$Array@VPxPlane@physx@@VNamedAllocator@shdfnd@2@@shdfnd@2@AEAPEAVConvexHull@2@@Z 000000018004f14c     InflationConvexHullLib.obj
 0004:00001158       $pdata$19$?overhull@InflationConvexHullLib@physx@@IEAA_NPEBVPxVec3@2@IAEBV?$Array@VPxPlane@physx@@VNamedAllocator@shdfnd@2@@shdfnd@2@AEAPEAVConvexHull@2@@Z 000000018004f158     InflationConvexHullLib.obj
 0004:00001164       $pdata$20$?overhull@InflationConvexHullLib@physx@@IEAA_NPEBVPxVec3@2@IAEBV?$Array@VPxPlane@physx@@VNamedAllocator@shdfnd@2@@shdfnd@2@AEAPEAVConvexHull@2@@Z 000000018004f164     InflationConvexHullLib.obj
 0004:00001170       $pdata$?expandHull@InflationConvexHullLib@physx@@IEAA?AW4ErrorCode@ConvexHullLibResult@2@PEBVPxVec3@2@IAEBVHullTriangles@local@@AEAPEAVConvexHull@2@@Z 000000018004f170     InflationConvexHullLib.obj
 0004:0000117c       $pdata$1$?expandHull@InflationConvexHullLib@physx@@IEAA?AW4ErrorCode@ConvexHullLibResult@2@PEBVPxVec3@2@IAEBVHullTriangles@local@@AEAPEAVConvexHull@2@@Z 000000018004f17c     InflationConvexHullLib.obj
 0004:00001188       $pdata$2$?expandHull@InflationConvexHullLib@physx@@IEAA?AW4ErrorCode@ConvexHullLibResult@2@PEBVPxVec3@2@IAEBVHullTriangles@local@@AEAPEAVConvexHull@2@@Z 000000018004f188     InflationConvexHullLib.obj
 0004:00001194       $pdata$13$?expandHull@InflationConvexHullLib@physx@@IEAA?AW4ErrorCode@ConvexHullLibResult@2@PEBVPxVec3@2@IAEBVHullTriangles@local@@AEAPEAVConvexHull@2@@Z 000000018004f194     InflationConvexHullLib.obj
 0004:000011a0       $pdata$15$?expandHull@InflationConvexHullLib@physx@@IEAA?AW4ErrorCode@ConvexHullLibResult@2@PEBVPxVec3@2@IAEBVHullTriangles@local@@AEAPEAVConvexHull@2@@Z 000000018004f1a0     InflationConvexHullLib.obj
 0004:000011ac       $pdata$16$?expandHull@InflationConvexHullLib@physx@@IEAA?AW4ErrorCode@ConvexHullLibResult@2@PEBVPxVec3@2@IAEBVHullTriangles@local@@AEAPEAVConvexHull@2@@Z 000000018004f1ac     InflationConvexHullLib.obj
 0004:000011b8       $pdata$17$?expandHull@InflationConvexHullLib@physx@@IEAA?AW4ErrorCode@ConvexHullLibResult@2@PEBVPxVec3@2@IAEBVHullTriangles@local@@AEAPEAVConvexHull@2@@Z 000000018004f1b8     InflationConvexHullLib.obj
 0004:000011c4       $pdata$18$?expandHull@InflationConvexHullLib@physx@@IEAA?AW4ErrorCode@ConvexHullLibResult@2@PEBVPxVec3@2@IAEBVHullTriangles@local@@AEAPEAVConvexHull@2@@Z 000000018004f1c4     InflationConvexHullLib.obj
 0004:000011d0       $pdata$19$?expandHull@InflationConvexHullLib@physx@@IEAA?AW4ErrorCode@ConvexHullLibResult@2@PEBVPxVec3@2@IAEBVHullTriangles@local@@AEAPEAVConvexHull@2@@Z 000000018004f1d0     InflationConvexHullLib.obj
 0004:000011dc       $pdata$?expandHullOBB@InflationConvexHullLib@physx@@IEAA?AW4ErrorCode@ConvexHullLibResult@2@PEBVPxVec3@2@IAEBVHullTriangles@local@@AEAPEAVConvexHull@2@@Z 000000018004f1dc     InflationConvexHullLib.obj
 0004:000011e8       $pdata$2$?expandHullOBB@InflationConvexHullLib@physx@@IEAA?AW4ErrorCode@ConvexHullLibResult@2@PEBVPxVec3@2@IAEBVHullTriangles@local@@AEAPEAVConvexHull@2@@Z 000000018004f1e8     InflationConvexHullLib.obj
 0004:000011f4       $pdata$3$?expandHullOBB@InflationConvexHullLib@physx@@IEAA?AW4ErrorCode@ConvexHullLibResult@2@PEBVPxVec3@2@IAEBVHullTriangles@local@@AEAPEAVConvexHull@2@@Z 000000018004f1f4     InflationConvexHullLib.obj
 0004:00001200       $pdata$8$?expandHullOBB@InflationConvexHullLib@physx@@IEAA?AW4ErrorCode@ConvexHullLibResult@2@PEBVPxVec3@2@IAEBVHullTriangles@local@@AEAPEAVConvexHull@2@@Z 000000018004f200     InflationConvexHullLib.obj
 0004:0000120c       $pdata$14$?expandHullOBB@InflationConvexHullLib@physx@@IEAA?AW4ErrorCode@ConvexHullLibResult@2@PEBVPxVec3@2@IAEBVHullTriangles@local@@AEAPEAVConvexHull@2@@Z 000000018004f20c     InflationConvexHullLib.obj
 0004:00001218       $pdata$15$?expandHullOBB@InflationConvexHullLib@physx@@IEAA?AW4ErrorCode@ConvexHullLibResult@2@PEBVPxVec3@2@IAEBVHullTriangles@local@@AEAPEAVConvexHull@2@@Z 000000018004f218     InflationConvexHullLib.obj
 0004:00001224       $pdata$16$?expandHullOBB@InflationConvexHullLib@physx@@IEAA?AW4ErrorCode@ConvexHullLibResult@2@PEBVPxVec3@2@IAEBVHullTriangles@local@@AEAPEAVConvexHull@2@@Z 000000018004f224     InflationConvexHullLib.obj
 0004:00001230       $pdata$17$?expandHullOBB@InflationConvexHullLib@physx@@IEAA?AW4ErrorCode@ConvexHullLibResult@2@PEBVPxVec3@2@IAEBVHullTriangles@local@@AEAPEAVConvexHull@2@@Z 000000018004f230     InflationConvexHullLib.obj
 0004:0000123c       $pdata$18$?expandHullOBB@InflationConvexHullLib@physx@@IEAA?AW4ErrorCode@ConvexHullLibResult@2@PEBVPxVec3@2@IAEBVHullTriangles@local@@AEAPEAVConvexHull@2@@Z 000000018004f23c     InflationConvexHullLib.obj
 0004:00001248       $pdata$?maxIndexInDirFiltered@local@@YAHPEBVPxVec3@physx@@IAEBV23@PEA_N@Z 000000018004f248     InflationConvexHullLib.obj
 0004:00001254       $pdata$1$?maxIndexInDirFiltered@local@@YAHPEBVPxVec3@physx@@IAEBV23@PEA_N@Z 000000018004f254     InflationConvexHullLib.obj
 0004:00001260       $pdata$2$?maxIndexInDirFiltered@local@@YAHPEBVPxVec3@physx@@IAEBV23@PEA_N@Z 000000018004f260     InflationConvexHullLib.obj
 0004:0000126c       $pdata$?maxIndexInDirSterid@local@@YAHPEBVPxVec3@physx@@IAEBV23@AEAV?$Array@EVNamedAllocator@shdfnd@physx@@@shdfnd@3@@Z 000000018004f26c     InflationConvexHullLib.obj
 0004:00001278       $pdata$??_GInflationConvexHullLib@physx@@UEAAPEAXI@Z 000000018004f278     InflationConvexHullLib.obj
 0004:00001284       $pdata$??_GConvexHull@physx@@QEAAPEAXI@Z 000000018004f284     InflationConvexHullLib.obj
 0004:00001290       $pdata$?growAndPushBack@?$Array@EVNamedAllocator@shdfnd@physx@@@shdfnd@physx@@IEAAAEAEAEBE@Z 000000018004f290     InflationConvexHullLib.obj
 0004:0000129c       $pdata$2$?growAndPushBack@?$Array@EVNamedAllocator@shdfnd@physx@@@shdfnd@physx@@IEAAAEAEAEBE@Z 000000018004f29c     InflationConvexHullLib.obj
 0004:000012a8       $pdata$3$?growAndPushBack@?$Array@EVNamedAllocator@shdfnd@physx@@@shdfnd@physx@@IEAAAEAEAEBE@Z 000000018004f2a8     InflationConvexHullLib.obj
 0004:000012b4       $pdata$4$?growAndPushBack@?$Array@EVNamedAllocator@shdfnd@physx@@@shdfnd@physx@@IEAAAEAEAEBE@Z 000000018004f2b4     InflationConvexHullLib.obj
 0004:000012c0       $pdata$5$?growAndPushBack@?$Array@EVNamedAllocator@shdfnd@physx@@@shdfnd@physx@@IEAAAEAEAEBE@Z 000000018004f2c0     InflationConvexHullLib.obj
 0004:000012cc       $pdata$?recreate@?$Array@EVNamedAllocator@shdfnd@physx@@@shdfnd@physx@@IEAAXI@Z 000000018004f2cc     InflationConvexHullLib.obj
 0004:000012d8       $pdata$1$?recreate@?$Array@EVNamedAllocator@shdfnd@physx@@@shdfnd@physx@@IEAAXI@Z 000000018004f2d8     InflationConvexHullLib.obj
 0004:000012e4       $pdata$2$?recreate@?$Array@EVNamedAllocator@shdfnd@physx@@@shdfnd@physx@@IEAAXI@Z 000000018004f2e4     InflationConvexHullLib.obj
 0004:000012f0       $pdata$3$?recreate@?$Array@EVNamedAllocator@shdfnd@physx@@@shdfnd@physx@@IEAAXI@Z 000000018004f2f0     InflationConvexHullLib.obj
 0004:000012fc       $pdata$4$?recreate@?$Array@EVNamedAllocator@shdfnd@physx@@@shdfnd@physx@@IEAAXI@Z 000000018004f2fc     InflationConvexHullLib.obj
 0004:00001308       $pdata$?findSimplex@local@@YA?AVHullSimplex@1@PEBVPxVec3@physx@@IAEAV?$Array@EVNamedAllocator@shdfnd@physx@@@shdfnd@4@AEBV34@@Z 000000018004f308     InflationConvexHullLib.obj
 0004:00001314       $pdata$?neib@Tri@local@@QEAAAEAHHH@Z 000000018004f314     InflationConvexHullLib.obj
 0004:00001320       $pdata$?getNormal@Tri@local@@QEBA?AVPxVec3@physx@@PEBV34@@Z 000000018004f320     InflationConvexHullLib.obj
 0004:0000132c       $pdata$?createTri@HullTriangles@local@@QEAAPEAVTri@2@HHH@Z 000000018004f32c     InflationConvexHullLib.obj
 0004:00001338       $pdata$?findExtrudable@HullTriangles@local@@QEBAPEAVTri@2@M@Z 000000018004f338     InflationConvexHullLib.obj
 0004:00001344       $pdata$?b2bfix@HullTriangles@local@@IEAAXPEAVTri@2@0@Z 000000018004f344     InflationConvexHullLib.obj
 0004:00001350       $pdata$?removeb2b@HullTriangles@local@@IEAAXPEAVTri@2@0@Z 000000018004f350     InflationConvexHullLib.obj
 0004:0000135c       $pdata$?growAndPushBack@?$Array@PEAVTri@local@@VNamedAllocator@shdfnd@physx@@@shdfnd@physx@@IEAAAEAPEAVTri@local@@AEBQEAV45@@Z 000000018004f35c     InflationConvexHullLib.obj
 0004:00001368       $pdata$?recreate@?$Array@PEAVTri@local@@VNamedAllocator@shdfnd@physx@@@shdfnd@physx@@IEAAXI@Z 000000018004f368     InflationConvexHullLib.obj
 0004:00001374       $pdata$0$?recreate@?$Array@PEAVTri@local@@VNamedAllocator@shdfnd@physx@@@shdfnd@physx@@IEAAXI@Z 000000018004f374     InflationConvexHullLib.obj
 0004:00001380       $pdata$1$?recreate@?$Array@PEAVTri@local@@VNamedAllocator@shdfnd@physx@@@shdfnd@physx@@IEAAXI@Z 000000018004f380     InflationConvexHullLib.obj
 0004:0000138c       $pdata$?growAndPushBack@?$Array@UExpandPlane@local@@VNamedAllocator@shdfnd@physx@@@shdfnd@physx@@IEAAAEAUExpandPlane@local@@AEBU45@@Z 000000018004f38c     InflationConvexHullLib.obj
 0004:00001398       $pdata$?resize@?$Array@HVNamedAllocator@shdfnd@physx@@@shdfnd@physx@@QEAAXIAEBH@Z 000000018004f398     InflationConvexHullLib.obj
 0004:000013a4       $pdata$?growAndPushBack@?$Array@HVNamedAllocator@shdfnd@physx@@@shdfnd@physx@@IEAAAEAHAEBH@Z 000000018004f3a4     InflationConvexHullLib.obj
 0004:000013b0       $pdata$?recreate@?$Array@HVNamedAllocator@shdfnd@physx@@@shdfnd@physx@@IEAAXI@Z 000000018004f3b0     InflationConvexHullLib.obj
 0004:000013bc       $pdata$0$?recreate@?$Array@HVNamedAllocator@shdfnd@physx@@@shdfnd@physx@@IEAAXI@Z 000000018004f3bc     InflationConvexHullLib.obj
 0004:000013c8       $pdata$1$?recreate@?$Array@HVNamedAllocator@shdfnd@physx@@@shdfnd@physx@@IEAAXI@Z 000000018004f3c8     InflationConvexHullLib.obj
 0004:000013d4       $pdata$??__G@YAXPEAX0_K1P6APEAX00@Z@Z 000000018004f3d4     QuickHullConvexHullLib.obj
 0004:000013e0       $pdata$0$??__G@YAXPEAX0_K1P6APEAX00@Z@Z 000000018004f3e0     QuickHullConvexHullLib.obj
 0004:000013ec       $pdata$1$??__G@YAXPEAX0_K1P6APEAX00@Z@Z 000000018004f3ec     QuickHullConvexHullLib.obj
 0004:000013f8       $pdata$??0QuickHullConvexHullLib@physx@@QEAA@AEBVPxConvexMeshDesc@1@AEBUPxCookingParams@1@@Z 000000018004f3f8     QuickHullConvexHullLib.obj
 0004:00001404       $pdata$??1QuickHullConvexHullLib@physx@@UEAA@XZ 000000018004f404     QuickHullConvexHullLib.obj
 0004:00001410       $pdata$?createConvexHull@QuickHullConvexHullLib@physx@@UEAA?AW4Enum@PxConvexMeshCookingResult@2@XZ 000000018004f410     QuickHullConvexHullLib.obj
 0004:0000141c       $pdata$0$?createConvexHull@QuickHullConvexHullLib@physx@@UEAA?AW4Enum@PxConvexMeshCookingResult@2@XZ 000000018004f41c     QuickHullConvexHullLib.obj
 0004:00001428       $pdata$2$?createConvexHull@QuickHullConvexHullLib@physx@@UEAA?AW4Enum@PxConvexMeshCookingResult@2@XZ 000000018004f428     QuickHullConvexHullLib.obj
 0004:00001434       $pdata$3$?createConvexHull@QuickHullConvexHullLib@physx@@UEAA?AW4Enum@PxConvexMeshCookingResult@2@XZ 000000018004f434     QuickHullConvexHullLib.obj
 0004:00001440       $pdata$4$?createConvexHull@QuickHullConvexHullLib@physx@@UEAA?AW4Enum@PxConvexMeshCookingResult@2@XZ 000000018004f440     QuickHullConvexHullLib.obj
 0004:0000144c       $pdata$5$?createConvexHull@QuickHullConvexHullLib@physx@@UEAA?AW4Enum@PxConvexMeshCookingResult@2@XZ 000000018004f44c     QuickHullConvexHullLib.obj
 0004:00001458       $pdata$6$?createConvexHull@QuickHullConvexHullLib@physx@@UEAA?AW4Enum@PxConvexMeshCookingResult@2@XZ 000000018004f458     QuickHullConvexHullLib.obj
 0004:00001464       $pdata$7$?createConvexHull@QuickHullConvexHullLib@physx@@UEAA?AW4Enum@PxConvexMeshCookingResult@2@XZ 000000018004f464     QuickHullConvexHullLib.obj
 0004:00001470       $pdata$?fillConvexMeshDesc@QuickHullConvexHullLib@physx@@UEAAXAEAVPxConvexMeshDesc@2@@Z 000000018004f470     QuickHullConvexHullLib.obj
 0004:0000147c       $pdata$?createEdgeList@QuickHullConvexHullLib@physx@@UEAA_NIPEBEPEAPEAEPEAPEAG2@Z 000000018004f47c     QuickHullConvexHullLib.obj
 0004:00001488       $pdata$?expandHullOBB@QuickHullConvexHullLib@physx@@IEAA?AW4Enum@PxConvexMeshCookingResult@2@XZ 000000018004f488     QuickHullConvexHullLib.obj
 0004:00001494       $pdata$6$?expandHullOBB@QuickHullConvexHullLib@physx@@IEAA?AW4Enum@PxConvexMeshCookingResult@2@XZ 000000018004f494     QuickHullConvexHullLib.obj
 0004:000014a0       $pdata$7$?expandHullOBB@QuickHullConvexHullLib@physx@@IEAA?AW4Enum@PxConvexMeshCookingResult@2@XZ 000000018004f4a0     QuickHullConvexHullLib.obj
 0004:000014ac       $pdata$8$?expandHullOBB@QuickHullConvexHullLib@physx@@IEAA?AW4Enum@PxConvexMeshCookingResult@2@XZ 000000018004f4ac     QuickHullConvexHullLib.obj
 0004:000014b8       $pdata$9$?expandHullOBB@QuickHullConvexHullLib@physx@@IEAA?AW4Enum@PxConvexMeshCookingResult@2@XZ 000000018004f4b8     QuickHullConvexHullLib.obj
 0004:000014c4       $pdata$?expandHull@QuickHullConvexHullLib@physx@@IEAA?AW4Enum@PxConvexMeshCookingResult@2@XZ 000000018004f4c4     QuickHullConvexHullLib.obj
 0004:000014d0       $pdata$?cleanupForSimplex@QuickHullConvexHullLib@physx@@IEAA_NPEAVPxVec3@2@IPEAUQuickHullVertex@local@@1AEAM2@Z 000000018004f4d0     QuickHullConvexHullLib.obj
 0004:000014dc       $pdata$0$?cleanupForSimplex@QuickHullConvexHullLib@physx@@IEAA_NPEAVPxVec3@2@IPEAUQuickHullVertex@local@@1AEAM2@Z 000000018004f4dc     QuickHullConvexHullLib.obj
 0004:000014e8       $pdata$3$?cleanupForSimplex@QuickHullConvexHullLib@physx@@IEAA_NPEAVPxVec3@2@IPEAUQuickHullVertex@local@@1AEAM2@Z 000000018004f4e8     QuickHullConvexHullLib.obj
 0004:000014f4       $pdata$5$?cleanupForSimplex@QuickHullConvexHullLib@physx@@IEAA_NPEAVPxVec3@2@IPEAUQuickHullVertex@local@@1AEAM2@Z 000000018004f4f4     QuickHullConvexHullLib.obj
 0004:00001500       $pdata$6$?cleanupForSimplex@QuickHullConvexHullLib@physx@@IEAA_NPEAVPxVec3@2@IPEAUQuickHullVertex@local@@1AEAM2@Z 000000018004f500     QuickHullConvexHullLib.obj
 0004:0000150c       $pdata$7$?cleanupForSimplex@QuickHullConvexHullLib@physx@@IEAA_NPEAVPxVec3@2@IPEAUQuickHullVertex@local@@1AEAM2@Z 000000018004f50c     QuickHullConvexHullLib.obj
 0004:00001518       $pdata$8$?cleanupForSimplex@QuickHullConvexHullLib@physx@@IEAA_NPEAVPxVec3@2@IPEAUQuickHullVertex@local@@1AEAM2@Z 000000018004f518     QuickHullConvexHullLib.obj
 0004:00001524       $pdata$9$?cleanupForSimplex@QuickHullConvexHullLib@physx@@IEAA_NPEAVPxVec3@2@IPEAUQuickHullVertex@local@@1AEAM2@Z 000000018004f524     QuickHullConvexHullLib.obj
 0004:00001530       $pdata$10$?cleanupForSimplex@QuickHullConvexHullLib@physx@@IEAA_NPEAVPxVec3@2@IPEAUQuickHullVertex@local@@1AEAM2@Z 000000018004f530     QuickHullConvexHullLib.obj
 0004:0000153c       $pdata$11$?cleanupForSimplex@QuickHullConvexHullLib@physx@@IEAA_NPEAVPxVec3@2@IPEAUQuickHullVertex@local@@1AEAM2@Z 000000018004f53c     QuickHullConvexHullLib.obj
 0004:00001548       $pdata$12$?cleanupForSimplex@QuickHullConvexHullLib@physx@@IEAA_NPEAVPxVec3@2@IPEAUQuickHullVertex@local@@1AEAM2@Z 000000018004f548     QuickHullConvexHullLib.obj
 0004:00001554       $pdata$?fillConvexMeshDescFromQuickHull@QuickHullConvexHullLib@physx@@IEAAXAEAVPxConvexMeshDesc@2@@Z 000000018004f554     QuickHullConvexHullLib.obj
 0004:00001560       $pdata$?fillConvexMeshDescFromCroppedHull@QuickHullConvexHullLib@physx@@IEAAXAEAVPxConvexMeshDesc@2@@Z 000000018004f560     QuickHullConvexHullLib.obj
 0004:0000156c       $pdata$?mergeAdjacentFace@QuickHullFace@local@@QEAA_NPEAUQuickHullHalfEdge@2@AEAV?$Array@PEAUQuickHullFace@local@@VNamedAllocator@shdfnd@physx@@@shdfnd@physx@@@Z 000000018004f56c     QuickHullConvexHullLib.obj
 0004:00001578       $pdata$4$?mergeAdjacentFace@QuickHullFace@local@@QEAA_NPEAUQuickHullHalfEdge@2@AEAV?$Array@PEAUQuickHullFace@local@@VNamedAllocator@shdfnd@physx@@@shdfnd@physx@@@Z 000000018004f578     QuickHullConvexHullLib.obj
 0004:00001584       $pdata$5$?mergeAdjacentFace@QuickHullFace@local@@QEAA_NPEAUQuickHullHalfEdge@2@AEAV?$Array@PEAUQuickHullFace@local@@VNamedAllocator@shdfnd@physx@@@shdfnd@physx@@@Z 000000018004f584     QuickHullConvexHullLib.obj
 0004:00001590       $pdata$6$?mergeAdjacentFace@QuickHullFace@local@@QEAA_NPEAUQuickHullHalfEdge@2@AEAV?$Array@PEAUQuickHullFace@local@@VNamedAllocator@shdfnd@physx@@@shdfnd@physx@@@Z 000000018004f590     QuickHullConvexHullLib.obj
 0004:0000159c       $pdata$7$?mergeAdjacentFace@QuickHullFace@local@@QEAA_NPEAUQuickHullHalfEdge@2@AEAV?$Array@PEAUQuickHullFace@local@@VNamedAllocator@shdfnd@physx@@@shdfnd@physx@@@Z 000000018004f59c     QuickHullConvexHullLib.obj
 0004:000015a8       $pdata$8$?mergeAdjacentFace@QuickHullFace@local@@QEAA_NPEAUQuickHullHalfEdge@2@AEAV?$Array@PEAUQuickHullFace@local@@VNamedAllocator@shdfnd@physx@@@shdfnd@physx@@@Z 000000018004f5a8     QuickHullConvexHullLib.obj
 0004:000015b4       $pdata$?connectHalfEdges@QuickHullFace@local@@AEAAPEAU12@PEAUQuickHullHalfEdge@2@0@Z 000000018004f5b4     QuickHullConvexHullLib.obj
 0004:000015c0       $pdata$0$?connectHalfEdges@QuickHullFace@local@@AEAAPEAU12@PEAUQuickHullHalfEdge@2@0@Z 000000018004f5c0     QuickHullConvexHullLib.obj
 0004:000015cc       $pdata$4$?connectHalfEdges@QuickHullFace@local@@AEAAPEAU12@PEAUQuickHullHalfEdge@2@0@Z 000000018004f5cc     QuickHullConvexHullLib.obj
 0004:000015d8       $pdata$5$?connectHalfEdges@QuickHullFace@local@@AEAAPEAU12@PEAUQuickHullHalfEdge@2@0@Z 000000018004f5d8     QuickHullConvexHullLib.obj
 0004:000015e4       $pdata$6$?connectHalfEdges@QuickHullFace@local@@AEAAPEAU12@PEAUQuickHullHalfEdge@2@0@Z 000000018004f5e4     QuickHullConvexHullLib.obj
 0004:000015f0       $pdata$??0QuickHull@local@@QEAA@AEBUPxCookingParams@physx@@AEBVPxConvexMeshDesc@3@@Z 000000018004f5f0     QuickHullConvexHullLib.obj
 0004:000015fc       $pdata$??1QuickHull@local@@QEAA@XZ 000000018004f5fc     QuickHullConvexHullLib.obj
 0004:00001608       $pdata$?preallocate@QuickHull@local@@QEAAXI@Z 000000018004f608     QuickHullConvexHullLib.obj
 0004:00001614       $pdata$?parseInputVertices@QuickHull@local@@QEAAXPEBVPxVec3@physx@@I@Z 000000018004f614     QuickHullConvexHullLib.obj
 0004:00001620       $pdata$0$?parseInputVertices@QuickHull@local@@QEAAXPEBVPxVec3@physx@@I@Z 000000018004f620     QuickHullConvexHullLib.obj
 0004:0000162c       $pdata$1$?parseInputVertices@QuickHull@local@@QEAAXPEBVPxVec3@physx@@I@Z 000000018004f62c     QuickHullConvexHullLib.obj
 0004:00001638       $pdata$?releaseHull@QuickHull@local@@QEAAXXZ 000000018004f638     QuickHullConvexHullLib.obj
 0004:00001644       $pdata$?buildHull@QuickHull@local@@QEAA?AW4Enum@QuickHullResult@2@XZ 000000018004f644     QuickHullConvexHullLib.obj
 0004:00001650       $pdata$?computeMinMaxVerts@QuickHull@local@@IEAAXXZ 000000018004f650     QuickHullConvexHullLib.obj
 0004:0000165c       $pdata$?findSimplex@QuickHull@local@@IEAA_NXZ 000000018004f65c     QuickHullConvexHullLib.obj
 0004:00001668       $pdata$8$?findSimplex@QuickHull@local@@IEAA_NXZ 000000018004f668     QuickHullConvexHullLib.obj
 0004:00001674       $pdata$10$?findSimplex@QuickHull@local@@IEAA_NXZ 000000018004f674     QuickHullConvexHullLib.obj
 0004:00001680       $pdata$11$?findSimplex@QuickHull@local@@IEAA_NXZ 000000018004f680     QuickHullConvexHullLib.obj
 0004:0000168c       $pdata$12$?findSimplex@QuickHull@local@@IEAA_NXZ 000000018004f68c     QuickHullConvexHullLib.obj
 0004:00001698       $pdata$13$?findSimplex@QuickHull@local@@IEAA_NXZ 000000018004f698     QuickHullConvexHullLib.obj
 0004:000016a4       $pdata$14$?findSimplex@QuickHull@local@@IEAA_NXZ 000000018004f6a4     QuickHullConvexHullLib.obj
 0004:000016b0       $pdata$?addSimplex@QuickHull@local@@IEAAXPEAUQuickHullVertex@2@_N@Z 000000018004f6b0     QuickHullConvexHullLib.obj
 0004:000016bc       $pdata$2$?addSimplex@QuickHull@local@@IEAAXPEAUQuickHullVertex@2@_N@Z 000000018004f6bc     QuickHullConvexHullLib.obj
 0004:000016c8       $pdata$8$?addSimplex@QuickHull@local@@IEAAXPEAUQuickHullVertex@2@_N@Z 000000018004f6c8     QuickHullConvexHullLib.obj
 0004:000016d4       $pdata$3$?addSimplex@QuickHull@local@@IEAAXPEAUQuickHullVertex@2@_N@Z 000000018004f6d4     QuickHullConvexHullLib.obj
 0004:000016e0       $pdata$?nextPointToAdd@QuickHull@local@@IEAAPEAUQuickHullVertex@2@AEAPEAUQuickHullFace@2@@Z 000000018004f6e0     QuickHullConvexHullLib.obj
 0004:000016ec       $pdata$?addPointToHull@QuickHull@local@@IEAA_NPEBUQuickHullVertex@2@AEAUQuickHullFace@2@AEA_N@Z 000000018004f6ec     QuickHullConvexHullLib.obj
 0004:000016f8       $pdata$3$?addPointToHull@QuickHull@local@@IEAA_NPEBUQuickHullVertex@2@AEAUQuickHullFace@2@AEA_N@Z 000000018004f6f8     QuickHullConvexHullLib.obj
 0004:00001704       $pdata$4$?addPointToHull@QuickHull@local@@IEAA_NPEBUQuickHullVertex@2@AEAUQuickHullFace@2@AEA_N@Z 000000018004f704     QuickHullConvexHullLib.obj
 0004:00001710       $pdata$5$?addPointToHull@QuickHull@local@@IEAA_NPEBUQuickHullVertex@2@AEAUQuickHullFace@2@AEA_N@Z 000000018004f710     QuickHullConvexHullLib.obj
 0004:0000171c       $pdata$6$?addPointToHull@QuickHull@local@@IEAA_NPEBUQuickHullVertex@2@AEAUQuickHullFace@2@AEA_N@Z 000000018004f71c     QuickHullConvexHullLib.obj
 0004:00001728       $pdata$?createTriangle@QuickHull@local@@IEAAPEAUQuickHullFace@2@AEBUQuickHullVertex@2@00@Z 000000018004f728     QuickHullConvexHullLib.obj
 0004:00001734       $pdata$?calculateHorizon@QuickHull@local@@IEAAXAEBVPxVec3@physx@@PEAUQuickHullHalfEdge@2@AEAUQuickHullFace@2@AEAV?$Array@PEAUQuickHullHalfEdge@local@@VNamedAllocator@shdfnd@physx@@@shdfnd@4@AEAV?$Array@PEAUQuickHullFace@local@@VNamedAllocator@shdfnd@physx@@@84@@Z 000000018004f734     QuickHullConvexHullLib.obj
 0004:00001740       $pdata$?addNewFacesFromHorizon@QuickHull@local@@IEAAXPEBUQuickHullVertex@2@AEBV?$Array@PEAUQuickHullHalfEdge@local@@VNamedAllocator@shdfnd@physx@@@shdfnd@physx@@AEAV?$Array@PEAUQuickHullFace@local@@VNamedAllocator@shdfnd@physx@@@56@@Z 000000018004f740     QuickHullConvexHullLib.obj
 0004:0000174c       $pdata$2$?addNewFacesFromHorizon@QuickHull@local@@IEAAXPEBUQuickHullVertex@2@AEBV?$Array@PEAUQuickHullHalfEdge@local@@VNamedAllocator@shdfnd@physx@@@shdfnd@physx@@AEAV?$Array@PEAUQuickHullFace@local@@VNamedAllocator@shdfnd@physx@@@56@@Z 000000018004f74c     QuickHullConvexHullLib.obj
 0004:00001758       $pdata$3$?addNewFacesFromHorizon@QuickHull@local@@IEAAXPEBUQuickHullVertex@2@AEBV?$Array@PEAUQuickHullHalfEdge@local@@VNamedAllocator@shdfnd@physx@@@shdfnd@physx@@AEAV?$Array@PEAUQuickHullFace@local@@VNamedAllocator@shdfnd@physx@@@56@@Z 000000018004f758     QuickHullConvexHullLib.obj
 0004:00001764       $pdata$?doAdjacentMerge@QuickHull@local@@IEAA_NAEAUQuickHullFace@2@_NAEA_N@Z 000000018004f764     QuickHullConvexHullLib.obj
 0004:00001770       $pdata$1$?doAdjacentMerge@QuickHull@local@@IEAA_NAEAUQuickHullFace@2@_NAEA_N@Z 000000018004f770     QuickHullConvexHullLib.obj
 0004:0000177c       $pdata$?doPostAdjacentMerge@QuickHull@local@@IEAA_NAEAUQuickHullFace@2@M@Z 000000018004f77c     QuickHullConvexHullLib.obj
 0004:00001788       $pdata$0$?doPostAdjacentMerge@QuickHull@local@@IEAA_NAEAUQuickHullFace@2@M@Z 000000018004f788     QuickHullConvexHullLib.obj
 0004:00001794       $pdata$1$?doPostAdjacentMerge@QuickHull@local@@IEAA_NAEAUQuickHullFace@2@M@Z 000000018004f794     QuickHullConvexHullLib.obj
 0004:000017a0       $pdata$?deleteFacePoints@QuickHull@local@@IEAAXAEAUQuickHullFace@2@PEAU32@@Z 000000018004f7a0     QuickHullConvexHullLib.obj
 0004:000017ac       $pdata$0$?deleteFacePoints@QuickHull@local@@IEAAXAEAUQuickHullFace@2@PEAU32@@Z 000000018004f7ac     QuickHullConvexHullLib.obj
 0004:000017b8       $pdata$1$?deleteFacePoints@QuickHull@local@@IEAAXAEAUQuickHullFace@2@PEAU32@@Z 000000018004f7b8     QuickHullConvexHullLib.obj
 0004:000017c4       $pdata$?resolveUnclaimedPoints@QuickHull@local@@IEAAXAEBV?$Array@PEAUQuickHullFace@local@@VNamedAllocator@shdfnd@physx@@@shdfnd@physx@@@Z 000000018004f7c4     QuickHullConvexHullLib.obj
 0004:000017d0       $pdata$?postMergeHull@QuickHull@local@@IEAAXXZ 000000018004f7d0     QuickHullConvexHullLib.obj
 0004:000017dc       $pdata$2$?postMergeHull@QuickHull@local@@IEAAXXZ 000000018004f7dc     QuickHullConvexHullLib.obj
 0004:000017e8       $pdata$3$?postMergeHull@QuickHull@local@@IEAAXXZ 000000018004f7e8     QuickHullConvexHullLib.obj
 0004:000017f4       $pdata$4$?postMergeHull@QuickHull@local@@IEAAXXZ 000000018004f7f4     QuickHullConvexHullLib.obj
 0004:00001800       $pdata$?canMergeFaces@QuickHull@local@@IEAA_NAEBUQuickHullHalfEdge@2@@Z 000000018004f800     QuickHullConvexHullLib.obj
 0004:0000180c       $pdata$??_GQuickHullConvexHullLib@physx@@UEAAPEAXI@Z 000000018004f80c     QuickHullConvexHullLib.obj
 0004:00001818       $pdata$?init@?$MemBlock@UQuickHullHalfEdge@local@@$0A@@local@@QEAAXI@Z 000000018004f818     QuickHullConvexHullLib.obj
 0004:00001824       $pdata$??1?$MemBlock@UQuickHullHalfEdge@local@@$0A@@local@@QEAA@XZ 000000018004f824     QuickHullConvexHullLib.obj
 0004:00001830       $pdata$0$??1?$MemBlock@UQuickHullHalfEdge@local@@$0A@@local@@QEAA@XZ 000000018004f830     QuickHullConvexHullLib.obj
 0004:0000183c       $pdata$1$??1?$MemBlock@UQuickHullHalfEdge@local@@$0A@@local@@QEAA@XZ 000000018004f83c     QuickHullConvexHullLib.obj
 0004:00001848       $pdata$2$??1?$MemBlock@UQuickHullHalfEdge@local@@$0A@@local@@QEAA@XZ 000000018004f848     QuickHullConvexHullLib.obj
 0004:00001854       $pdata$3$??1?$MemBlock@UQuickHullHalfEdge@local@@$0A@@local@@QEAA@XZ 000000018004f854     QuickHullConvexHullLib.obj
 0004:00001860       $pdata$?getFreeItem@?$MemBlock@UQuickHullHalfEdge@local@@$0A@@local@@QEAAPEAUQuickHullHalfEdge@2@XZ 000000018004f860     QuickHullConvexHullLib.obj
 0004:0000186c       $pdata$?growAndPushBack@?$Array@PEAUQuickHullHalfEdge@local@@VNamedAllocator@shdfnd@physx@@@shdfnd@physx@@IEAAAEAPEAUQuickHullHalfEdge@local@@AEBQEAU45@@Z 000000018004f86c     QuickHullConvexHullLib.obj
 0004:00001878       $pdata$?recreate@?$Array@PEAUQuickHullHalfEdge@local@@VNamedAllocator@shdfnd@physx@@@shdfnd@physx@@IEAAXI@Z 000000018004f878     QuickHullConvexHullLib.obj
 0004:00001884       $pdata$0$?recreate@?$Array@PEAUQuickHullHalfEdge@local@@VNamedAllocator@shdfnd@physx@@@shdfnd@physx@@IEAAXI@Z 000000018004f884     QuickHullConvexHullLib.obj
 0004:00001890       $pdata$1$?recreate@?$Array@PEAUQuickHullHalfEdge@local@@VNamedAllocator@shdfnd@physx@@@shdfnd@physx@@IEAAXI@Z 000000018004f890     QuickHullConvexHullLib.obj
 0004:0000189c       $pdata$?init@?$MemBlock@UQuickHullFace@local@@$00@local@@QEAAXI@Z 000000018004f89c     QuickHullConvexHullLib.obj
 0004:000018a8       $pdata$??1?$MemBlock@UQuickHullFace@local@@$00@local@@QEAA@XZ 000000018004f8a8     QuickHullConvexHullLib.obj
 0004:000018b4       $pdata$0$??1?$MemBlock@UQuickHullFace@local@@$00@local@@QEAA@XZ 000000018004f8b4     QuickHullConvexHullLib.obj
 0004:000018c0       $pdata$1$??1?$MemBlock@UQuickHullFace@local@@$00@local@@QEAA@XZ 000000018004f8c0     QuickHullConvexHullLib.obj
 0004:000018cc       $pdata$2$??1?$MemBlock@UQuickHullFace@local@@$00@local@@QEAA@XZ 000000018004f8cc     QuickHullConvexHullLib.obj
 0004:000018d8       $pdata$3$??1?$MemBlock@UQuickHullFace@local@@$00@local@@QEAA@XZ 000000018004f8d8     QuickHullConvexHullLib.obj
 0004:000018e4       $pdata$?getFreeItem@?$MemBlock@UQuickHullFace@local@@$00@local@@QEAAPEAUQuickHullFace@2@XZ 000000018004f8e4     QuickHullConvexHullLib.obj
 0004:000018f0       $pdata$?growAndPushBack@?$Array@PEAUQuickHullFace@local@@VNamedAllocator@shdfnd@physx@@@shdfnd@physx@@IEAAAEAPEAUQuickHullFace@local@@AEBQEAU45@@Z 000000018004f8f0     QuickHullConvexHullLib.obj
 0004:000018fc       $pdata$?recreate@?$Array@PEAUQuickHullFace@local@@VNamedAllocator@shdfnd@physx@@@shdfnd@physx@@IEAAXI@Z 000000018004f8fc     QuickHullConvexHullLib.obj
 0004:00001908       $pdata$0$?recreate@?$Array@PEAUQuickHullFace@local@@VNamedAllocator@shdfnd@physx@@@shdfnd@physx@@IEAAXI@Z 000000018004f908     QuickHullConvexHullLib.obj
 0004:00001914       $pdata$1$?recreate@?$Array@PEAUQuickHullFace@local@@VNamedAllocator@shdfnd@physx@@@shdfnd@physx@@IEAAXI@Z 000000018004f914     QuickHullConvexHullLib.obj
 0004:00001920       $pdata$?growAndPushBack@?$Array@PEAUQuickHullVertex@local@@VNamedAllocator@shdfnd@physx@@@shdfnd@physx@@IEAAAEAPEAUQuickHullVertex@local@@AEBQEAU45@@Z 000000018004f920     QuickHullConvexHullLib.obj
 0004:0000192c       $pdata$?recreate@?$Array@PEAUQuickHullVertex@local@@VNamedAllocator@shdfnd@physx@@@shdfnd@physx@@IEAAXI@Z 000000018004f92c     QuickHullConvexHullLib.obj
 0004:00001938       $pdata$0$?recreate@?$Array@PEAUQuickHullVertex@local@@VNamedAllocator@shdfnd@physx@@@shdfnd@physx@@IEAAXI@Z 000000018004f938     QuickHullConvexHullLib.obj
 0004:00001944       $pdata$1$?recreate@?$Array@PEAUQuickHullVertex@local@@VNamedAllocator@shdfnd@physx@@@shdfnd@physx@@IEAAXI@Z 000000018004f944     QuickHullConvexHullLib.obj
 0004:00001950       $pdata$?growAndPushBack@?$Array@UExpandPoint@local@@VNamedAllocator@shdfnd@physx@@@shdfnd@physx@@IEAAAEAUExpandPoint@local@@AEBU45@@Z 000000018004f950     QuickHullConvexHullLib.obj
 0004:0000195c       $pdata$0$?growAndPushBack@?$Array@UExpandPoint@local@@VNamedAllocator@shdfnd@physx@@@shdfnd@physx@@IEAAAEAUExpandPoint@local@@AEBU45@@Z 000000018004f95c     QuickHullConvexHullLib.obj
 0004:00001968       $pdata$1$?growAndPushBack@?$Array@UExpandPoint@local@@VNamedAllocator@shdfnd@physx@@@shdfnd@physx@@IEAAAEAUExpandPoint@local@@AEBU45@@Z 000000018004f968     QuickHullConvexHullLib.obj
 0004:00001974       $pdata$2$?growAndPushBack@?$Array@UExpandPoint@local@@VNamedAllocator@shdfnd@physx@@@shdfnd@physx@@IEAAAEAUExpandPoint@local@@AEBU45@@Z 000000018004f974     QuickHullConvexHullLib.obj
 0004:00001980       $pdata$3$?growAndPushBack@?$Array@UExpandPoint@local@@VNamedAllocator@shdfnd@physx@@@shdfnd@physx@@IEAAAEAUExpandPoint@local@@AEBU45@@Z 000000018004f980     QuickHullConvexHullLib.obj
 0004:0000198c       $pdata$?recreate@?$Array@UExpandPoint@local@@VNamedAllocator@shdfnd@physx@@@shdfnd@physx@@IEAAXI@Z 000000018004f98c     QuickHullConvexHullLib.obj
 0004:00001998       $pdata$0$?recreate@?$Array@UExpandPoint@local@@VNamedAllocator@shdfnd@physx@@@shdfnd@physx@@IEAAXI@Z 000000018004f998     QuickHullConvexHullLib.obj
 0004:000019a4       $pdata$1$?recreate@?$Array@UExpandPoint@local@@VNamedAllocator@shdfnd@physx@@@shdfnd@physx@@IEAAXI@Z 000000018004f9a4     QuickHullConvexHullLib.obj
 0004:000019b0       $pdata$?computeVolumeIntegrals@physx@@YA_NAEBVPxSimpleTriangleMesh@1@MAEAUPxIntegrals@1@@Z 000000018004f9b0     VolumeIntegration.obj
 0004:000019bc       $pdata$?computeVolumeIntegralsEberly@physx@@YA_NAEBVPxConvexMeshDesc@1@MAEAUPxIntegrals@1@AEBVPxVec3@1@@Z 000000018004f9bc     VolumeIntegration.obj
 0004:000019c8       $pdata$?computeVolumeIntegralsEberlySIMD@physx@@YA_NAEBVPxConvexMeshDesc@1@MAEAUPxIntegrals@1@AEBVPxVec3@1@@Z 000000018004f9c8     VolumeIntegration.obj
 0004:000019d4       $pdata$?computeVolumeIntegrals@VolumeIntegrator@?A0x0a1571c3@physx@@QEAA_NAEAUPxIntegrals@3@@Z 000000018004f9d4     VolumeIntegration.obj
 0004:000019e0       $pdata$?computeProjectionIntegrals@VolumeIntegrator@?A0x0a1571c3@physx@@AEAAXAEBUFace@123@@Z 000000018004f9e0     VolumeIntegration.obj
 0004:000019ec       $pdata$?computeFaceIntegrals@VolumeIntegrator@?A0x0a1571c3@physx@@AEAAXAEBUFace@123@@Z 000000018004f9ec     VolumeIntegration.obj
 0004:000019f8       $pdata$?computeVolumeIntegralsSIMD@VolumeIntegratorEberly@?A0x0a1571c3@physx@@QEAA_NAEAUPxIntegrals@3@AEBVPxVec3@3@@Z 000000018004f9f8     VolumeIntegration.obj
 0004:00001a04       $pdata$0$?computeVolumeIntegralsSIMD@VolumeIntegratorEberly@?A0x0a1571c3@physx@@QEAA_NAEAUPxIntegrals@3@AEBVPxVec3@3@@Z 000000018004fa04     VolumeIntegration.obj
 0004:00001a10       $pdata$2$?computeVolumeIntegralsSIMD@VolumeIntegratorEberly@?A0x0a1571c3@physx@@QEAA_NAEAUPxIntegrals@3@AEBVPxVec3@3@@Z 000000018004fa10     VolumeIntegration.obj
 0004:00001a1c       $pdata$3$?computeVolumeIntegralsSIMD@VolumeIntegratorEberly@?A0x0a1571c3@physx@@QEAA_NAEAUPxIntegrals@3@AEBVPxVec3@3@@Z 000000018004fa1c     VolumeIntegration.obj
 0004:00001a28       $pdata$4$?computeVolumeIntegralsSIMD@VolumeIntegratorEberly@?A0x0a1571c3@physx@@QEAA_NAEAUPxIntegrals@3@AEBVPxVec3@3@@Z 000000018004fa28     VolumeIntegration.obj
 0004:00001a34       $pdata$?computeVolumeIntegrals@VolumeIntegratorEberly@?A0x0a1571c3@physx@@QEAA_NAEAUPxIntegrals@3@AEBVPxVec3@3@@Z 000000018004fa34     VolumeIntegration.obj
 0004:00001a40       $pdata$0$?computeVolumeIntegrals@VolumeIntegratorEberly@?A0x0a1571c3@physx@@QEAA_NAEAUPxIntegrals@3@AEBVPxVec3@3@@Z 000000018004fa40     VolumeIntegration.obj
 0004:00001a4c       $pdata$6$?computeVolumeIntegrals@VolumeIntegratorEberly@?A0x0a1571c3@physx@@QEAA_NAEAUPxIntegrals@3@AEBVPxVec3@3@@Z 000000018004fa4c     VolumeIntegration.obj
 0004:00001a58       $pdata$7$?computeVolumeIntegrals@VolumeIntegratorEberly@?A0x0a1571c3@physx@@QEAA_NAEAUPxIntegrals@3@AEBVPxVec3@3@@Z 000000018004fa58     VolumeIntegration.obj
 0004:00001a64       $pdata$8$?computeVolumeIntegrals@VolumeIntegratorEberly@?A0x0a1571c3@physx@@QEAA_NAEAUPxIntegrals@3@AEBVPxVec3@3@@Z 000000018004fa64     VolumeIntegration.obj
 0004:00001a70       $pdata$??_I@YAXPEAX_K1P6AX0@Z@Z 000000018004fa70     Adjacencies.obj
 0004:00001a7c       $pdata$??_EAdjTriangle@physx@@QEAAPEAXI@Z 000000018004fa7c     Adjacencies.obj
 0004:00001a88       $pdata$??1Adjacencies@physx@@QEAA@XZ 000000018004fa88     Adjacencies.obj
 0004:00001a94       $pdata$0$??1Adjacencies@physx@@QEAA@XZ 000000018004fa94     Adjacencies.obj
 0004:00001aa0       $pdata$2$??1Adjacencies@physx@@QEAA@XZ 000000018004faa0     Adjacencies.obj
 0004:00001aac       $pdata$3$??1Adjacencies@physx@@QEAA@XZ 000000018004faac     Adjacencies.obj
 0004:00001ab8       $pdata$?Load@Adjacencies@physx@@QEAA_NAEAVPxInputStream@2@@Z 000000018004fab8     Adjacencies.obj
 0004:00001ac4       $pdata$?GetBoundaryVertices@Adjacencies@physx@@QEBA_NIPEA_NPEBU?$TriangleT@I@Gu@2@@Z 000000018004fac4     Adjacencies.obj
 0004:00001ad0       $pdata$?MakeLastRef@Adjacencies@physx@@QEAA_NAEAVAdjTriangle@2@IPEAU?$TriangleT@I@Gu@2@@Z 000000018004fad0     Adjacencies.obj
 0004:00001adc       $pdata$1$?MakeLastRef@Adjacencies@physx@@QEAA_NAEAVAdjTriangle@2@IPEAU?$TriangleT@I@Gu@2@@Z 000000018004fadc     Adjacencies.obj
 0004:00001ae8       $pdata$3$?MakeLastRef@Adjacencies@physx@@QEAA_NAEAVAdjTriangle@2@IPEAU?$TriangleT@I@Gu@2@@Z 000000018004fae8     Adjacencies.obj
 0004:00001af4       $pdata$5$?MakeLastRef@Adjacencies@physx@@QEAA_NAEAVAdjTriangle@2@IPEAU?$TriangleT@I@Gu@2@@Z 000000018004faf4     Adjacencies.obj
 0004:00001b00       $pdata$7$?MakeLastRef@Adjacencies@physx@@QEAA_NAEAVAdjTriangle@2@IPEAU?$TriangleT@I@Gu@2@@Z 000000018004fb00     Adjacencies.obj
 0004:00001b0c       $pdata$?Init@AdjacenciesBuilder@physx@@QEAA_NAEBUADJACENCIESCREATE@2@@Z 000000018004fb0c     Adjacencies.obj
 0004:00001b18       $pdata$3$?Init@AdjacenciesBuilder@physx@@QEAA_NAEBUADJACENCIESCREATE@2@@Z 000000018004fb18     Adjacencies.obj
 0004:00001b24       $pdata$4$?Init@AdjacenciesBuilder@physx@@QEAA_NAEBUADJACENCIESCREATE@2@@Z 000000018004fb24     Adjacencies.obj
 0004:00001b30       $pdata$5$?Init@AdjacenciesBuilder@physx@@QEAA_NAEBUADJACENCIESCREATE@2@@Z 000000018004fb30     Adjacencies.obj
 0004:00001b3c       $pdata$??$?_UV?$ReflectionAllocator@VAdjTriangle@physx@@@shdfnd@physx@@@UserAllocated@shdfnd@physx@@SAPEAX_KV?$ReflectionAllocator@VAdjTriangle@physx@@@12@PEBDH@Z 000000018004fb3c     Adjacencies.obj
 0004:00001b48       $pdata$0$??$?_UV?$ReflectionAllocator@VAdjTriangle@physx@@@shdfnd@physx@@@UserAllocated@shdfnd@physx@@SAPEAX_KV?$ReflectionAllocator@VAdjTriangle@physx@@@12@PEBDH@Z 000000018004fb48     Adjacencies.obj
 0004:00001b54       $pdata$1$??$?_UV?$ReflectionAllocator@VAdjTriangle@physx@@@shdfnd@physx@@@UserAllocated@shdfnd@physx@@SAPEAX_KV?$ReflectionAllocator@VAdjTriangle@physx@@@12@PEBDH@Z 000000018004fb54     Adjacencies.obj
 0004:00001b60       $pdata$??_EAdjEdge@@QEAAPEAXI@Z 000000018004fb60     Adjacencies.obj
 0004:00001b6c       $pdata$?UpdateLink@@YA_NIIIIPEAVAdjTriangle@physx@@AEBUADJACENCIESCREATE@2@@Z 000000018004fb6c     Adjacencies.obj
 0004:00001b78       $pdata$3$?UpdateLink@@YA_NIIIIPEAVAdjTriangle@physx@@AEBUADJACENCIESCREATE@2@@Z 000000018004fb78     Adjacencies.obj
 0004:00001b84       $pdata$5$?UpdateLink@@YA_NIIIIPEAVAdjTriangle@physx@@AEBUADJACENCIESCREATE@2@@Z 000000018004fb84     Adjacencies.obj
 0004:00001b90       $pdata$6$?UpdateLink@@YA_NIIIIPEAVAdjTriangle@physx@@AEBUADJACENCIESCREATE@2@@Z 000000018004fb90     Adjacencies.obj
 0004:00001b9c       $pdata$7$?UpdateLink@@YA_NIIIIPEAVAdjTriangle@physx@@AEBUADJACENCIESCREATE@2@@Z 000000018004fb9c     Adjacencies.obj
 0004:00001ba8       $pdata$8$?UpdateLink@@YA_NIIIIPEAVAdjTriangle@physx@@AEBUADJACENCIESCREATE@2@@Z 000000018004fba8     Adjacencies.obj
 0004:00001bb4       $pdata$?CreateDatabase@@YA_NPEAVAdjTriangle@physx@@IPEBVAdjEdge@@AEBUADJACENCIESCREATE@2@@Z 000000018004fbb4     Adjacencies.obj
 0004:00001bc0       $pdata$??_GPxCooking@physx@@MEAAPEAXI@Z 000000018004fbc0     Cooking.obj
 0004:00001bcc       $pdata$PxCreateCooking     000000018004fbcc     Cooking.obj
 0004:00001bd8       $pdata$?release@Cooking@physx@@UEAAXXZ 000000018004fbd8     Cooking.obj
 0004:00001be4       $pdata$?cookTriangleMesh@Cooking@physx@@UEBA_NAEBVPxTriangleMeshDesc@2@AEAVPxOutputStream@2@PEAW4Enum@PxTriangleMeshCookingResult@2@@Z 000000018004fbe4     Cooking.obj
 0004:00001bf0       $pdata$?createTriangleMesh@Cooking@physx@@UEBAPEAVPxTriangleMesh@2@AEBVPxTriangleMeshDesc@2@AEAVPxPhysicsInsertionCallback@2@PEAW4Enum@PxTriangleMeshCookingResult@2@@Z 000000018004fbf0     Cooking.obj
 0004:00001bfc       $pdata$?validateTriangleMesh@Cooking@physx@@UEBA_NAEBVPxTriangleMeshDesc@2@@Z 000000018004fbfc     Cooking.obj
 0004:00001c08       $pdata$?cookConvexMesh@Cooking@physx@@UEBA_NAEBVPxConvexMeshDesc@2@AEAVPxOutputStream@2@PEAW4Enum@PxConvexMeshCookingResult@2@@Z 000000018004fc08     Cooking.obj
 0004:00001c14       $pdata$?createConvexMesh@Cooking@physx@@UEBAPEAVPxConvexMesh@2@AEBVPxConvexMeshDesc@2@AEAVPxPhysicsInsertionCallback@2@PEAW4Enum@PxConvexMeshCookingResult@2@@Z 000000018004fc14     Cooking.obj
 0004:00001c20       $pdata$?validateConvexMesh@Cooking@physx@@UEBA_NAEBVPxConvexMeshDesc@2@@Z 000000018004fc20     Cooking.obj
 0004:00001c2c       $pdata$?computeHullPolygons@Cooking@physx@@UEBA_NAEBVPxSimpleTriangleMesh@2@AEAVPxAllocatorCallback@2@AEAIAEAPEAVPxVec3@2@2AEAPEAI2AEAPEAUPxHullPolygon@2@@Z 000000018004fc2c     Cooking.obj
 0004:00001c38       $pdata$?cookHeightField@Cooking@physx@@UEBA_NAEBVPxHeightFieldDesc@2@AEAVPxOutputStream@2@@Z 000000018004fc38     Cooking.obj
 0004:00001c44       $pdata$?createHeightField@Cooking@physx@@UEBAPEAVPxHeightField@2@AEBVPxHeightFieldDesc@2@AEAVPxPhysicsInsertionCallback@2@@Z 000000018004fc44     Cooking.obj
 0004:00001c50       $pdata$?cookConvexMeshInternal@Cooking@physx@@AEBA_NAEBVPxConvexMeshDesc@2@AEAVConvexMeshBuilder@2@PEAVConvexHullLib@2@PEAW4Enum@PxConvexMeshCookingResult@2@@Z 000000018004fc50     Cooking.obj
 0004:00001c5c       $pdata$1$?cookConvexMeshInternal@Cooking@physx@@AEBA_NAEBVPxConvexMeshDesc@2@AEAVConvexMeshBuilder@2@PEAVConvexHullLib@2@PEAW4Enum@PxConvexMeshCookingResult@2@@Z 000000018004fc5c     Cooking.obj
 0004:00001c68       $pdata$2$?cookConvexMeshInternal@Cooking@physx@@AEBA_NAEBVPxConvexMeshDesc@2@AEAVConvexMeshBuilder@2@PEAVConvexHullLib@2@PEAW4Enum@PxConvexMeshCookingResult@2@@Z 000000018004fc68     Cooking.obj
 0004:00001c74       $pdata$3$?cookConvexMeshInternal@Cooking@physx@@AEBA_NAEBVPxConvexMeshDesc@2@AEAVConvexMeshBuilder@2@PEAVConvexHullLib@2@PEAW4Enum@PxConvexMeshCookingResult@2@@Z 000000018004fc74     Cooking.obj
 0004:00001c80       $pdata$4$?cookConvexMeshInternal@Cooking@physx@@AEBA_NAEBVPxConvexMeshDesc@2@AEAVConvexMeshBuilder@2@PEAVConvexHullLib@2@PEAW4Enum@PxConvexMeshCookingResult@2@@Z 000000018004fc80     Cooking.obj
 0004:00001c8c       $pdata$?cookTriangleMesh@Cooking@physx@@AEBA_NAEAVTriangleMeshBuilder@2@AEBVPxTriangleMeshDesc@2@AEAVPxOutputStream@2@PEAW4Enum@PxTriangleMeshCookingResult@2@@Z 000000018004fc8c     Cooking.obj
 0004:00001c98       $pdata$?createTriangleMesh@Cooking@physx@@AEBAPEAVPxTriangleMesh@2@AEAVTriangleMeshBuilder@2@AEBVPxTriangleMeshDesc@2@AEAVPxPhysicsInsertionCallback@2@PEAW4Enum@PxTriangleMeshCookingResult@2@@Z 000000018004fc98     Cooking.obj
 0004:00001ca4       $pdata$??_GCooking@physx@@UEAAPEAXI@Z 000000018004fca4     Cooking.obj
 0004:00001cb0       $pdata$?Clean@ReducedVertexCloud@physx@@QEAAAEAV12@XZ 000000018004fcb0     CookingUtils.obj
 0004:00001cbc       $pdata$?Reduce@ReducedVertexCloud@physx@@QEAA_NPEAUREDUCEDCLOUD@2@@Z 000000018004fcbc     CookingUtils.obj
 0004:00001cc8       $pdata$??1EdgeList@Gu@physx@@QEAA@XZ 000000018004fcc8     EdgeList.obj
 0004:00001cd4       $pdata$?load@EdgeList@Gu@physx@@QEAA_NAEAVPxInputStream@3@@Z 000000018004fcd4     EdgeList.obj
 0004:00001ce0       $pdata$?init@EdgeListBuilder@Gu@physx@@QEAA_NAEBUEDGELISTCREATE@23@@Z 000000018004fce0     EdgeList.obj
 0004:00001cec       $pdata$?createFacesToEdges@EdgeListBuilder@Gu@physx@@AEAA_NIPEBIPEBG@Z 000000018004fcec     EdgeList.obj
 0004:00001cf8       $pdata$3$?createFacesToEdges@EdgeListBuilder@Gu@physx@@AEAA_NIPEBIPEBG@Z 000000018004fcf8     EdgeList.obj
 0004:00001d04       $pdata$4$?createFacesToEdges@EdgeListBuilder@Gu@physx@@AEAA_NIPEBIPEBG@Z 000000018004fd04     EdgeList.obj
 0004:00001d10       $pdata$5$?createFacesToEdges@EdgeListBuilder@Gu@physx@@AEAA_NIPEBIPEBG@Z 000000018004fd10     EdgeList.obj
 0004:00001d1c       $pdata$6$?createFacesToEdges@EdgeListBuilder@Gu@physx@@AEAA_NIPEBIPEBG@Z 000000018004fd1c     EdgeList.obj
 0004:00001d28       $pdata$?createEdgesToFaces@EdgeListBuilder@Gu@physx@@AEAA_NIPEBIPEBG@Z 000000018004fd28     EdgeList.obj
 0004:00001d34       $pdata$1$?createEdgesToFaces@EdgeListBuilder@Gu@physx@@AEAA_NIPEBIPEBG@Z 000000018004fd34     EdgeList.obj
 0004:00001d40       $pdata$2$?createEdgesToFaces@EdgeListBuilder@Gu@physx@@AEAA_NIPEBIPEBG@Z 000000018004fd40     EdgeList.obj
 0004:00001d4c       $pdata$?computeActiveEdges@EdgeListBuilder@Gu@physx@@AEAA_NIPEBIPEBGPEBVPxVec3@3@M@Z 000000018004fd4c     EdgeList.obj
 0004:00001d58       $pdata$0$?computeActiveEdges@EdgeListBuilder@Gu@physx@@AEAA_NIPEBIPEBGPEBVPxVec3@3@M@Z 000000018004fd58     EdgeList.obj
 0004:00001d64       $pdata$4$?computeActiveEdges@EdgeListBuilder@Gu@physx@@AEAA_NIPEBIPEBGPEBVPxVec3@3@M@Z 000000018004fd64     EdgeList.obj
 0004:00001d70       $pdata$16$?computeActiveEdges@EdgeListBuilder@Gu@physx@@AEAA_NIPEBIPEBGPEBVPxVec3@3@M@Z 000000018004fd70     EdgeList.obj
 0004:00001d7c       $pdata$17$?computeActiveEdges@EdgeListBuilder@Gu@physx@@AEAA_NIPEBIPEBGPEBVPxVec3@3@M@Z 000000018004fd7c     EdgeList.obj
 0004:00001d88       $pdata$18$?computeActiveEdges@EdgeListBuilder@Gu@physx@@AEAA_NIPEBIPEBGPEBVPxVec3@3@M@Z 000000018004fd88     EdgeList.obj
 0004:00001d94       $pdata$2$?computeActiveEdges@EdgeListBuilder@Gu@physx@@AEAA_NIPEBIPEBGPEBVPxVec3@3@M@Z 000000018004fd94     EdgeList.obj
 0004:00001da0       $pdata$19$?computeActiveEdges@EdgeListBuilder@Gu@physx@@AEAA_NIPEBIPEBGPEBVPxVec3@3@M@Z 000000018004fda0     EdgeList.obj
 0004:00001dac       $pdata$??0MeshCleaner@physx@@QEAA@IPEBVPxVec3@1@IPEBIM@Z 000000018004fdac     MeshCleaner.obj
 0004:00001db8       $pdata$1$??0MeshCleaner@physx@@QEAA@IPEBVPxVec3@1@IPEBIM@Z 000000018004fdb8     MeshCleaner.obj
 0004:00001dc4       $pdata$5$??0MeshCleaner@physx@@QEAA@IPEBVPxVec3@1@IPEBIM@Z 000000018004fdc4     MeshCleaner.obj
 0004:00001dd0       $pdata$7$??0MeshCleaner@physx@@QEAA@IPEBVPxVec3@1@IPEBIM@Z 000000018004fdd0     MeshCleaner.obj
 0004:00001ddc       $pdata$8$??0MeshCleaner@physx@@QEAA@IPEBVPxVec3@1@IPEBIM@Z 000000018004fddc     MeshCleaner.obj
 0004:00001de8       $pdata$9$??0MeshCleaner@physx@@QEAA@IPEBVPxVec3@1@IPEBIM@Z 000000018004fde8     MeshCleaner.obj
 0004:00001df4       $pdata$10$??0MeshCleaner@physx@@QEAA@IPEBVPxVec3@1@IPEBIM@Z 000000018004fdf4     MeshCleaner.obj
 0004:00001e00       $pdata$11$??0MeshCleaner@physx@@QEAA@IPEBVPxVec3@1@IPEBIM@Z 000000018004fe00     MeshCleaner.obj
 0004:00001e0c       $pdata$12$??0MeshCleaner@physx@@QEAA@IPEBVPxVec3@1@IPEBIM@Z 000000018004fe0c     MeshCleaner.obj
 0004:00001e18       $pdata$13$??0MeshCleaner@physx@@QEAA@IPEBVPxVec3@1@IPEBIM@Z 000000018004fe18     MeshCleaner.obj
 0004:00001e24       $pdata$14$??0MeshCleaner@physx@@QEAA@IPEBVPxVec3@1@IPEBIM@Z 000000018004fe24     MeshCleaner.obj
 0004:00001e30       $pdata$??1MeshCleaner@physx@@QEAA@XZ 000000018004fe30     MeshCleaner.obj
 0004:00001e3c       $pdata$??_GQuantizer@physx@@MEAAPEAXI@Z 000000018004fe3c     Quantizer.obj
 0004:00001e48       $pdata$?createQuantizer@physx@@YAPEAVQuantizer@1@XZ 000000018004fe48     Quantizer.obj
 0004:00001e54       $pdata$??$kmeans_cluster@VPxVec3@physx@@M@@YAIPEBVPxVec3@physx@@IIPEAV01@PEAIMM@Z 000000018004fe54     Quantizer.obj
 0004:00001e60       $pdata$6$??$kmeans_cluster@VPxVec3@physx@@M@@YAIPEBVPxVec3@physx@@IIPEAV01@PEAIMM@Z 000000018004fe60     Quantizer.obj
 0004:00001e6c       $pdata$12$??$kmeans_cluster@VPxVec3@physx@@M@@YAIPEBVPxVec3@physx@@IIPEAV01@PEAIMM@Z 000000018004fe6c     Quantizer.obj
 0004:00001e78       $pdata$13$??$kmeans_cluster@VPxVec3@physx@@M@@YAIPEBVPxVec3@physx@@IIPEAV01@PEAIMM@Z 000000018004fe78     Quantizer.obj
 0004:00001e84       $pdata$14$??$kmeans_cluster@VPxVec3@physx@@M@@YAIPEBVPxVec3@physx@@IIPEAV01@PEAIMM@Z 000000018004fe84     Quantizer.obj
 0004:00001e90       $pdata$?kmeansQuantize3D@QuantizerImpl@@UEAAPEBVPxVec3@physx@@IPEBV23@I_NIAEAI@Z 000000018004fe90     Quantizer.obj
 0004:00001e9c       $pdata$0$?kmeansQuantize3D@QuantizerImpl@@UEAAPEBVPxVec3@physx@@IPEBV23@I_NIAEAI@Z 000000018004fe9c     Quantizer.obj
 0004:00001ea8       $pdata$2$?kmeansQuantize3D@QuantizerImpl@@UEAAPEBVPxVec3@physx@@IPEBV23@I_NIAEAI@Z 000000018004fea8     Quantizer.obj
 0004:00001eb4       $pdata$3$?kmeansQuantize3D@QuantizerImpl@@UEAAPEBVPxVec3@physx@@IPEBV23@I_NIAEAI@Z 000000018004feb4     Quantizer.obj
 0004:00001ec0       $pdata$4$?kmeansQuantize3D@QuantizerImpl@@UEAAPEBVPxVec3@physx@@IPEBV23@I_NIAEAI@Z 000000018004fec0     Quantizer.obj
 0004:00001ecc       $pdata$5$?kmeansQuantize3D@QuantizerImpl@@UEAAPEBVPxVec3@physx@@IPEBV23@I_NIAEAI@Z 000000018004fecc     Quantizer.obj
 0004:00001ed8       $pdata$?normalizeInput@QuantizerImpl@@AEAAXIPEBVPxVec3@physx@@I@Z 000000018004fed8     Quantizer.obj
 0004:00001ee4       $pdata$6$?normalizeInput@QuantizerImpl@@AEAAXIPEBVPxVec3@physx@@I@Z 000000018004fee4     Quantizer.obj
 0004:00001ef0       $pdata$7$?normalizeInput@QuantizerImpl@@AEAAXIPEBVPxVec3@physx@@I@Z 000000018004fef0     Quantizer.obj
 0004:00001efc       $pdata$8$?normalizeInput@QuantizerImpl@@AEAAXIPEBVPxVec3@physx@@I@Z 000000018004fefc     Quantizer.obj
 0004:00001f08       $pdata$9$?normalizeInput@QuantizerImpl@@AEAAXIPEBVPxVec3@physx@@I@Z 000000018004ff08     Quantizer.obj
 0004:00001f14       $pdata$??1QuantizerImpl@@EEAA@XZ 000000018004ff14     Quantizer.obj
 0004:00001f20       $pdata$??_GQuantizerImpl@@EEAAPEAXI@Z 000000018004ff20     Quantizer.obj
 0004:00001f44       $pdata$__FUnloadDelayLoadedDLL2 000000018004ff44     delayimp:delayhlp.obj
 0004:00001f50       $pdata$__HrLoadAllImportsForDll 000000018004ff50     delayimp:delayhlp.obj
 0004:00001f5c       $pdata$?DloadGetSRWLockFunctionPointers@@YAEXZ 000000018004ff5c     delayimp:delayhlp.obj
 0004:00001f68       $pdata$?DloadLock@@YAXXZ   000000018004ff68     delayimp:delayhlp.obj
 0004:00001f74       $pdata$?DloadUnlock@@YAXXZ 000000018004ff74     delayimp:delayhlp.obj
 0004:00001f80       $pdata$?DloadObtainSection@@YAPEAXPEAK0@Z 000000018004ff80     delayimp:delayhlp.obj
 0004:00001f8c       $pdata$?DloadMakePermanentImageCommit@@YAXPEAX_K@Z 000000018004ff8c     delayimp:delayhlp.obj
 0004:00001f98       $pdata$?DloadProtectSection@@YAXKPEAK@Z 000000018004ff98     delayimp:delayhlp.obj
 0004:00001fa4       $pdata$?DloadAcquireSectionWriteAccess@@YAXXZ 000000018004ffa4     delayimp:delayhlp.obj
 0004:00001fb0       $pdata$?DloadReleaseSectionWriteAccess@@YAXXZ 000000018004ffb0     delayimp:delayhlp.obj
 0004:00001fbc       $pdata$?PiddFromDllName@@YAPEBUImgDelayDescr@@PEBD@Z 000000018004ffbc     delayimp:delayhlp.obj
 0004:00001fc8       $pdata$__delayLoadHelper2  000000018004ffc8     delayimp:delayhlp.obj
 0004:00001fe0       $pdata$??_Gtype_info@@UEAAPEAXI@Z 000000018004ffe0     MSVCRT:std_type_info_static.obj
 0004:00001fec       $pdata$?dllmain_crt_process_attach@@YAHQEAUHINSTANCE__@@QEAX@Z 000000018004ffec     MSVCRT:dll_dllmain.obj
 0004:00001ff8       $pdata$?fin$0@?0??dllmain_crt_process_attach@@YAHQEAUHINSTANCE__@@QEAX@Z@4HA 000000018004fff8     MSVCRT:dll_dllmain.obj
 0004:00002004       $pdata$?dllmain_crt_process_detach@@YAH_N@Z 0000000180050004     MSVCRT:dll_dllmain.obj
 0004:00002010       $pdata$?fin$0@?0??dllmain_crt_process_detach@@YAH_N@Z@4HA 0000000180050010     MSVCRT:dll_dllmain.obj
 0004:0000201c       $pdata$?dllmain_crt_dispatch@@YAHQEAUHINSTANCE__@@KQEAX@Z 000000018005001c     MSVCRT:dll_dllmain.obj
 0004:00002028       $pdata$?dllmain_dispatch@@YAHQEAUHINSTANCE__@@KQEAX@Z 0000000180050028     MSVCRT:dll_dllmain.obj
 0004:00002034       $pdata$?filt$0@?0??dllmain_dispatch@@YAHQEAUHINSTANCE__@@KQEAX@Z@4HA 0000000180050034     MSVCRT:dll_dllmain.obj
 0004:00002040       $pdata$_DllMainCRTStartup  0000000180050040     MSVCRT:dll_dllmain.obj
 0004:00002058       $pdata$__security_init_cookie 0000000180050058     MSVCRT:gs_support.obj
 0004:00002064       $pdata$__get_entropy       0000000180050064     MSVCRT:gs_support.obj
 0004:00002070       $pdata$DllMain             0000000180050070     MSVCRT:dll_dllmain_stub.obj
 0004:0000207c       $pdata$__scrt_initialize_default_local_stdio_options 000000018005007c     MSVCRT:default_local_stdio_options.obj
 0004:00002088       $pdata$atexit              0000000180050088     MSVCRT:utility.obj
 0004:00002094       $pdata$_onexit             0000000180050094     MSVCRT:utility.obj
 0004:000020a0       $pdata$__scrt_is_nonwritable_in_current_image 00000001800500a0     MSVCRT:utility.obj
 0004:000020ac       $pdata$__scrt_is_nonwritable_in_current_image$filt$0 00000001800500ac     MSVCRT:utility.obj
 0004:000020b8       $pdata$__scrt_acquire_startup_lock 00000001800500b8     MSVCRT:utility.obj
 0004:000020c4       $pdata$__scrt_release_startup_lock 00000001800500c4     MSVCRT:utility.obj
 0004:000020d0       $pdata$__scrt_initialize_crt 00000001800500d0     MSVCRT:utility.obj
 0004:000020dc       $pdata$__scrt_uninitialize_crt 00000001800500dc     MSVCRT:utility.obj
 0004:000020e8       $pdata$__scrt_initialize_onexit_tables 00000001800500e8     MSVCRT:utility.obj
 0004:000020f4       $pdata$__scrt_dllmain_exception_filter 00000001800500f4     MSVCRT:utility.obj
 0004:00002100       $pdata$__scrt_dllmain_before_initialize_c 0000000180050100     MSVCRT:utility.obj
 0004:0000210c       $pdata$__scrt_dllmain_after_initialize_c 000000018005010c     MSVCRT:utility.obj
 0004:00002118       $pdata$__scrt_dllmain_uninitialize_c 0000000180050118     MSVCRT:utility.obj
 0004:00002124       $pdata$__scrt_dllmain_uninitialize_critical 0000000180050124     MSVCRT:utility.obj
 0004:00002130       $pdata$__scrt_dllmain_crt_thread_attach 0000000180050130     MSVCRT:utility.obj
 0004:0000213c       $pdata$__scrt_dllmain_crt_thread_detach 000000018005013c     MSVCRT:utility.obj
 0004:00002148       $pdata$?configure_argv@__scrt_narrow_argv_policy@@SAHXZ 0000000180050148     MSVCRT:utility.obj
 0004:00002154       $pdata$__scrt_get_show_window_mode 0000000180050154     MSVCRT:utility_desktop.obj
 0004:00002160       $pdata$__scrt_is_managed_app 0000000180050160     MSVCRT:utility_desktop.obj
 0004:0000216c       $pdata$__scrt_fastfail     000000018005016c     MSVCRT:utility_desktop.obj
 0004:00002178       $pdata$__scrt_unhandled_exception_filter 0000000180050178     MSVCRT:utility_desktop.obj
 0004:00002184       $pdata$_RTC_Initialize     0000000180050184     MSVCRT:initsect.obj
 0004:00002190       $pdata$_RTC_Terminate      0000000180050190     MSVCRT:initsect.obj
 0004:000021a8       $pdata$__isa_available_init 00000001800501a8     MSVCRT:cpu_disp.obj
 0005:00000768       .idata$6                   0000000180051768     kernel32:KERNEL32.dll
 0005:000007f0       .idata$6                   00000001800517f0     vcruntime:VCRUNTIME140.dll
 0005:00000922       .idata$6                   0000000180051922     ucrt:api-ms-win-crt-math-l1-1-0.dll
 0005:00000942       .idata$6                   0000000180051942     ucrt:api-ms-win-crt-runtime-l1-1-0.dll
 0005:00000964       .idata$6                   0000000180051964     ucrt:api-ms-win-crt-heap-l1-1-0.dll
 0008:00000000       __spec_table               0000000180055000     MSVCRT:svml_ssinf4_sse2.obj
 0008:00000560       MMSA7                      0000000180055560     MSVCRT:svml_ssinf4_sse2.obj
 0008:00000570       MMSA3                      0000000180055570     MSVCRT:svml_ssinf4_sse2.obj
 0008:00000580       MMSA5                      0000000180055580     MSVCRT:svml_ssinf4_sse2.obj
 0008:00000590       MMSA9                      0000000180055590     MSVCRT:svml_ssinf4_sse2.obj
 0008:000005a0       MMSPI3                     00000001800555a0     MSVCRT:svml_ssinf4_sse2.obj
 0008:000005b0       MMSPI4                     00000001800555b0     MSVCRT:svml_ssinf4_sse2.obj
 0008:000005c0       MMSPI2                     00000001800555c0     MSVCRT:svml_ssinf4_sse2.obj
 0008:000005d0       MMSPI1                     00000001800555d0     MSVCRT:svml_ssinf4_sse2.obj
 0008:000005e0       MMIHUGE                    00000001800555e0     MSVCRT:svml_ssinf4_sse2.obj
 0008:000005f0       MMSINVPI                   00000001800555f0     MSVCRT:svml_ssinf4_sse2.obj
 0008:00000600       MMIABSMASK                 0000000180055600     MSVCRT:svml_ssinf4_sse2.obj
 0008:00000610       dbSignMask                 0000000180055610     MSVCRT:svml_ssinf4_sse2.obj
 0008:00000620       PI02C_4                    0000000180055620     MSVCRT:svml_ssinf4_sse2.obj
 0008:00000630       PI02C_3                    0000000180055630     MSVCRT:svml_ssinf4_sse2.obj
 0008:00000640       PI02C_2                    0000000180055640     MSVCRT:svml_ssinf4_sse2.obj
 0008:00000650       PI02C_1                    0000000180055650     MSVCRT:svml_ssinf4_sse2.obj
 0008:00000660       PI02C_0                    0000000180055660     MSVCRT:svml_ssinf4_sse2.obj
 0008:00000670       dbRS                       0000000180055670     MSVCRT:svml_ssinf4_sse2.obj
 0008:00000680       MSK_LOW_BIT                0000000180055680     MSVCRT:svml_ssinf4_sse2.obj
 0008:00000690       dbiOne                     0000000180055690     MSVCRT:svml_ssinf4_sse2.obj
 0008:000006a0       dbInvPio2                  00000001800556a0     MSVCRT:svml_ssinf4_sse2.obj
 0008:000006b0       flAllOnes                  00000001800556b0     MSVCRT:svml_ssinf4_sse2.obj
 0008:000006c0       flTwoPow30                 00000001800556c0     MSVCRT:svml_ssinf4_sse2.obj
 0008:000006d0       MMISIGNMASK                00000001800556d0     MSVCRT:svml_ssinf4_sse2.obj
 0009:000001c0       $R000000                   00000001800561c0     PhysX3Cooking.res
 0009:000004f8       $R000338                   00000001800564f8     PhysX3Cooking.res
