 PhysX3CharacterKinematicPROFILE_x64

 Timestamp is 5f36cad3 (Sat Aug 15 01:33:07 2020)

 Preferred load address is 0000000180000000

 Start         Length     Name                   Class
 0001:00000000 000000a0H .text$di                CODE
 0001:000000a0 00021190H .text$mn                CODE
 0001:00021230 00000012H .text$mn$00             CODE
 0001:00021242 00000081H .text$x                 CODE
 0002:00000000 00000268H .idata$5                DATA
 0002:00000268 00000010H .00cfg                  DATA
 0002:00000278 00000008H .CRT$XCA                DATA
 0002:00000280 00000030H .CRT$XCU                DATA
 0002:000002b0 00000008H .CRT$XCZ                DATA
 0002:000002b8 00000008H .CRT$XIA                DATA
 0002:000002c0 00000008H .CRT$XIZ                DATA
 0002:000002c8 00000008H .CRT$XPA                DATA
 0002:000002d0 00000008H .CRT$XPZ                DATA
 0002:000002d8 00000008H .CRT$XTA                DATA
 0002:000002e0 00000010H .CRT$XTZ                DATA
 0002:000002e8 00000000H .gfids$y                DATA
 0002:000002f0 00001510H .rdata                  DATA
 0002:00001800 00000074H .rdata$r                DATA
 0002:00001874 0000032cH .rdata$zzzdbg           DATA
 0002:00001ba0 00000008H .rtc$IAA                DATA
 0002:00001ba8 00000008H .rtc$IZZ                DATA
 0002:00001bb0 00000008H .rtc$TAA                DATA
 0002:00001bb8 00000008H .rtc$TZZ                DATA
 0002:00001bc0 000024d0H .xdata                  DATA
 0002:00004090 00000834H .edata                  DATA
 0002:000048c4 0000008cH .idata$2                DATA
 0002:00004950 00000018H .idata$3                DATA
 0002:00004968 00000268H .idata$4                DATA
 0002:00004bd0 00000dc6H .idata$6                DATA
 0003:00000000 000000b0H .data                   DATA
 0003:000000b0 00000450H .data$r                 DATA
 0003:00000500 000000e0H .bss                    DATA
 0004:00000000 00001590H .pdata                  DATA
 0005:00000000 000000a0H .rsrc$01                DATA
 0005:000000a0 00000500H .rsrc$02                DATA

  Address         Publics by Value              Rva+Base               Lib:Object

 0000:00000000       __hybrid_code_map_count    0000000000000000     <absolute>
 0000:00000000       __enclave_config           0000000000000000     <absolute>
 0000:00000000       __dynamic_value_reloc_table 0000000000000000     <absolute>
 0000:00000000       __guard_iat_table          0000000000000000     <absolute>
 0000:00000000       __volatile_metadata        0000000000000000     <absolute>
 0000:00000000       ___safe_se_handler_table   0000000000000000     <absolute>
 0000:00000000       ___safe_se_handler_count   0000000000000000     <absolute>
 0000:00000000       __guard_iat_count          0000000000000000     <absolute>
 0000:00000000       __hybrid_code_map          0000000000000000     <absolute>
 0000:00000000       __guard_longjmp_count      0000000000000000     <absolute>
 0000:00000000       __guard_fids_table         0000000000000000     <absolute>
 0000:00000000       __hybrid_auxiliary_iat     0000000000000000     <absolute>
 0000:00000000       __guard_fids_count         0000000000000000     <absolute>
 0000:00000000       __guard_longjmp_table      0000000000000000     <absolute>
 0000:00000100       __guard_flags              0000000000000100     <absolute>
 0000:00000000       __ImageBase                0000000180000000     <linker-defined>
 0001:000000a0       ??0BoxController@Cct@physx@@QEAA@AEBVPxControllerDesc@2@AEAVPxPhysics@2@PEAVPxScene@2@@Z 00000001800010a0 f   CctBoxController.obj
 0001:00000190       ??1BoxController@Cct@physx@@UEAA@XZ 0000000180001190 f   CctBoxController.obj
 0001:000001d0       ?getWorldBox@BoxController@Cct@physx@@UEBA_NAEAUPxExtendedBounds3@3@@Z 00000001800011d0 f   CctBoxController.obj
 0001:00000280       ?setFootPosition@BoxController@Cct@physx@@UEAA_NAEBUPxExtendedVec3@3@@Z 0000000180001280 f   CctBoxController.obj
 0001:00000300       ?getFootPosition@BoxController@Cct@physx@@UEBA?AUPxExtendedVec3@3@XZ 0000000180001300 f   CctBoxController.obj
 0001:00000380       ?invalidateCache@BoxController@Cct@physx@@UEAAXXZ 0000000180001380 f   CctBoxController.obj
 0001:000003e0       ?resize@BoxController@Cct@physx@@UEAAXM@Z 00000001800013e0 f   CctBoxController.obj
 0001:000004a0       ?getHalfHeight@BoxController@Cct@physx@@UEBAMXZ 00000001800014a0 f   CctBoxController.obj
 0001:000004b0       ?getHalfSideExtent@BoxController@Cct@physx@@UEBAMXZ 00000001800014b0 f   CctBoxController.obj
 0001:000004c0       ?getHalfForwardExtent@BoxController@Cct@physx@@UEBAMXZ 00000001800014c0 f   CctBoxController.obj
 0001:000004d0       ?setHalfHeight@BoxController@Cct@physx@@UEAA_NM@Z 00000001800014d0 f   CctBoxController.obj
 0001:000004f0       ?setHalfSideExtent@BoxController@Cct@physx@@UEAA_NM@Z 00000001800014f0 f   CctBoxController.obj
 0001:00000510       ?setHalfForwardExtent@BoxController@Cct@physx@@UEAA_NM@Z 0000000180001510 f   CctBoxController.obj
 0001:00000530       ?updateKinematicProxy@BoxController@Cct@physx@@QEAA_NXZ 0000000180001530 f   CctBoxController.obj
 0001:000005d0       ?getOBB@BoxController@Cct@physx@@QEBAXAEAVPxExtendedBox@3@@Z 00000001800015d0 f   CctBoxController.obj
 0001:000006d0       ??0Allocator@shdfnd@physx@@QEAA@PEBD@Z 00000001800016d0 f i CctBoxController.obj
 0001:000006e0       ??0PxControllerManager@physx@@IEAA@XZ 00000001800016e0 f i CctBoxController.obj
 0001:000006f0       ??0PxControllerManager@physx@@QEAA@AEBV01@@Z 00000001800016f0 f i CctBoxController.obj
 0001:00000700       ??0PxFoundation@physx@@QEAA@AEBV01@@Z 0000000180001700 f i CctBoxController.obj
 0001:00000710       ??0PxFoundation@physx@@QEAA@XZ 0000000180001710 f i CctBoxController.obj
 0001:00000720       ??1PxBoxController@physx@@MEAA@XZ 0000000180001720 f i CctBoxController.obj
 0001:00000730       ??1PxController@physx@@MEAA@XZ 0000000180001730 f i CctBoxController.obj
 0001:00000740       ??1PxControllerManager@physx@@MEAA@XZ 0000000180001740 f i CctBoxController.obj
 0001:00000750       ??1PxFoundation@physx@@MEAA@XZ 0000000180001750 f i CctBoxController.obj
 0001:00000760       ??4Allocator@shdfnd@physx@@QEAAAEAV012@$$QEAV012@@Z 0000000180001760 f i CctBoxController.obj
 0001:00000770       ??4Allocator@shdfnd@physx@@QEAAAEAV012@AEBV012@@Z 0000000180001770 f i CctBoxController.obj
 0001:00000780       ??4MutexImpl@shdfnd@physx@@QEAAAEAV012@AEBV012@@Z 0000000180001780 f i CctBoxController.obj
 0001:00000790       ??4PxControllerManager@physx@@QEAAAEAV01@AEBV01@@Z 0000000180001790 f i CctBoxController.obj
 0001:000007a0       ??4PxFoundation@physx@@QEAAAEAV01@AEBV01@@Z 00000001800017a0 f i CctBoxController.obj
 0001:000007a4       ??_EBoxController@Cct@physx@@W7EAAPEAXI@Z 00000001800017a4 f i CctBoxController.obj
 0001:000007b0       ??_EPxControllerManager@physx@@MEAAPEAXI@Z 00000001800017b0 f i CctBoxController.obj
 0001:00000840       ??_EPxFoundation@physx@@MEAAPEAXI@Z 0000000180001840 f i CctBoxController.obj
 0001:000008d0       ??_FAllocator@shdfnd@physx@@QEAAXXZ 00000001800018d0 f i CctBoxController.obj
 0001:000008e0       ??_EBoxController@Cct@physx@@UEAAPEAXI@Z 00000001800018e0 f i CctBoxController.obj
 0001:000008e0       ??_GBoxController@Cct@physx@@UEAAPEAXI@Z 00000001800018e0 f i CctBoxController.obj
 0001:00000960       ??_GPxBoxController@physx@@MEAAPEAXI@Z 0000000180001960 f i CctBoxController.obj
 0001:00000960       ??_EPxBoxController@physx@@MEAAPEAXI@Z 0000000180001960 f i CctBoxController.obj
 0001:00000990       ??_EPxController@physx@@MEAAPEAXI@Z 0000000180001990 f i CctBoxController.obj
 0001:00000990       ??_GPxController@physx@@MEAAPEAXI@Z 0000000180001990 f i CctBoxController.obj
 0001:000009c0       ??_GPxControllerManager@physx@@MEAAPEAXI@Z 00000001800019c0 f i CctBoxController.obj
 0001:000009f0       ??_GPxFoundation@physx@@MEAAPEAXI@Z 00000001800019f0 f i CctBoxController.obj
 0001:00000a20       ??_H@YAXPEAX_K1P6APEAX0@Z@Z 0000000180001a20 f i CctBoxController.obj
 0001:00000a70       ??_I@YAXPEAX_K1P6AX0@Z@Z   0000000180001a70 f i CctBoxController.obj
 0001:00000ad0       ?__empty_global_delete@@YAXPEAX@Z 0000000180001ad0 f i CctBoxController.obj
 0001:00000ae0       ?__empty_global_delete@@YAXPEAX_K@Z 0000000180001ae0 f i CctBoxController.obj
 0001:00000ae0       ?__global_delete@@YAXPEAX_K@Z 0000000180001ae0 f i CctBoxController.obj
 0001:00000af0       ?getActor@BoxController@Cct@physx@@UEBAPEAVPxRigidDynamic@3@XZ 0000000180001af0 f i CctBoxController.obj
 0001:00000b00       ?getContactOffset@BoxController@Cct@physx@@UEBAMXZ 0000000180001b00 f i CctBoxController.obj
 0001:00000b10       ?getHalfHeightInternal@BoxController@Cct@physx@@UEBAMXZ 0000000180001b10 f i CctBoxController.obj
 0001:00000b20       ?getNonWalkableMode@BoxController@Cct@physx@@UEBA?AW4Enum@PxControllerNonWalkableMode@3@XZ 0000000180001b20 f i CctBoxController.obj
 0001:00000b30       ?getPosition@BoxController@Cct@physx@@UEBAAEBUPxExtendedVec3@3@XZ 0000000180001b30 f i CctBoxController.obj
 0001:00000b40       ?getPxController@BoxController@Cct@physx@@UEAAPEAVPxController@3@XZ 0000000180001b40 f i CctBoxController.obj
 0001:00000b50       ?getScene@BoxController@Cct@physx@@UEAAPEAVPxScene@3@XZ 0000000180001b50 f i CctBoxController.obj
 0001:00000b60       ?getSlopeLimit@BoxController@Cct@physx@@UEBAMXZ 0000000180001b60 f i CctBoxController.obj
 0001:00000b70       ?getState@BoxController@Cct@physx@@UEBAXAEAUPxControllerState@3@@Z 0000000180001b70 f i CctBoxController.obj
 0001:00000b80       ?getStats@BoxController@Cct@physx@@UEBAXAEAUPxControllerStats@3@@Z 0000000180001b80 f i CctBoxController.obj
 0001:00000b90       ?getStepOffset@BoxController@Cct@physx@@UEBAMXZ 0000000180001b90 f i CctBoxController.obj
 0001:00000ba0       ?getType@BoxController@Cct@physx@@UEBA?AW4Enum@PxControllerShapeType@3@XZ 0000000180001ba0 f i CctBoxController.obj
 0001:00000bb0       ?getUpDirection@BoxController@Cct@physx@@UEBA?AVPxVec3@3@XZ 0000000180001bb0 f i CctBoxController.obj
 0001:00000bd0       ?getUserData@BoxController@Cct@physx@@UEBAPEAXXZ 0000000180001bd0 f i CctBoxController.obj
 0001:00000be0       ?release@BoxController@Cct@physx@@UEAAXXZ 0000000180001be0 f i CctBoxController.obj
 0001:00000bf0       ?setContactOffset@BoxController@Cct@physx@@UEAAXM@Z 0000000180001bf0 f i CctBoxController.obj
 0001:00000c00       ?setNonWalkableMode@BoxController@Cct@physx@@UEAAXW4Enum@PxControllerNonWalkableMode@3@@Z 0000000180001c00 f i CctBoxController.obj
 0001:00000c10       ?setPosition@BoxController@Cct@physx@@UEAA_NAEBUPxExtendedVec3@3@@Z 0000000180001c10 f i CctBoxController.obj
 0001:00000c20       ?setSlopeLimit@BoxController@Cct@physx@@UEAAXM@Z 0000000180001c20 f i CctBoxController.obj
 0001:00000c30       ?setStepOffset@BoxController@Cct@physx@@UEAAXM@Z 0000000180001c30 f i CctBoxController.obj
 0001:00000c40       ?setUpDirection@BoxController@Cct@physx@@UEAAXAEBVPxVec3@3@@Z 0000000180001c40 f i CctBoxController.obj
 0001:00000c50       ?setUserData@BoxController@Cct@physx@@UEAAXPEAX@Z 0000000180001c50 f i CctBoxController.obj
 0001:00000c60       ??0CapsuleController@Cct@physx@@QEAA@AEBVPxControllerDesc@2@AEAVPxPhysics@2@PEAVPxScene@2@@Z 0000000180001c60 f   CctCapsuleController.obj
 0001:00000d50       ??1CapsuleController@Cct@physx@@UEAA@XZ 0000000180001d50 f   CctCapsuleController.obj
 0001:00000d90       ?getWorldBox@CapsuleController@Cct@physx@@UEBA_NAEAUPxExtendedBounds3@3@@Z 0000000180001d90 f   CctCapsuleController.obj
 0001:00000e40       ?setFootPosition@CapsuleController@Cct@physx@@UEAA_NAEBUPxExtendedVec3@3@@Z 0000000180001e40 f   CctCapsuleController.obj
 0001:00000ed0       ?getFootPosition@CapsuleController@Cct@physx@@UEBA?AUPxExtendedVec3@3@XZ 0000000180001ed0 f   CctCapsuleController.obj
 0001:00000f60       ?invalidateCache@CapsuleController@Cct@physx@@UEAAXXZ 0000000180001f60 f   CctCapsuleController.obj
 0001:00000fc0       ?resize@CapsuleController@Cct@physx@@UEAAXM@Z 0000000180001fc0 f   CctCapsuleController.obj
 0001:00001090       ?getClimbingMode@CapsuleController@Cct@physx@@UEBA?AW4Enum@PxCapsuleClimbingMode@3@XZ 0000000180002090 f   CctCapsuleController.obj
 0001:000010a0       ?setRadius@CapsuleController@Cct@physx@@UEAA_NM@Z 00000001800020a0 f   CctCapsuleController.obj
 0001:00001130       ?setHeight@CapsuleController@Cct@physx@@UEAA_NM@Z 0000000180002130 f   CctCapsuleController.obj
 0001:000011d0       ?setClimbingMode@CapsuleController@Cct@physx@@UEAA_NW4Enum@PxCapsuleClimbingMode@3@@Z 00000001800021d0 f   CctCapsuleController.obj
 0001:000011f0       ?getCapsule@CapsuleController@Cct@physx@@QEBAXAEAUPxExtendedCapsule@3@@Z 00000001800021f0 f   CctCapsuleController.obj
 0001:000012d0       ??1PxCapsuleController@physx@@MEAA@XZ 00000001800022d0 f i CctCapsuleController.obj
 0001:000012dc       ??_ECapsuleController@Cct@physx@@W7EAAPEAXI@Z 00000001800022dc f i CctCapsuleController.obj
 0001:000012f0       ??_ECapsuleController@Cct@physx@@UEAAPEAXI@Z 00000001800022f0 f i CctCapsuleController.obj
 0001:000012f0       ??_GCapsuleController@Cct@physx@@UEAAPEAXI@Z 00000001800022f0 f i CctCapsuleController.obj
 0001:00001370       ??_EPxCapsuleController@physx@@MEAAPEAXI@Z 0000000180002370 f i CctCapsuleController.obj
 0001:00001370       ??_GPxCapsuleController@physx@@MEAAPEAXI@Z 0000000180002370 f i CctCapsuleController.obj
 0001:000013a0       ?getActor@CapsuleController@Cct@physx@@UEBAPEAVPxRigidDynamic@3@XZ 00000001800023a0 f i CctCapsuleController.obj
 0001:000013b0       ?getContactOffset@CapsuleController@Cct@physx@@UEBAMXZ 00000001800023b0 f i CctCapsuleController.obj
 0001:000013c0       ?getHalfHeightInternal@CapsuleController@Cct@physx@@UEBAMXZ 00000001800023c0 f i CctCapsuleController.obj
 0001:000013e0       ?getHeight@CapsuleController@Cct@physx@@UEBAMXZ 00000001800023e0 f i CctCapsuleController.obj
 0001:000013f0       ?getNonWalkableMode@CapsuleController@Cct@physx@@UEBA?AW4Enum@PxControllerNonWalkableMode@3@XZ 00000001800023f0 f i CctCapsuleController.obj
 0001:00001400       ?getPosition@CapsuleController@Cct@physx@@UEBAAEBUPxExtendedVec3@3@XZ 0000000180002400 f i CctCapsuleController.obj
 0001:00001410       ?getPxController@CapsuleController@Cct@physx@@UEAAPEAVPxController@3@XZ 0000000180002410 f i CctCapsuleController.obj
 0001:00001420       ?getRadius@CapsuleController@Cct@physx@@UEBAMXZ 0000000180002420 f i CctCapsuleController.obj
 0001:00001430       ?getScene@CapsuleController@Cct@physx@@UEAAPEAVPxScene@3@XZ 0000000180002430 f i CctCapsuleController.obj
 0001:00001440       ?getSlopeLimit@CapsuleController@Cct@physx@@UEBAMXZ 0000000180002440 f i CctCapsuleController.obj
 0001:00001450       ?getState@CapsuleController@Cct@physx@@UEBAXAEAUPxControllerState@3@@Z 0000000180002450 f i CctCapsuleController.obj
 0001:00001460       ?getStats@CapsuleController@Cct@physx@@UEBAXAEAUPxControllerStats@3@@Z 0000000180002460 f i CctCapsuleController.obj
 0001:00001470       ?getStepOffset@CapsuleController@Cct@physx@@UEBAMXZ 0000000180002470 f i CctCapsuleController.obj
 0001:00001480       ?getType@CapsuleController@Cct@physx@@UEBA?AW4Enum@PxControllerShapeType@3@XZ 0000000180002480 f i CctCapsuleController.obj
 0001:00001490       ?getUpDirection@CapsuleController@Cct@physx@@UEBA?AVPxVec3@3@XZ 0000000180002490 f i CctCapsuleController.obj
 0001:000014b0       ?getUserData@CapsuleController@Cct@physx@@UEBAPEAXXZ 00000001800024b0 f i CctCapsuleController.obj
 0001:000014c0       ?release@CapsuleController@Cct@physx@@UEAAXXZ 00000001800024c0 f i CctCapsuleController.obj
 0001:000014d0       ?setContactOffset@CapsuleController@Cct@physx@@UEAAXM@Z 00000001800024d0 f i CctCapsuleController.obj
 0001:000014e0       ?setNonWalkableMode@CapsuleController@Cct@physx@@UEAAXW4Enum@PxControllerNonWalkableMode@3@@Z 00000001800024e0 f i CctCapsuleController.obj
 0001:000014f0       ?setPosition@CapsuleController@Cct@physx@@UEAA_NAEBUPxExtendedVec3@3@@Z 00000001800024f0 f i CctCapsuleController.obj
 0001:00001500       ?setSlopeLimit@CapsuleController@Cct@physx@@UEAAXM@Z 0000000180002500 f i CctCapsuleController.obj
 0001:00001510       ?setStepOffset@CapsuleController@Cct@physx@@UEAAXM@Z 0000000180002510 f i CctCapsuleController.obj
 0001:00001520       ?setUpDirection@CapsuleController@Cct@physx@@UEAAXAEBVPxVec3@3@@Z 0000000180002520 f i CctCapsuleController.obj
 0001:00001530       ?setUserData@CapsuleController@Cct@physx@@UEAAXPEAX@Z 0000000180002530 f i CctCapsuleController.obj
 0001:00001540       ??0CCTParams@Cct@physx@@QEAA@XZ 0000000180002540 f   CctCharacterController.obj
 0001:00001580       ??0SweepTest@Cct@physx@@QEAA@_N@Z 0000000180002580 f   CctCharacterController.obj
 0001:000016f0       ??1SweepTest@Cct@physx@@QEAA@XZ 00000001800026f0 f   CctCharacterController.obj
 0001:000017e0       ?moveCharacter@SweepTest@Cct@physx@@QEAA?AV?$PxFlags@W4Enum@PxControllerCollisionFlag@physx@@E@3@PEBUInternalCBData_FindTouchedGeom@23@PEAUInternalCBData_OnHit@23@AEAVSweptVolume@23@AEBVPxVec3@3@AEBUUserObstacles@23@MAEBVPxControllerFilters@3@_N6AEAPEBVPxRigidActor@3@AEAPEBVPxShape@3@_K@Z 00000001800027e0 f   CctCharacterController.obj
 0001:00002370       ?doSweepTest@SweepTest@Cct@physx@@QEAA_NPEBUInternalCBData_FindTouchedGeom@23@PEAUInternalCBData_OnHit@23@AEBUUserObstacles@23@AEAVSweptVolume@23@AEBVPxVec3@3@4IPEAIMAEBVPxControllerFilters@3@W4SweepPass@23@AEAPEBVPxRigidActor@3@AEAPEBVPxShape@3@_K@Z 0000000180003370 f   CctCharacterController.obj
 0001:00003240       ?findTouchedObstacles@SweepTest@Cct@physx@@QEAAXAEBUUserObstacles@23@AEBUPxExtendedBounds3@3@@Z 0000000180004240 f   CctCharacterController.obj
 0001:00003970       ?voidTestCache@SweepTest@Cct@physx@@QEAAXXZ 0000000180004970 f   CctCharacterController.obj
 0001:00003a20       ?onRelease@SweepTest@Cct@physx@@QEAAXAEBVPxBase@3@@Z 0000000180004a20 f   CctCharacterController.obj
 0001:00003b30       ?updateCachedShapesRegistration@SweepTest@Cct@physx@@QEAAXI_N@Z 0000000180004b30 f   CctCharacterController.obj
 0001:00003be0       ?onObstacleRemoved@SweepTest@Cct@physx@@QEAAXI@Z 0000000180004be0 f   CctCharacterController.obj
 0001:00003c00       ?onObstacleUpdated@SweepTest@Cct@physx@@QEAAXIPEBVPxObstacleContext@3@AEBVPxVec3@3@1M@Z 0000000180004c00 f   CctCharacterController.obj
 0001:00003d30       ?onObstacleAdded@SweepTest@Cct@physx@@QEAAXIPEBVPxObstacleContext@3@AEBVPxVec3@3@1M@Z 0000000180004d30 f   CctCharacterController.obj
 0001:00003ee0       ?onOriginShift@SweepTest@Cct@physx@@QEAAXAEBVPxVec3@3@@Z 0000000180004ee0 f   CctCharacterController.obj
 0001:00004080       ?updateTouchedGeoms@SweepTest@Cct@physx@@AEAAXPEBUInternalCBData_FindTouchedGeom@23@AEBUUserObstacles@23@AEBUPxExtendedBounds3@3@AEBVPxControllerFilters@3@AEBVPxVec3@3@@Z 0000000180005080 f   CctCharacterController.obj
 0001:000049f0       ?findTouchedObject@Controller@Cct@physx@@IEAAXAEBVPxControllerFilters@3@PEBVPxObstacleContext@3@AEBVPxVec3@3@@Z 00000001800059f0 f   CctCharacterController.obj
 0001:00005040       ?rideOnTouchedObject@Controller@Cct@physx@@IEAA_NAEAVSweptVolume@23@AEBVPxVec3@3@AEAV53@PEBVPxObstacleContext@3@@Z 0000000180006040 f   CctCharacterController.obj
 0001:000055d0       ?move@Controller@Cct@physx@@IEAA?AV?$PxFlags@W4Enum@PxControllerCollisionFlag@physx@@E@3@AEAVSweptVolume@23@AEBVPxVec3@3@MMAEBVPxControllerFilters@3@PEBVPxObstacleContext@3@_N@Z 00000001800065d0 f   CctCharacterController.obj
 0001:000067b0       ?filterTouchedShape@Controller@Cct@physx@@IEAA_NAEBVPxControllerFilters@3@@Z 00000001800077b0 f   CctCharacterController.obj
 0001:00008090       ?move@BoxController@Cct@physx@@UEAA?AV?$PxFlags@W4Enum@PxControllerCollisionFlag@physx@@E@3@AEBVPxVec3@3@MMAEBVPxControllerFilters@3@PEBVPxObstacleContext@3@@Z 0000000180009090 f   CctCharacterController.obj
 0001:00008250       ?move@CapsuleController@Cct@physx@@UEAA?AV?$PxFlags@W4Enum@PxControllerCollisionFlag@physx@@E@3@AEBVPxVec3@3@MMAEBVPxControllerFilters@3@PEBVPxObstacleContext@3@@Z 0000000180009250 f   CctCharacterController.obj
 0001:00008460       ??0PxMat33@physx@@QEAA@AEBV01@@Z 0000000180009460 f i CctCharacterController.obj
 0001:000084a0       ??0PxVec3@physx@@QEAA@XZ   00000001800094a0 f i CctCharacterController.obj
 0001:000084b0       ??1?$PxHitBuffer@UPxRaycastHit@physx@@@physx@@UEAA@XZ 00000001800094b0 f i CctCharacterController.obj
 0001:000084c0       ??1?$PxHitCallback@UPxRaycastHit@physx@@@physx@@UEAA@XZ 00000001800094c0 f i CctCharacterController.obj
 0001:000084d0       ??1PxQueryFilterCallback@physx@@UEAA@XZ 00000001800094d0 f i CctCharacterController.obj
 0001:000084e0       ??4FPUGuard@shdfnd@physx@@QEAAAEAV012@AEBV012@@Z 00000001800094e0 f i CctCharacterController.obj
 0001:00008500       ??DPxQuat@physx@@QEBA?AV01@AEBV01@@Z 0000000180009500 f i CctCharacterController.obj
 0001:00008640       ??_E?$PxHitBuffer@UPxRaycastHit@physx@@@physx@@UEAAPEAXI@Z 0000000180009640 f i CctCharacterController.obj
 0001:00008640       ??_G?$PxHitBuffer@UPxRaycastHit@physx@@@physx@@UEAAPEAXI@Z 0000000180009640 f i CctCharacterController.obj
 0001:00008670       ??_E?$PxHitCallback@UPxRaycastHit@physx@@@physx@@UEAAPEAXI@Z 0000000180009670 f i CctCharacterController.obj
 0001:00008670       ??_G?$PxHitCallback@UPxRaycastHit@physx@@@physx@@UEAAPEAXI@Z 0000000180009670 f i CctCharacterController.obj
 0001:000086a0       ??_GControllerFilter@@UEAAPEAXI@Z 00000001800096a0 f i CctCharacterController.obj
 0001:000086a0       ??_EControllerFilter@@UEAAPEAXI@Z 00000001800096a0 f i CctCharacterController.obj
 0001:000086d0       ??_GPxQueryFilterCallback@physx@@UEAAPEAXI@Z 00000001800096d0 f i CctCharacterController.obj
 0001:000086d0       ??_EPxQueryFilterCallback@physx@@UEAAPEAXI@Z 00000001800096d0 f i CctCharacterController.obj
 0001:00008e90       ?finalizeQuery@?$PxHitCallback@UPxRaycastHit@physx@@@physx@@UEAAXXZ 0000000180009e90 f i CctCharacterController.obj
 0001:00008ea0       ?getShapeGlobalPose@physx@@YA?AVPxTransform@1@AEBVPxShape@1@AEBVPxRigidActor@1@@Z 0000000180009ea0 f i CctCharacterController.obj
 0001:00009080       ?growAndPushBack@?$Array@PEBXV?$ReflectionAllocator@PEBX@shdfnd@physx@@@shdfnd@physx@@IEAAAEAPEBXAEBQEBX@Z 000000018000a080 f i CctCharacterController.obj
 0001:000091b0       ?growAndPushBack@?$Array@UPxExtendedCapsule@physx@@V?$ReflectionAllocator@UPxExtendedCapsule@physx@@@shdfnd@2@@shdfnd@physx@@IEAAAEAUPxExtendedCapsule@3@AEBU43@@Z 000000018000a1b0 f i CctCharacterController.obj
 0001:00009320       ?growAndPushBack@?$Array@VPxExtendedBox@physx@@V?$ReflectionAllocator@VPxExtendedBox@physx@@@shdfnd@2@@shdfnd@physx@@IEAAAEAVPxExtendedBox@3@AEBV43@@Z 000000018000a320 f i CctCharacterController.obj
 0001:00009690       ?postFilter@ControllerFilter@@UEAA?AW4Enum@PxQueryHitType@physx@@AEBUPxFilterData@4@AEBUPxQueryHit@4@@Z 000000018000a690 f i CctCharacterController.obj
 0001:000096b0       ?preFilter@ControllerFilter@@UEAA?AW4Enum@PxQueryHitType@physx@@AEBUPxFilterData@4@PEBVPxShape@4@PEBVPxRigidActor@4@AEAV?$PxFlags@W4Enum@PxHitFlag@physx@@G@4@@Z 000000018000a6b0 f i CctCharacterController.obj
 0001:000097e0       ?processTouches@?$PxHitBuffer@UPxRaycastHit@physx@@@physx@@MEAA_NPEBUPxRaycastHit@2@I@Z 000000018000a7e0 f i CctCharacterController.obj
 0001:000097f0       ?recreate@?$Array@IV?$ReflectionAllocator@I@shdfnd@physx@@@shdfnd@physx@@IEAAXI@Z 000000018000a7f0 f i CctCharacterController.obj
 0001:00009c50       ?getSceneTimestamp@Cct@physx@@YAIPEBUInternalCBData_FindTouchedGeom@12@@Z 000000018000ac50 f   CctCharacterControllerCallbacks.obj
 0001:00009c70       ?findTouchedGeometry@Cct@physx@@YAXPEBUInternalCBData_FindTouchedGeom@12@AEBUPxExtendedBounds3@2@AEAVTriArray@12@AEAV?$Array@IV?$ReflectionAllocator@I@shdfnd@physx@@@shdfnd@2@3AEBVCCTFilter@12@AEBUCCTParams@12@AEAG@Z 000000018000ac70 f   CctCharacterControllerCallbacks.obj
 0001:0000ac90       ?shapeHitCallback@Cct@physx@@YAIPEBUInternalCBData_OnHit@12@AEBUSweptContact@12@AEBVPxVec3@2@M@Z 000000018000bc90 f   CctCharacterControllerCallbacks.obj
 0001:0000ada0       ?userHitCallback@Cct@physx@@YAIPEBUInternalCBData_OnHit@12@AEBUSweptContact@12@AEBVPxVec3@2@M@Z 000000018000bda0 f   CctCharacterControllerCallbacks.obj
 0001:0000b020       ??0PxOverlapHit@physx@@QEAA@XZ 000000018000c020 f i CctCharacterControllerCallbacks.obj
 0001:0000b040       ??1?$PxHitBuffer@UPxOverlapHit@physx@@@physx@@UEAA@XZ 000000018000c040 f i CctCharacterControllerCallbacks.obj
 0001:0000b050       ??1?$PxHitCallback@UPxOverlapHit@physx@@@physx@@UEAA@XZ 000000018000c050 f i CctCharacterControllerCallbacks.obj
 0001:0000b060       ??_G?$PxHitBuffer@UPxOverlapHit@physx@@@physx@@UEAAPEAXI@Z 000000018000c060 f i CctCharacterControllerCallbacks.obj
 0001:0000b060       ??_E?$PxHitBuffer@UPxOverlapHit@physx@@@physx@@UEAAPEAXI@Z 000000018000c060 f i CctCharacterControllerCallbacks.obj
 0001:0000b090       ??_E?$PxHitCallback@UPxOverlapHit@physx@@@physx@@UEAAPEAXI@Z 000000018000c090 f i CctCharacterControllerCallbacks.obj
 0001:0000b090       ??_G?$PxHitCallback@UPxOverlapHit@physx@@@physx@@UEAAPEAXI@Z 000000018000c090 f i CctCharacterControllerCallbacks.obj
 0001:0000b0c0       ?allocate@?$Array@IV?$ReflectionAllocator@I@shdfnd@physx@@@shdfnd@physx@@IEAAPEAII@Z 000000018000c0c0 f i CctCharacterControllerCallbacks.obj
 0001:0000b810       ?finalizeQuery@?$PxHitCallback@UPxOverlapHit@physx@@@physx@@UEAAXXZ 000000018000c810 f i CctCharacterControllerCallbacks.obj
 0001:0000b820       ?growAndPushBack@?$Array@IV?$ReflectionAllocator@I@shdfnd@physx@@@shdfnd@physx@@IEAAAEAIAEBI@Z 000000018000c820 f i CctCharacterControllerCallbacks.obj
 0001:0000eff0       ?processTouches@?$PxHitBuffer@UPxOverlapHit@physx@@@physx@@MEAA_NPEBUPxOverlapHit@2@I@Z 000000018000fff0 f i CctCharacterControllerCallbacks.obj
 0001:0000f000       ?recreate@?$Array@VPxTriangle@physx@@V?$ReflectionAllocator@VPxTriangle@physx@@@shdfnd@2@@shdfnd@physx@@IEAAXI@Z 0000000180010000 f i CctCharacterControllerCallbacks.obj
 0001:0000f6d0       PxCreateControllerManager  00000001800106d0 f   CctCharacterControllerManager.obj
 0001:0000f780       ??0CharacterControllerManager@Cct@physx@@QEAA@AEAVPxScene@2@_N@Z 0000000180010780 f   CctCharacterControllerManager.obj
 0001:0000f940       ??1CharacterControllerManager@Cct@physx@@UEAA@XZ 0000000180010940 f   CctCharacterControllerManager.obj
 0001:0000fb10       ?release@CharacterControllerManager@Cct@physx@@UEAAXXZ 0000000180010b10 f   CctCharacterControllerManager.obj
 0001:0000fd70       ?getScene@CharacterControllerManager@Cct@physx@@UEBAAEAVPxScene@3@XZ 0000000180010d70 f   CctCharacterControllerManager.obj
 0001:0000fd80       ?getNbControllers@CharacterControllerManager@Cct@physx@@UEBAIXZ 0000000180010d80 f   CctCharacterControllerManager.obj
 0001:0000fd90       ?getController@CharacterControllerManager@Cct@physx@@UEAAPEAVPxController@3@I@Z 0000000180010d90 f   CctCharacterControllerManager.obj
 0001:0000fdf0       ?createController@CharacterControllerManager@Cct@physx@@UEAAPEAVPxController@3@AEBVPxControllerDesc@3@@Z 0000000180010df0 f   CctCharacterControllerManager.obj
 0001:00010010       ?purgeControllers@CharacterControllerManager@Cct@physx@@UEAAXXZ 0000000180011010 f   CctCharacterControllerManager.obj
 0001:00010210       ?getRenderBuffer@CharacterControllerManager@Cct@physx@@UEAAAEAVPxRenderBuffer@3@XZ 0000000180011210 f   CctCharacterControllerManager.obj
 0001:000102e0       ?setDebugRenderingFlags@CharacterControllerManager@Cct@physx@@UEAAXV?$PxFlags@W4Enum@PxControllerDebugRenderFlag@physx@@I@3@@Z 00000001800112e0 f   CctCharacterControllerManager.obj
 0001:00010320       ?getNbObstacleContexts@CharacterControllerManager@Cct@physx@@UEBAIXZ 0000000180011320 f   CctCharacterControllerManager.obj
 0001:00010330       ?getObstacleContext@CharacterControllerManager@Cct@physx@@UEAAPEAVPxObstacleContext@3@I@Z 0000000180011330 f   CctCharacterControllerManager.obj
 0001:00010390       ?createObstacleContext@CharacterControllerManager@Cct@physx@@UEAAPEAVPxObstacleContext@3@XZ 0000000180011390 f   CctCharacterControllerManager.obj
 0001:00010470       ?computeInteractions@CharacterControllerManager@Cct@physx@@UEAAXMPEAVPxControllerFilterCallback@3@@Z 0000000180011470 f   CctCharacterControllerManager.obj
 0001:000106f0       ?setTessellation@CharacterControllerManager@Cct@physx@@UEAAX_NM@Z 00000001800116f0 f   CctCharacterControllerManager.obj
 0001:00010710       ?setOverlapRecoveryModule@CharacterControllerManager@Cct@physx@@UEAAX_N@Z 0000000180011710 f   CctCharacterControllerManager.obj
 0001:00010720       ?setPreciseSweeps@CharacterControllerManager@Cct@physx@@UEAAX_N@Z 0000000180011720 f   CctCharacterControllerManager.obj
 0001:00010730       ?setPreventVerticalSlidingAgainstCeiling@CharacterControllerManager@Cct@physx@@UEAAX_N@Z 0000000180011730 f   CctCharacterControllerManager.obj
 0001:00010740       ?shiftOrigin@CharacterControllerManager@Cct@physx@@UEAAXAEBVPxVec3@3@@Z 0000000180011740 f   CctCharacterControllerManager.obj
 0001:00010810       ?onRelease@CharacterControllerManager@Cct@physx@@UEAAXPEBVPxBase@3@PEAXW4Enum@PxDeletionEventFlag@3@@Z 0000000180011810 f   CctCharacterControllerManager.obj
 0001:000109a0       ?registerObservedObject@CharacterControllerManager@Cct@physx@@QEAAXPEBVPxBase@3@@Z 00000001800119a0 f   CctCharacterControllerManager.obj
 0001:00010a20       ?unregisterObservedObject@CharacterControllerManager@Cct@physx@@QEAAXPEBVPxBase@3@@Z 0000000180011a20 f   CctCharacterControllerManager.obj
 0001:00010ac0       ?onObstacleRemoved@CharacterControllerManager@Cct@physx@@QEBAXI@Z 0000000180011ac0 f   CctCharacterControllerManager.obj
 0001:00010b10       ?onObstacleUpdated@CharacterControllerManager@Cct@physx@@QEBAXIPEBVPxObstacleContext@3@@Z 0000000180011b10 f   CctCharacterControllerManager.obj
 0001:00010c30       ?onObstacleAdded@CharacterControllerManager@Cct@physx@@QEBAXIPEBVPxObstacleContext@3@@Z 0000000180011c30 f   CctCharacterControllerManager.obj
 0001:00010d50       ?releaseController@CharacterControllerManager@Cct@physx@@QEAAXAEAVPxController@3@@Z 0000000180011d50 f   CctCharacterControllerManager.obj
 0001:00010f10       ?getControllers@CharacterControllerManager@Cct@physx@@QEAAPEAPEAVController@23@XZ 0000000180011f10 f   CctCharacterControllerManager.obj
 0001:00010f20       ?releaseObstacleContext@CharacterControllerManager@Cct@physx@@QEAAXAEAVObstacleContext@23@@Z 0000000180011f20 f   CctCharacterControllerManager.obj
 0001:00010f90       ?resetObstaclesBuffers@CharacterControllerManager@Cct@physx@@QEAAXXZ 0000000180011f90 f   CctCharacterControllerManager.obj
 0001:000110c0       ??$resetOrClear@V?$Array@PEBXV?$ReflectionAllocator@PEBX@shdfnd@physx@@@shdfnd@physx@@@@YAXAEAV?$Array@PEBXV?$ReflectionAllocator@PEBX@shdfnd@physx@@@shdfnd@physx@@@Z 00000001800120c0 f i CctCharacterControllerManager.obj
 0001:00011120       ??$resetOrClear@V?$Array@UPxExtendedCapsule@physx@@V?$ReflectionAllocator@UPxExtendedCapsule@physx@@@shdfnd@2@@shdfnd@physx@@@@YAXAEAV?$Array@UPxExtendedCapsule@physx@@V?$ReflectionAllocator@UPxExtendedCapsule@physx@@@shdfnd@2@@shdfnd@physx@@@Z 0000000180012120 f i CctCharacterControllerManager.obj
 0001:00011190       ??$resetOrClear@V?$Array@VPxExtendedBox@physx@@V?$ReflectionAllocator@VPxExtendedBox@physx@@@shdfnd@2@@shdfnd@physx@@@@YAXAEAV?$Array@VPxExtendedBox@physx@@V?$ReflectionAllocator@VPxExtendedBox@physx@@@shdfnd@2@@shdfnd@physx@@@Z 0000000180012190 f i CctCharacterControllerManager.obj
 0001:000111e0       ??1PxDeletionListener@physx@@MEAA@XZ 00000001800121e0 f i CctCharacterControllerManager.obj
 0001:000111f0       ??1PxRenderBuffer@physx@@UEAA@XZ 00000001800121f0 f i CctCharacterControllerManager.obj
 0001:000111fc       ??_ECharacterControllerManager@Cct@physx@@W7EAAPEAXI@Z 00000001800121fc f i CctCharacterControllerManager.obj
 0001:00011210       ??_ECharacterControllerManager@Cct@physx@@UEAAPEAXI@Z 0000000180012210 f i CctCharacterControllerManager.obj
 0001:00011210       ??_GCharacterControllerManager@Cct@physx@@UEAAPEAXI@Z 0000000180012210 f i CctCharacterControllerManager.obj
 0001:00011270       ??_GPxDeletionListener@physx@@MEAAPEAXI@Z 0000000180012270 f i CctCharacterControllerManager.obj
 0001:00011270       ??_EPxDeletionListener@physx@@MEAAPEAXI@Z 0000000180012270 f i CctCharacterControllerManager.obj
 0001:000112a0       ??_EPxRenderBuffer@physx@@UEAAPEAXI@Z 00000001800122a0 f i CctCharacterControllerManager.obj
 0001:000112a0       ??_GPxRenderBuffer@physx@@UEAAPEAXI@Z 00000001800122a0 f i CctCharacterControllerManager.obj
 0001:000112d0       ??_ERenderBuffer@Cm@physx@@UEAAPEAXI@Z 00000001800122d0 f i CctCharacterControllerManager.obj
 0001:000112d0       ??_GRenderBuffer@Cm@physx@@UEAAPEAXI@Z 00000001800122d0 f i CctCharacterControllerManager.obj
 0001:00011f50       ?allocate@?$Array@UPxDebugLine@physx@@V?$ReflectionAllocator@UPxDebugLine@physx@@@shdfnd@2@@shdfnd@physx@@IEAAPEAUPxDebugLine@3@I@Z 0000000180012f50 f i CctCharacterControllerManager.obj
 0001:00011ff0       ?allocate@?$Array@UPxDebugPoint@physx@@V?$ReflectionAllocator@UPxDebugPoint@physx@@@shdfnd@2@@shdfnd@physx@@IEAAPEAUPxDebugPoint@3@I@Z 0000000180012ff0 f i CctCharacterControllerManager.obj
 0001:00012090       ?allocate@?$Array@UPxDebugText@physx@@V?$ReflectionAllocator@UPxDebugText@physx@@@shdfnd@2@@shdfnd@physx@@IEAAPEAUPxDebugText@3@I@Z 0000000180013090 f i CctCharacterControllerManager.obj
 0001:00012130       ?allocate@?$Array@UPxDebugTriangle@physx@@V?$ReflectionAllocator@UPxDebugTriangle@physx@@@shdfnd@2@@shdfnd@physx@@IEAAPEAUPxDebugTriangle@3@I@Z 0000000180013130 f i CctCharacterControllerManager.obj
 0001:000121d0       ?append@RenderBuffer@Cm@physx@@UEAAXAEBVPxRenderBuffer@3@@Z 00000001800131d0 f i CctCharacterControllerManager.obj
 0001:000124b0       ?clear@RenderBuffer@Cm@physx@@UEAAXXZ 00000001800134b0 f i CctCharacterControllerManager.obj
 0001:000129d0       ?copy@?$Array@UPxDebugLine@physx@@V?$ReflectionAllocator@UPxDebugLine@physx@@@shdfnd@2@@shdfnd@physx@@KAXPEAUPxDebugLine@3@0PEBU43@@Z 00000001800139d0 f i CctCharacterControllerManager.obj
 0001:00012b80       ?copy@?$Array@UPxDebugPoint@physx@@V?$ReflectionAllocator@UPxDebugPoint@physx@@@shdfnd@2@@shdfnd@physx@@KAXPEAUPxDebugPoint@3@0PEBU43@@Z 0000000180013b80 f i CctCharacterControllerManager.obj
 0001:00012c80       ?copy@?$Array@UPxDebugText@physx@@V?$ReflectionAllocator@UPxDebugText@physx@@@shdfnd@2@@shdfnd@physx@@KAXPEAUPxDebugText@3@0PEBU43@@Z 0000000180013c80 f i CctCharacterControllerManager.obj
 0001:00012df0       ?copy@?$Array@UPxDebugTriangle@physx@@V?$ReflectionAllocator@UPxDebugTriangle@physx@@@shdfnd@2@@shdfnd@physx@@KAXPEAUPxDebugTriangle@3@0PEBU43@@Z 0000000180013df0 f i CctCharacterControllerManager.obj
 0001:00012ff0       ?create@?$HashBase@PEAVPxShape@physx@@PEAV12@U?$Hash@PEAVPxShape@physx@@@shdfnd@2@UGetKey@?$HashSetBase@PEAVPxShape@physx@@U?$Hash@PEAVPxShape@physx@@@shdfnd@2@VNonTrackingAllocator@42@$0A@@internal@42@VNonTrackingAllocator@42@$0A@@internal@shdfnd@physx@@QEAAPEAPEAVPxShape@4@AEBQEAV54@AEA_N@Z 0000000180013ff0 f i CctCharacterControllerManager.obj
 0001:000131a0       ?create@?$HashBase@V?$Pair@QEBVPxBase@physx@@UObservedRefCounter@Cct@2@@shdfnd@physx@@PEBVPxBase@3@U?$Hash@PEBVPxBase@physx@@@23@UGetKey@?$HashMapBase@PEBVPxBase@physx@@UObservedRefCounter@Cct@2@U?$Hash@PEBVPxBase@physx@@@shdfnd@2@VNonTrackingAllocator@62@@internal@23@VNonTrackingAllocator@23@$00@internal@shdfnd@physx@@QEAAPEAV?$Pair@QEBVPxBase@physx@@UObservedRefCounter@Cct@2@@34@AEBQEBVPxBase@4@AEA_N@Z 00000001800141a0 f i CctCharacterControllerManager.obj
 0001:00013340       ?erase@?$HashBase@V?$Pair@QEBVPxBase@physx@@UObservedRefCounter@Cct@2@@shdfnd@physx@@PEBVPxBase@3@U?$Hash@PEBVPxBase@physx@@@23@UGetKey@?$HashMapBase@PEBVPxBase@physx@@UObservedRefCounter@Cct@2@U?$Hash@PEBVPxBase@physx@@@shdfnd@2@VNonTrackingAllocator@62@@internal@23@VNonTrackingAllocator@23@$00@internal@shdfnd@physx@@QEAA_NAEBQEBVPxBase@4@@Z 0000000180014340 f i CctCharacterControllerManager.obj
 0001:000134f0       ?getAllocator@Foundation@shdfnd@physx@@QEAAAEAVPxAllocatorCallback@3@XZ 00000001800144f0 f i CctCharacterControllerManager.obj
 0001:00013500       ?getAllocatorCallback@Foundation@shdfnd@physx@@UEAAAEAVPxAllocatorCallback@3@XZ 0000000180014500 f i CctCharacterControllerManager.obj
 0001:00013510       ?getErrorCallback@Foundation@shdfnd@physx@@UEAAAEAVPxErrorCallback@3@XZ 0000000180014510 f i CctCharacterControllerManager.obj
 0001:00013520       ?getErrorLevel@Foundation@shdfnd@physx@@UEBA?AW4Enum@PxErrorCode@3@XZ 0000000180014520 f i CctCharacterControllerManager.obj
 0001:00013530       ?getInternalErrorCallback@Foundation@shdfnd@physx@@QEAAAEAVPxErrorCallback@3@XZ 0000000180014530 f i CctCharacterControllerManager.obj
 0001:00013540       ?getLines@RenderBuffer@Cm@physx@@UEBAPEBUPxDebugLine@3@XZ 0000000180014540 f i CctCharacterControllerManager.obj
 0001:00013550       ?getNamedAllocMap@Foundation@shdfnd@physx@@QEAAAEAV?$HashMap@PEBVNamedAllocator@shdfnd@physx@@PEBDU?$Hash@PEBVNamedAllocator@shdfnd@physx@@@23@VNonTrackingAllocator@23@@23@XZ 0000000180014550 f i CctCharacterControllerManager.obj
 0001:00013560       ?getNamedAllocMutex@Foundation@shdfnd@physx@@QEAAAEAV?$MutexT@VAllocator@shdfnd@physx@@@23@XZ 0000000180014560 f i CctCharacterControllerManager.obj
 0001:00013570       ?getNbLines@RenderBuffer@Cm@physx@@UEBAIXZ 0000000180014570 f i CctCharacterControllerManager.obj
 0001:00013580       ?getNbPoints@RenderBuffer@Cm@physx@@UEBAIXZ 0000000180014580 f i CctCharacterControllerManager.obj
 0001:00013590       ?getNbTexts@RenderBuffer@Cm@physx@@UEBAIXZ 0000000180014590 f i CctCharacterControllerManager.obj
 0001:000135a0       ?getNbTriangles@RenderBuffer@Cm@physx@@UEBAIXZ 00000001800145a0 f i CctCharacterControllerManager.obj
 0001:000135b0       ?getPoints@RenderBuffer@Cm@physx@@UEBAPEBUPxDebugPoint@3@XZ 00000001800145b0 f i CctCharacterControllerManager.obj
 0001:000135c0       ?getReportAllocationNames@Foundation@shdfnd@physx@@UEBA_NXZ 00000001800145c0 f i CctCharacterControllerManager.obj
 0001:000135d0       ?getTempAllocFreeTable@Foundation@shdfnd@physx@@QEAAAEAV?$Array@PEATTempAllocatorChunk@shdfnd@physx@@VAllocator@23@@23@XZ 00000001800145d0 f i CctCharacterControllerManager.obj
 0001:000135e0       ?getTempAllocMutex@Foundation@shdfnd@physx@@QEAAAEAV?$MutexT@VAllocator@shdfnd@physx@@@23@XZ 00000001800145e0 f i CctCharacterControllerManager.obj
 0001:000135f0       ?getTexts@RenderBuffer@Cm@physx@@UEBAPEBUPxDebugText@3@XZ 00000001800145f0 f i CctCharacterControllerManager.obj
 0001:00013600       ?getTriangles@RenderBuffer@Cm@physx@@UEBAPEBUPxDebugTriangle@3@XZ 0000000180014600 f i CctCharacterControllerManager.obj
 0001:00013610       ?growAndPushBack@?$Array@PEAVController@Cct@physx@@V?$ReflectionAllocator@PEAVController@Cct@physx@@@shdfnd@3@@shdfnd@physx@@IEAAAEAPEAVController@Cct@3@AEBQEAV453@@Z 0000000180014610 f i CctCharacterControllerManager.obj
 0001:00013740       ?growAndPushBack@?$Array@PEAVObstacleContext@Cct@physx@@V?$ReflectionAllocator@PEAVObstacleContext@Cct@physx@@@shdfnd@3@@shdfnd@physx@@IEAAAEAPEAVObstacleContext@Cct@3@AEBQEAV453@@Z 0000000180014740 f i CctCharacterControllerManager.obj
 0001:00013870       ?growAndPushBack@?$Array@UPxDebugLine@physx@@V?$ReflectionAllocator@UPxDebugLine@physx@@@shdfnd@2@@shdfnd@physx@@IEAAAEAUPxDebugLine@3@AEBU43@@Z 0000000180014870 f i CctCharacterControllerManager.obj
 0001:00013960       ?growAndPushBack@?$Array@UPxDebugPoint@physx@@V?$ReflectionAllocator@UPxDebugPoint@physx@@@shdfnd@2@@shdfnd@physx@@IEAAAEAUPxDebugPoint@3@AEBU43@@Z 0000000180014960 f i CctCharacterControllerManager.obj
 0001:00013a30       ?growAndPushBack@?$Array@UPxDebugText@physx@@V?$ReflectionAllocator@UPxDebugText@physx@@@shdfnd@2@@shdfnd@physx@@IEAAAEAUPxDebugText@3@AEBU43@@Z 0000000180014a30 f i CctCharacterControllerManager.obj
 0001:00013b10       ?growAndPushBack@?$Array@UPxDebugTriangle@physx@@V?$ReflectionAllocator@UPxDebugTriangle@physx@@@shdfnd@2@@shdfnd@physx@@IEAAAEAUPxDebugTriangle@3@AEBU43@@Z 0000000180014b10 f i CctCharacterControllerManager.obj
 0001:00013c10       ?recreate@?$Array@PEBXV?$ReflectionAllocator@PEBX@shdfnd@physx@@@shdfnd@physx@@IEAAXI@Z 0000000180014c10 f i CctCharacterControllerManager.obj
 0001:00013d30       ?recreate@?$Array@UPxDebugLine@physx@@V?$ReflectionAllocator@UPxDebugLine@physx@@@shdfnd@2@@shdfnd@physx@@IEAAXI@Z 0000000180014d30 f i CctCharacterControllerManager.obj
 0001:00013db0       ?recreate@?$Array@UPxDebugPoint@physx@@V?$ReflectionAllocator@UPxDebugPoint@physx@@@shdfnd@2@@shdfnd@physx@@IEAAXI@Z 0000000180014db0 f i CctCharacterControllerManager.obj
 0001:00013e30       ?recreate@?$Array@UPxDebugText@physx@@V?$ReflectionAllocator@UPxDebugText@physx@@@shdfnd@2@@shdfnd@physx@@IEAAXI@Z 0000000180014e30 f i CctCharacterControllerManager.obj
 0001:00013eb0       ?recreate@?$Array@UPxDebugTriangle@physx@@V?$ReflectionAllocator@UPxDebugTriangle@physx@@@shdfnd@2@@shdfnd@physx@@IEAAXI@Z 0000000180014eb0 f i CctCharacterControllerManager.obj
 0001:00013f30       ?recreate@?$Array@UPxExtendedCapsule@physx@@V?$ReflectionAllocator@UPxExtendedCapsule@physx@@@shdfnd@2@@shdfnd@physx@@IEAAXI@Z 0000000180014f30 f i CctCharacterControllerManager.obj
 0001:00014050       ?recreate@?$Array@VPxExtendedBox@physx@@V?$ReflectionAllocator@VPxExtendedBox@physx@@@shdfnd@2@@shdfnd@physx@@IEAAXI@Z 0000000180015050 f i CctCharacterControllerManager.obj
 0001:00014370       ?reserveInternal@?$HashBase@PEAVPxShape@physx@@PEAV12@U?$Hash@PEAVPxShape@physx@@@shdfnd@2@UGetKey@?$HashSetBase@PEAVPxShape@physx@@U?$Hash@PEAVPxShape@physx@@@shdfnd@2@VNonTrackingAllocator@42@$0A@@internal@42@VNonTrackingAllocator@42@$0A@@internal@shdfnd@physx@@AEAAXI@Z 0000000180015370 f i CctCharacterControllerManager.obj
 0001:00014740       ?reserveInternal@?$HashBase@V?$Pair@QEBVPxBase@physx@@UObservedRefCounter@Cct@2@@shdfnd@physx@@PEBVPxBase@3@U?$Hash@PEBVPxBase@physx@@@23@UGetKey@?$HashMapBase@PEBVPxBase@physx@@UObservedRefCounter@Cct@2@U?$Hash@PEBVPxBase@physx@@@shdfnd@2@VNonTrackingAllocator@62@@internal@23@VNonTrackingAllocator@23@$00@internal@shdfnd@physx@@AEAAXI@Z 0000000180015740 f i CctCharacterControllerManager.obj
 0001:00014930       ?resize@?$Array@PEBXV?$ReflectionAllocator@PEBX@shdfnd@physx@@@shdfnd@physx@@QEAAXIAEBQEBX@Z 0000000180015930 f i CctCharacterControllerManager.obj
 0001:00014a10       ?resize@?$Array@UPxExtendedCapsule@physx@@V?$ReflectionAllocator@UPxExtendedCapsule@physx@@@shdfnd@2@@shdfnd@physx@@QEAAXIAEBUPxExtendedCapsule@3@@Z 0000000180015a10 f i CctCharacterControllerManager.obj
 0001:00014a90       ?resize@?$Array@VPxExtendedBox@physx@@V?$ReflectionAllocator@VPxExtendedBox@physx@@@shdfnd@2@@shdfnd@physx@@QEAAXIAEBVPxExtendedBox@3@@Z 0000000180015a90 f i CctCharacterControllerManager.obj
 0001:00014cc0       ?setErrorLevel@Foundation@shdfnd@physx@@UEAAXW4Enum@PxErrorCode@3@@Z 0000000180015cc0 f i CctCharacterControllerManager.obj
 0001:00014cd0       ?setReportAllocationNames@Foundation@shdfnd@physx@@UEAAX_N@Z 0000000180015cd0 f i CctCharacterControllerManager.obj
 0001:00014ce0       ?shift@RenderBuffer@Cm@physx@@QEAAXAEBVPxVec3@3@@Z 0000000180015ce0 f i CctCharacterControllerManager.obj
 0001:00014ed0       ??0Controller@Cct@physx@@QEAA@AEBVPxControllerDesc@2@PEAVPxScene@2@@Z 0000000180015ed0 f   CctController.obj
 0001:000150f0       ??1Controller@Cct@physx@@UEAA@XZ 00000001800160f0 f   CctController.obj
 0001:00015170       ?releaseInternal@Controller@Cct@physx@@QEAAXXZ 0000000180016170 f   CctController.obj
 0001:000151a0       ?getInternalState@Controller@Cct@physx@@QEBAXAEAUPxControllerState@3@@Z 00000001800161a0 f   CctController.obj
 0001:00015270       ?getInternalStats@Controller@Cct@physx@@QEBAXAEAUPxControllerStats@3@@Z 0000000180016270 f   CctController.obj
 0001:000152b0       ?onOriginShift@Controller@Cct@physx@@QEAAXAEBVPxVec3@3@@Z 00000001800162b0 f   CctController.obj
 0001:00015380       ?onRelease@Controller@Cct@physx@@QEAAXAEBVPxBase@3@@Z 0000000180016380 f   CctController.obj
 0001:00015390       ?setUpDirectionInternal@Controller@Cct@physx@@IEAAXAEBVPxVec3@3@@Z 0000000180016390 f   CctController.obj
 0001:00015420       ?getKineShape@Controller@Cct@physx@@IEBAPEAVPxShape@3@XZ 0000000180016420 f   CctController.obj
 0001:00015460       ?createProxyActor@Controller@Cct@physx@@IEAA_NAEAVPxPhysics@3@AEBVPxGeometry@3@AEBVPxMaterial@3@@Z 0000000180016460 f   CctController.obj
 0001:000155a0       ?setPos@Controller@Cct@physx@@IEAA_NAEBUPxExtendedVec3@3@@Z 00000001800165a0 f   CctController.obj
 0001:00015640       ??_EController@Cct@physx@@UEAAPEAXI@Z 0000000180016640 f i CctController.obj
 0001:00015640       ??_GController@Cct@physx@@UEAAPEAXI@Z 0000000180016640 f i CctController.obj
 0001:00015700       ??0HandleManager@Cct@physx@@QEAA@XZ 0000000180016700 f   CctObstacleContext.obj
 0001:00015850       ??1HandleManager@Cct@physx@@QEAA@XZ 0000000180016850 f   CctObstacleContext.obj
 0001:00015880       ?Add@HandleManager@Cct@physx@@QEAAIPEAX@Z 0000000180016880 f   CctObstacleContext.obj
 0001:00015b00       ?Remove@HandleManager@Cct@physx@@QEAAXI@Z 0000000180016b00 f   CctObstacleContext.obj
 0001:00015be0       ?GetObject@HandleManager@Cct@physx@@QEBAPEAXI@Z 0000000180016be0 f   CctObstacleContext.obj
 0001:00015c40       ?UpdateObject@HandleManager@Cct@physx@@QEAA_NIPEAX@Z 0000000180016c40 f   CctObstacleContext.obj
 0001:00015ca0       ?SetupLists@HandleManager@Cct@physx@@AEAA_NPEAPEAXPEAG11@Z 0000000180016ca0 f   CctObstacleContext.obj
 0001:00015d80       ??0ObstacleContext@Cct@physx@@QEAA@AEAVCharacterControllerManager@12@@Z 0000000180016d80 f   CctObstacleContext.obj
 0001:00015dd0       ??1ObstacleContext@Cct@physx@@UEAA@XZ 0000000180016dd0 f   CctObstacleContext.obj
 0001:00015e70       ?release@ObstacleContext@Cct@physx@@UEAAXXZ 0000000180016e70 f   CctObstacleContext.obj
 0001:00015e90       ?getControllerManager@ObstacleContext@Cct@physx@@UEBAAEAVPxControllerManager@3@XZ 0000000180016e90 f   CctObstacleContext.obj
 0001:00015ea0       ?addObstacle@ObstacleContext@Cct@physx@@UEAAIAEBVPxObstacle@3@@Z 0000000180016ea0 f   CctObstacleContext.obj
 0001:00016100       ?removeObstacle@ObstacleContext@Cct@physx@@UEAA_NI@Z 0000000180017100 f   CctObstacleContext.obj
 0001:000163c0       ?updateObstacle@ObstacleContext@Cct@physx@@UEAA_NIAEBVPxObstacle@3@@Z 00000001800173c0 f   CctObstacleContext.obj
 0001:00016550       ?getNbObstacles@ObstacleContext@Cct@physx@@UEBAIXZ 0000000180017550 f   CctObstacleContext.obj
 0001:00016560       ?getObstacle@ObstacleContext@Cct@physx@@UEBAPEBVPxObstacle@3@I@Z 0000000180017560 f   CctObstacleContext.obj
 0001:000165b0       ?getObstacleByHandle@ObstacleContext@Cct@physx@@UEBAPEBVPxObstacle@3@I@Z 00000001800175b0 f   CctObstacleContext.obj
 0001:00016650       ?raycastSingle@ObstacleContext@Cct@physx@@QEBAPEBVPxObstacle@3@AEAUPxRaycastHit@3@AEBVPxVec3@3@1MAEAI@Z 0000000180017650 f   CctObstacleContext.obj
 0001:00016970       ?raycastSingle@ObstacleContext@Cct@physx@@QEBAPEBVPxObstacle@3@AEAUPxRaycastHit@3@AEBIAEBVPxVec3@3@2M@Z 0000000180017970 f   CctObstacleContext.obj
 0001:00016b80       ?onOriginShift@ObstacleContext@Cct@physx@@QEAAXAEBVPxVec3@3@@Z 0000000180017b80 f   CctObstacleContext.obj
 0001:00016c60       ??1PxObstacleContext@physx@@UEAA@XZ 0000000180017c60 f i CctObstacleContext.obj
 0001:00016c70       ??_EObstacleContext@Cct@physx@@UEAAPEAXI@Z 0000000180017c70 f i CctObstacleContext.obj
 0001:00016c70       ??_GObstacleContext@Cct@physx@@UEAAPEAXI@Z 0000000180017c70 f i CctObstacleContext.obj
 0001:00016d60       ??_GPxObstacleContext@physx@@UEAAPEAXI@Z 0000000180017d60 f i CctObstacleContext.obj
 0001:00016d60       ??_EPxObstacleContext@physx@@UEAAPEAXI@Z 0000000180017d60 f i CctObstacleContext.obj
 0001:00016d90       ?growAndPushBack@?$Array@UInternalBoxObstacle@ObstacleContext@Cct@physx@@V?$ReflectionAllocator@UInternalBoxObstacle@ObstacleContext@Cct@physx@@@shdfnd@4@@shdfnd@physx@@IEAAAEAUInternalBoxObstacle@ObstacleContext@Cct@3@AEBU4563@@Z 0000000180017d90 f i CctObstacleContext.obj
 0001:00017150       ?growAndPushBack@?$Array@UInternalCapsuleObstacle@ObstacleContext@Cct@physx@@V?$ReflectionAllocator@UInternalCapsuleObstacle@ObstacleContext@Cct@physx@@@shdfnd@4@@shdfnd@physx@@IEAAAEAUInternalCapsuleObstacle@ObstacleContext@Cct@3@AEBU4563@@Z 0000000180018150 f i CctObstacleContext.obj
 0001:000174f0       ??0SweptBox@Cct@physx@@QEAA@XZ 00000001800184f0 f   CctSweptBox.obj
 0001:00017520       ??1SweptBox@Cct@physx@@UEAA@XZ 0000000180018520 f   CctSweptBox.obj
 0001:00017540       ?computeTemporalBox@SweptBox@Cct@physx@@UEBAXAEBVSweepTest@23@AEAUPxExtendedBounds3@3@AEBUPxExtendedVec3@3@AEBVPxVec3@3@@Z 0000000180018540 f   CctSweptBox.obj
 0001:000175a0       ??_ESweptBox@Cct@physx@@UEAAPEAXI@Z 00000001800185a0 f i CctSweptBox.obj
 0001:000175a0       ??_GSweptBox@Cct@physx@@UEAAPEAXI@Z 00000001800185a0 f i CctSweptBox.obj
 0001:000175e0       ??0SweptCapsule@Cct@physx@@QEAA@XZ 00000001800185e0 f   CctSweptCapsule.obj
 0001:00017610       ??1SweptCapsule@Cct@physx@@UEAA@XZ 0000000180018610 f   CctSweptCapsule.obj
 0001:00017630       ?computeTemporalBox@SweptCapsule@Cct@physx@@UEBAXAEBVSweepTest@23@AEAUPxExtendedBounds3@3@AEBUPxExtendedVec3@3@AEBVPxVec3@3@@Z 0000000180018630 f   CctSweptCapsule.obj
 0001:00017680       ??_ESweptCapsule@Cct@physx@@UEAAPEAXI@Z 0000000180018680 f i CctSweptCapsule.obj
 0001:00017680       ??_GSweptCapsule@Cct@physx@@UEAAPEAXI@Z 0000000180018680 f i CctSweptCapsule.obj
 0001:000176c0       ??0SweptVolume@Cct@physx@@QEAA@XZ 00000001800186c0 f   CctSweptVolume.obj
 0001:000176e0       ??1SweptVolume@Cct@physx@@UEAA@XZ 00000001800186e0 f   CctSweptVolume.obj
 0001:00017700       ?computeTemporalBox@Cct@physx@@YAXAEAUPxExtendedBounds3@2@MMMMAEBVPxVec3@2@AEBUPxExtendedVec3@2@1@Z 0000000180018700 f   CctSweptVolume.obj
 0001:00017a30       ??_ESweptVolume@Cct@physx@@UEAAPEAXI@Z 0000000180018a30 f i CctSweptVolume.obj
 0001:00017a30       ??_GSweptVolume@Cct@physx@@UEAAPEAXI@Z 0000000180018a30 f i CctSweptVolume.obj
 0001:00017a60       ??0PxMeshOverlapUtil@physx@@QEAA@XZ 0000000180018a60 f   PhysX3ExtensionsPROFILE:ExtTriangleMeshExt.obj
 0001:00017a90       ??1PxMeshOverlapUtil@physx@@QEAA@XZ 0000000180018a90 f   PhysX3ExtensionsPROFILE:ExtTriangleMeshExt.obj
 0001:00017ad0       ?findOverlap@PxMeshOverlapUtil@physx@@QEAAIAEBVPxGeometry@2@AEBVPxTransform@2@AEBVPxTriangleMeshGeometry@2@1@Z 0000000180018ad0 f   PhysX3ExtensionsPROFILE:ExtTriangleMeshExt.obj
 0001:00017c30       ?findOverlap@PxMeshOverlapUtil@physx@@QEAAIAEBVPxGeometry@2@AEBVPxTransform@2@AEBVPxHeightFieldGeometry@2@1@Z 0000000180018c30 f   PhysX3ExtensionsPROFILE:ExtTriangleMeshExt.obj
 0001:00017d50       ?PxComputeMeshPenetration@physx@@YA?AVPxVec3@1@IAEBVPxGeometry@1@AEBVPxTransform@1@AEBVPxTriangleMeshGeometry@1@1AEAI@Z 0000000180018d50 f   PhysX3ExtensionsPROFILE:ExtTriangleMeshExt.obj
 0001:00017de0       ?PxComputeTriangleMeshPenetration@physx@@YA_NAEAVPxVec3@1@AEAMAEBVPxGeometry@1@AEBVPxTransform@1@AEBVPxTriangleMeshGeometry@1@3IPEAI@Z 0000000180018de0 f   PhysX3ExtensionsPROFILE:ExtTriangleMeshExt.obj
 0001:00017df0       ?PxComputeHeightFieldPenetration@physx@@YA?AVPxVec3@1@IAEBVPxGeometry@1@AEBVPxTransform@1@AEBVPxHeightFieldGeometry@1@1AEAI@Z 0000000180018df0 f   PhysX3ExtensionsPROFILE:ExtTriangleMeshExt.obj
 0001:00017e80       ?PxComputeHeightFieldPenetration@physx@@YA_NAEAVPxVec3@1@AEAMAEBVPxGeometry@1@AEBVPxTransform@1@AEBVPxHeightFieldGeometry@1@3IPEAI@Z 0000000180018e80 f   PhysX3ExtensionsPROFILE:ExtTriangleMeshExt.obj
 0001:00018230       ?updateMassAndInertia@PxRigidBodyExt@physx@@SA_NAEAVPxRigidBody@2@PEBMIPEBVPxVec3@2@_N@Z 0000000180019230 f   PhysX3ExtensionsPROFILE:ExtRigidBodyExt.obj
 0001:00018260       ?updateMassAndInertia@PxRigidBodyExt@physx@@SA_NAEAVPxRigidBody@2@MPEBVPxVec3@2@_N@Z 0000000180019260 f   PhysX3ExtensionsPROFILE:ExtRigidBodyExt.obj
 0001:000182a0       ?setMassAndUpdateInertia@PxRigidBodyExt@physx@@SA_NAEAVPxRigidBody@2@PEBMIPEBVPxVec3@2@_N@Z 00000001800192a0 f   PhysX3ExtensionsPROFILE:ExtRigidBodyExt.obj
 0001:000182d0       ?setMassAndUpdateInertia@PxRigidBodyExt@physx@@SA_NAEAVPxRigidBody@2@MPEBVPxVec3@2@_N@Z 00000001800192d0 f   PhysX3ExtensionsPROFILE:ExtRigidBodyExt.obj
 0001:00018310       ?computeMassPropertiesFromShapes@PxRigidBodyExt@physx@@SA?AVPxMassProperties@2@PEBQEBVPxShape@2@I@Z 0000000180019310 f   PhysX3ExtensionsPROFILE:ExtRigidBodyExt.obj
 0001:00018580       ?addForceAtPos@PxRigidBodyExt@physx@@SAXAEAVPxRigidBody@2@AEBVPxVec3@2@1W4Enum@PxForceMode@2@_N@Z 0000000180019580 f   PhysX3ExtensionsPROFILE:ExtRigidBodyExt.obj
 0001:000185a0       ?addForceAtLocalPos@PxRigidBodyExt@physx@@SAXAEAVPxRigidBody@2@AEBVPxVec3@2@1W4Enum@PxForceMode@2@_N@Z 00000001800195a0 f   PhysX3ExtensionsPROFILE:ExtRigidBodyExt.obj
 0001:00018770       ?addLocalForceAtPos@PxRigidBodyExt@physx@@SAXAEAVPxRigidBody@2@AEBVPxVec3@2@1W4Enum@PxForceMode@2@_N@Z 0000000180019770 f   PhysX3ExtensionsPROFILE:ExtRigidBodyExt.obj
 0001:00018930       ?addLocalForceAtLocalPos@PxRigidBodyExt@physx@@SAXAEAVPxRigidBody@2@AEBVPxVec3@2@1W4Enum@PxForceMode@2@_N@Z 0000000180019930 f   PhysX3ExtensionsPROFILE:ExtRigidBodyExt.obj
 0001:00018be0       ?getVelocityAtPos@PxRigidBodyExt@physx@@SA?AVPxVec3@2@AEBVPxRigidBody@2@AEBV32@@Z 0000000180019be0 f   PhysX3ExtensionsPROFILE:ExtRigidBodyExt.obj
 0001:00018dd0       ?getLocalVelocityAtLocalPos@PxRigidBodyExt@physx@@SA?AVPxVec3@2@AEBVPxRigidBody@2@AEBV32@@Z 0000000180019dd0 f   PhysX3ExtensionsPROFILE:ExtRigidBodyExt.obj
 0001:000190d0       ?getVelocityAtOffset@PxRigidBodyExt@physx@@SA?AVPxVec3@2@AEBVPxRigidBody@2@AEBV32@@Z 000000018001a0d0 f   PhysX3ExtensionsPROFILE:ExtRigidBodyExt.obj
 0001:000192b0       ?linearSweepSingle@PxRigidBodyExt@physx@@SA_NAEAVPxRigidBody@2@AEAVPxScene@2@AEBVPxVec3@2@MV?$PxFlags@W4Enum@PxHitFlag@physx@@G@2@AEAUPxSweepHit@2@AEAIAEBUPxQueryFilterData@2@PEAVPxQueryFilterCallback@2@PEBUPxQueryCache@2@M@Z 000000018001a2b0 f   PhysX3ExtensionsPROFILE:ExtRigidBodyExt.obj
 0001:00019740       ?linearSweepMultiple@PxRigidBodyExt@physx@@SAIAEAVPxRigidBody@2@AEAVPxScene@2@AEBVPxVec3@2@MV?$PxFlags@W4Enum@PxHitFlag@physx@@G@2@PEAUPxSweepHit@2@PEAIIAEAU72@AEAHAEA_NAEBUPxQueryFilterData@2@PEAVPxQueryFilterCallback@2@PEBUPxQueryCache@2@M@Z 000000018001a740 f   PhysX3ExtensionsPROFILE:ExtRigidBodyExt.obj
 0001:00019fa0       ?computeVelocityDeltaFromImpulse@PxRigidBodyExt@physx@@SAXAEBVPxRigidBody@2@AEBVPxVec3@2@1AEAV42@2@Z 000000018001afa0 f   PhysX3ExtensionsPROFILE:ExtRigidBodyExt.obj
 0001:0001a3b0       ?computeVelocityDeltaFromImpulse@PxRigidBodyExt@physx@@SAXAEBVPxRigidBody@2@AEBVPxTransform@2@AEBVPxVec3@2@2MMAEAV52@3@Z 000000018001b3b0 f   PhysX3ExtensionsPROFILE:ExtRigidBodyExt.obj
 0001:0001a8e0       ?computeLinearAngularImpulse@PxRigidBodyExt@physx@@SAXAEBVPxRigidBody@2@AEBVPxTransform@2@AEBVPxVec3@2@2MMAEAV52@3@Z 000000018001b8e0 f   PhysX3ExtensionsPROFILE:ExtRigidBodyExt.obj
 0001:0001ab80       ??0InertiaTensorComputer@Ext@physx@@QEAA@_N@Z 000000018001bb80 f   PhysX3ExtensionsPROFILE:ExtRigidBodyExt.obj
 0001:0001abb0       ??0InertiaTensorComputer@Ext@physx@@QEAA@AEBVPxMat33@2@AEBVPxVec3@2@M@Z 000000018001bbb0 f   PhysX3ExtensionsPROFILE:ExtRigidBodyExt.obj
 0001:0001ac10       ??1InertiaTensorComputer@Ext@physx@@QEAA@XZ 000000018001bc10 f   PhysX3ExtensionsPROFILE:ExtRigidBodyExt.obj
 0001:0001ac20       ?translate@InertiaTensorComputer@Ext@physx@@QEAAXAEBVPxVec3@3@@Z 000000018001bc20 f   PhysX3ExtensionsPROFILE:ExtRigidBodyExt.obj
 0001:0001b040       ?setBox@InertiaTensorComputer@Ext@physx@@QEAAXAEBVPxVec3@3@@Z 000000018001c040 f   PhysX3ExtensionsPROFILE:ExtRigidBodyExt.obj
 0001:0001b0e0       ?setSphere@InertiaTensorComputer@Ext@physx@@QEAAXM@Z 000000018001c0e0 f   PhysX3ExtensionsPROFILE:ExtRigidBodyExt.obj
 0001:0001b140       ?setCylinder@InertiaTensorComputer@Ext@physx@@QEAAXHMM@Z 000000018001c140 f   PhysX3ExtensionsPROFILE:ExtRigidBodyExt.obj
 0001:0001b210       ?setCapsule@InertiaTensorComputer@Ext@physx@@QEAAXHMM@Z 000000018001c210 f   PhysX3ExtensionsPROFILE:ExtRigidBodyExt.obj
 0001:0001b320       ?setEllipsoid@InertiaTensorComputer@Ext@physx@@QEAAXMMM@Z 000000018001c320 f   PhysX3ExtensionsPROFILE:ExtRigidBodyExt.obj
 0001:0001b3b0       ?computeSphereMass@Ext@physx@@YAMMM@Z 000000018001c3b0 f   PhysX3ExtensionsPROFILE:ExtRigidBodyExt.obj
 0001:0001b3e0       ?computeSphereDensity@Ext@physx@@YAMMM@Z 000000018001c3e0 f   PhysX3ExtensionsPROFILE:ExtRigidBodyExt.obj
 0001:0001b410       ?computeBoxMass@Ext@physx@@YAMAEBVPxVec3@2@M@Z 000000018001c410 f   PhysX3ExtensionsPROFILE:ExtRigidBodyExt.obj
 0001:0001b460       ?computeBoxDensity@Ext@physx@@YAMAEBVPxVec3@2@M@Z 000000018001c460 f   PhysX3ExtensionsPROFILE:ExtRigidBodyExt.obj
 0001:0001b4b0       ?computeEllipsoidMass@Ext@physx@@YAMAEBVPxVec3@2@M@Z 000000018001c4b0 f   PhysX3ExtensionsPROFILE:ExtRigidBodyExt.obj
 0001:0001b500       ?computeEllipsoidDensity@Ext@physx@@YAMAEBVPxVec3@2@M@Z 000000018001c500 f   PhysX3ExtensionsPROFILE:ExtRigidBodyExt.obj
 0001:0001b550       ?computeCylinderMass@Ext@physx@@YAMMMM@Z 000000018001c550 f   PhysX3ExtensionsPROFILE:ExtRigidBodyExt.obj
 0001:0001b570       ?computeCylinderDensity@Ext@physx@@YAMMMM@Z 000000018001c570 f   PhysX3ExtensionsPROFILE:ExtRigidBodyExt.obj
 0001:0001b590       ?computeCapsuleMass@Ext@physx@@YAMMMM@Z 000000018001c590 f   PhysX3ExtensionsPROFILE:ExtRigidBodyExt.obj
 0001:0001b5c0       ?computeCapsuleDensity@Ext@physx@@YAMMMM@Z 000000018001c5c0 f   PhysX3ExtensionsPROFILE:ExtRigidBodyExt.obj
 0001:0001b5f0       ?computeConeMass@Ext@physx@@YAMMMM@Z 000000018001c5f0 f   PhysX3ExtensionsPROFILE:ExtRigidBodyExt.obj
 0001:0001b620       ?computeConeDensity@Ext@physx@@YAMMMM@Z 000000018001c620 f   PhysX3ExtensionsPROFILE:ExtRigidBodyExt.obj
 0001:0001b650       ?computeBoxInertiaTensor@Ext@physx@@YAXAEAVPxVec3@2@MMMM@Z 000000018001c650 f   PhysX3ExtensionsPROFILE:ExtRigidBodyExt.obj
 0001:0001b6a0       ?computeSphereInertiaTensor@Ext@physx@@YAXAEAVPxVec3@2@MM_N@Z 000000018001c6a0 f   PhysX3ExtensionsPROFILE:ExtRigidBodyExt.obj
 0001:0001b6f0       ??0PxMassProperties@physx@@QEAA@AEBVPxGeometry@1@@Z 000000018001c6f0 f i PhysX3ExtensionsPROFILE:ExtRigidBodyExt.obj
 0001:0001bd40       ??1?$PxHitBuffer@UPxSweepHit@physx@@@physx@@UEAA@XZ 000000018001cd40 f i PhysX3ExtensionsPROFILE:ExtRigidBodyExt.obj
 0001:0001bd50       ??1?$PxHitCallback@UPxSweepHit@physx@@@physx@@UEAA@XZ 000000018001cd50 f i PhysX3ExtensionsPROFILE:ExtRigidBodyExt.obj
 0001:0001bd60       ??_E?$PxHitBuffer@UPxSweepHit@physx@@@physx@@UEAAPEAXI@Z 000000018001cd60 f i PhysX3ExtensionsPROFILE:ExtRigidBodyExt.obj
 0001:0001bd60       ??_G?$PxHitBuffer@UPxSweepHit@physx@@@physx@@UEAAPEAXI@Z 000000018001cd60 f i PhysX3ExtensionsPROFILE:ExtRigidBodyExt.obj
 0001:0001bd90       ??_G?$PxHitCallback@UPxSweepHit@physx@@@physx@@UEAAPEAXI@Z 000000018001cd90 f i PhysX3ExtensionsPROFILE:ExtRigidBodyExt.obj
 0001:0001bd90       ??_E?$PxHitCallback@UPxSweepHit@physx@@@physx@@UEAAPEAXI@Z 000000018001cd90 f i PhysX3ExtensionsPROFILE:ExtRigidBodyExt.obj
 0001:0001bdc0       ?addForceAtPosInternal@@YAXAEAVPxRigidBody@physx@@AEBVPxVec3@2@1W4Enum@PxForceMode@2@_N@Z 000000018001cdc0 f i PhysX3ExtensionsPROFILE:ExtRigidBodyExt.obj
 0001:0001c090       ?allocate@?$Array@PEAVPxShape@physx@@V?$InlineAllocator@$0IA@V?$ReflectionAllocator@PEAVPxShape@physx@@@shdfnd@physx@@@shdfnd@2@@shdfnd@physx@@IEAAPEAPEAVPxShape@3@I@Z 000000018001d090 f i PhysX3ExtensionsPROFILE:ExtRigidBodyExt.obj
 0001:0001c150       ?allocate@?$Array@VPxMassProperties@physx@@V?$InlineAllocator@$0DEA@V?$ReflectionAllocator@VPxMassProperties@physx@@@shdfnd@physx@@@shdfnd@2@@shdfnd@physx@@IEAAPEAVPxMassProperties@3@I@Z 000000018001d150 f i PhysX3ExtensionsPROFILE:ExtRigidBodyExt.obj
 0001:0001c210       ?allocate@?$Array@VPxTransform@physx@@V?$InlineAllocator@$0BMA@V?$ReflectionAllocator@VPxTransform@physx@@@shdfnd@physx@@@shdfnd@2@@shdfnd@physx@@IEAAPEAVPxTransform@3@I@Z 000000018001d210 f i PhysX3ExtensionsPROFILE:ExtRigidBodyExt.obj
 0001:0001d480       ?copy@?$Array@VPxMassProperties@physx@@V?$InlineAllocator@$0DEA@V?$ReflectionAllocator@VPxMassProperties@physx@@@shdfnd@physx@@@shdfnd@2@@shdfnd@physx@@KAXPEAVPxMassProperties@3@0PEBV43@@Z 000000018001e480 f i PhysX3ExtensionsPROFILE:ExtRigidBodyExt.obj
 0001:0001d690       ?copy@?$Array@VPxTransform@physx@@V?$InlineAllocator@$0BMA@V?$ReflectionAllocator@VPxTransform@physx@@@shdfnd@physx@@@shdfnd@2@@shdfnd@physx@@KAXPEAVPxTransform@3@0PEBV43@@Z 000000018001e690 f i PhysX3ExtensionsPROFILE:ExtRigidBodyExt.obj
 0001:0001d7f0       ?finalizeQuery@?$PxHitCallback@UPxSweepHit@physx@@@physx@@UEAAXXZ 000000018001e7f0 f i PhysX3ExtensionsPROFILE:ExtRigidBodyExt.obj
 0001:0001d800       ?getVelocityAtPosInternal@@YA?AVPxVec3@physx@@AEBVPxRigidBody@2@AEBV12@@Z 000000018001e800 f i PhysX3ExtensionsPROFILE:ExtRigidBodyExt.obj
 0001:0001d8e0       ?growAndPushBack@?$Array@VPxMassProperties@physx@@V?$InlineAllocator@$0DEA@V?$ReflectionAllocator@VPxMassProperties@physx@@@shdfnd@physx@@@shdfnd@2@@shdfnd@physx@@IEAAAEAVPxMassProperties@3@AEBV43@@Z 000000018001e8e0 f i PhysX3ExtensionsPROFILE:ExtRigidBodyExt.obj
 0001:0001da00       ?growAndPushBack@?$Array@VPxTransform@physx@@V?$InlineAllocator@$0BMA@V?$ReflectionAllocator@VPxTransform@physx@@@shdfnd@physx@@@shdfnd@2@@shdfnd@physx@@IEAAAEAVPxTransform@3@AEBV43@@Z 000000018001ea00 f i PhysX3ExtensionsPROFILE:ExtRigidBodyExt.obj
 0001:0001db00       ?processTouches@?$PxHitBuffer@UPxSweepHit@physx@@@physx@@MEAA_NPEBUPxSweepHit@2@I@Z 000000018001eb00 f i PhysX3ExtensionsPROFILE:ExtRigidBodyExt.obj
 0001:0001db10       ?recreate@?$Array@PEAVPxShape@physx@@V?$InlineAllocator@$0IA@V?$ReflectionAllocator@PEAVPxShape@physx@@@shdfnd@physx@@@shdfnd@2@@shdfnd@physx@@IEAAXI@Z 000000018001eb10 f i PhysX3ExtensionsPROFILE:ExtRigidBodyExt.obj
 0001:0001dbf0       ?recreate@?$Array@VPxMassProperties@physx@@V?$InlineAllocator@$0DEA@V?$ReflectionAllocator@VPxMassProperties@physx@@@shdfnd@physx@@@shdfnd@2@@shdfnd@physx@@IEAAXI@Z 000000018001ebf0 f i PhysX3ExtensionsPROFILE:ExtRigidBodyExt.obj
 0001:0001dc90       ?recreate@?$Array@VPxTransform@physx@@V?$InlineAllocator@$0BMA@V?$ReflectionAllocator@VPxTransform@physx@@@shdfnd@physx@@@shdfnd@2@@shdfnd@physx@@IEAAXI@Z 000000018001ec90 f i PhysX3ExtensionsPROFILE:ExtRigidBodyExt.obj
 0001:0001dd30       ?resize@?$Array@PEAVPxShape@physx@@V?$InlineAllocator@$0IA@V?$ReflectionAllocator@PEAVPxShape@physx@@@shdfnd@physx@@@shdfnd@2@@shdfnd@physx@@QEAAXIAEBQEAVPxShape@3@@Z 000000018001ed30 f i PhysX3ExtensionsPROFILE:ExtRigidBodyExt.obj
 0001:0001de10       ?rotate@InertiaTensorComputer@Ext@physx@@QEAAXAEBVPxMat33@3@@Z 000000018001ee10 f i PhysX3ExtensionsPROFILE:ExtRigidBodyExt.obj
 0001:0001e2d0       ?scaleInertia@PxMassProperties@physx@@SA?AVPxMat33@2@AEBV32@AEBVPxQuat@2@AEBVPxVec3@2@@Z 000000018001f2d0 f i PhysX3ExtensionsPROFILE:ExtRigidBodyExt.obj
 0001:0001eee0       ?sum@PxMassProperties@physx@@SA?AV12@PEBV12@PEBVPxTransform@2@I@Z 000000018001fee0 f i PhysX3ExtensionsPROFILE:ExtRigidBodyExt.obj
 0001:0001f980       ?transform@InertiaTensorComputer@Ext@physx@@QEAAXAEBVPxTransform@3@@Z 0000000180020980 f i PhysX3ExtensionsPROFILE:ExtRigidBodyExt.obj
 0001:0001fb00       ?transformFast@PxBounds3@physx@@SA?AV12@AEBVPxTransform@2@AEBV12@@Z 0000000180020b00 f i PhysX3ExtensionsPROFILE:ExtRigidBodyExt.obj
 0001:00020119       ?getAllocator@shdfnd@physx@@YAAEAVPxAllocatorCallback@2@XZ 0000000180021119 f   PxFoundationPROFILE_x64:PxFoundationPROFILE_x64.dll
 0001:0002011f       ?lock@MutexImpl@shdfnd@physx@@QEAAXXZ 000000018002111f f   PxFoundationPROFILE_x64:PxFoundationPROFILE_x64.dll
 0001:00020125       ?unlock@MutexImpl@shdfnd@physx@@QEAAXXZ 0000000180021125 f   PxFoundationPROFILE_x64:PxFoundationPROFILE_x64.dll
 0001:0002012b       PxGetFoundation            000000018002112b f   PxFoundationPROFILE_x64:PxFoundationPROFILE_x64.dll
 0001:00020131       PxGetProfilerCallback      0000000180021131 f   PxFoundationPROFILE_x64:PxFoundationPROFILE_x64.dll
 0001:00020137       ??0MutexImpl@shdfnd@physx@@QEAA@XZ 0000000180021137 f   PxFoundationPROFILE_x64:PxFoundationPROFILE_x64.dll
 0001:0002013d       ??1MutexImpl@shdfnd@physx@@QEAA@XZ 000000018002113d f   PxFoundationPROFILE_x64:PxFoundationPROFILE_x64.dll
 0001:00020143       ?getSize@MutexImpl@shdfnd@physx@@SAIXZ 0000000180021143 f   PxFoundationPROFILE_x64:PxFoundationPROFILE_x64.dll
 0001:00020149       ?getInstance@Foundation@shdfnd@physx@@SAAEAV123@XZ 0000000180021149 f   PxFoundationPROFILE_x64:PxFoundationPROFILE_x64.dll
 0001:0002014f       ?incRefCount@Foundation@shdfnd@physx@@SAXXZ 000000018002114f f   PxFoundationPROFILE_x64:PxFoundationPROFILE_x64.dll
 0001:00020155       ?decRefCount@Foundation@shdfnd@physx@@SAXXZ 0000000180021155 f   PxFoundationPROFILE_x64:PxFoundationPROFILE_x64.dll
 0001:0002015b       ?error@Foundation@shdfnd@physx@@QEAAXW4Enum@PxErrorCode@3@PEBDH1ZZ 000000018002115b f   PxFoundationPROFILE_x64:PxFoundationPROFILE_x64.dll
 0001:00020161       ?PxShortestRotation@physx@@YA?AVPxQuat@1@AEBVPxVec3@1@0@Z 0000000180021161 f   PxFoundationPROFILE_x64:PxFoundationPROFILE_x64.dll
 0001:00020167       ?PxDiagonalize@physx@@YA?AVPxVec3@1@AEBVPxMat33@1@AEAVPxQuat@1@@Z 0000000180021167 f   PxFoundationPROFILE_x64:PxFoundationPROFILE_x64.dll
 0001:0002016d       ?sweep@PxMeshQuery@physx@@SA_NAEBVPxVec3@2@MAEBVPxGeometry@2@AEBVPxTransform@2@IPEBVPxTriangle@2@AEAUPxSweepHit@2@V?$PxFlags@W4Enum@PxHitFlag@physx@@G@2@PEBIM_N@Z 000000018002116d f   PhysX3CommonPROFILE_x64:PhysX3CommonPROFILE_x64.dll
 0001:00020173       ??0RenderOutput@Cm@physx@@QEAA@AEAVRenderBuffer@12@@Z 0000000180021173 f   PhysX3CommonPROFILE_x64:PhysX3CommonPROFILE_x64.dll
 0001:00020179       ??6RenderOutput@Cm@physx@@QEAAAEAV012@I@Z 0000000180021179 f   PhysX3CommonPROFILE_x64:PhysX3CommonPROFILE_x64.dll
 0001:0002017f       ??6RenderOutput@Cm@physx@@QEAAAEAV012@AEBVPxTransform@2@@Z 000000018002117f f   PhysX3CommonPROFILE_x64:PhysX3CommonPROFILE_x64.dll
 0001:00020185       ?outputCapsule@RenderOutput@Cm@physx@@QEAAAEAV123@MMAEBVPxMat44@3@@Z 0000000180021185 f   PhysX3CommonPROFILE_x64:PhysX3CommonPROFILE_x64.dll
 0001:0002018b       ??6Cm@physx@@YAAEAVRenderOutput@01@AEAV201@AEBUDebugBox@01@@Z 000000018002118b f   PhysX3CommonPROFILE_x64:PhysX3CommonPROFILE_x64.dll
 0001:00020191       ?PxTransformFromSegment@physx@@YA?AVPxTransform@1@AEBVPxVec3@1@0PEAM@Z 0000000180021191 f   PhysX3CommonPROFILE_x64:PhysX3CommonPROFILE_x64.dll
 0001:00020197       ?sweep@PxGeometryQuery@physx@@SA_NAEBVPxVec3@2@MAEBVPxGeometry@2@AEBVPxTransform@2@12AEAUPxSweepHit@2@V?$PxFlags@W4Enum@PxHitFlag@physx@@G@2@M@Z 0000000180021197 f   PhysX3CommonPROFILE_x64:PhysX3CommonPROFILE_x64.dll
 0001:0002019d       ?computePenetration@PxGeometryQuery@physx@@SA_NAEAVPxVec3@2@AEAMAEBVPxGeometry@2@AEBVPxTransform@2@23@Z 000000018002119d f   PhysX3CommonPROFILE_x64:PhysX3CommonPROFILE_x64.dll
 0001:000201a3       ?intersectOBBOBB@Gu@physx@@YA_NAEBVPxVec3@2@0AEBVPxMat33@2@001_N@Z 00000001800211a3 f   PhysX3CommonPROFILE_x64:PhysX3CommonPROFILE_x64.dll
 0001:000201a9       ?distanceSegmentBoxSquared@Gu@physx@@YAMAEBVPxVec3@2@000AEBVPxMat33@2@PEAMPEAV32@@Z 00000001800211a9 f   PhysX3CommonPROFILE_x64:PhysX3CommonPROFILE_x64.dll
 0001:000201af       ?getTriangle@PxMeshQuery@physx@@SAXAEBVPxTriangleMeshGeometry@2@AEBVPxTransform@2@IAEAVPxTriangle@2@PEAI3@Z 00000001800211af f   PhysX3CommonPROFILE_x64:PhysX3CommonPROFILE_x64.dll
 0001:000201b5       ?getTriangle@PxMeshQuery@physx@@SAXAEBVPxHeightFieldGeometry@2@AEBVPxTransform@2@IAEAVPxTriangle@2@PEAI3@Z 00000001800211b5 f   PhysX3CommonPROFILE_x64:PhysX3CommonPROFILE_x64.dll
 0001:000201bb       ??6RenderOutput@Cm@physx@@QEAAAEAV012@W4Primitive@012@@Z 00000001800211bb f   PhysX3CommonPROFILE_x64:PhysX3CommonPROFILE_x64.dll
 0001:000201c1       ??6RenderOutput@Cm@physx@@QEAAAEAV012@VPxVec3@2@@Z 00000001800211c1 f   PhysX3CommonPROFILE_x64:PhysX3CommonPROFILE_x64.dll
 0001:000201c7       ?intersectTriangleBox_Unsafe@Gu@physx@@YAHAEBVPxVec3@2@0000@Z 00000001800211c7 f   PhysX3CommonPROFILE_x64:PhysX3CommonPROFILE_x64.dll
 0001:000201cd       ?CompleteBoxPruning@Cm@physx@@YA_NPEBVPxBounds3@2@IAEAV?$Array@IV?$ReflectionAllocator@I@shdfnd@physx@@@shdfnd@2@AEBVAxes@Gu@2@@Z 00000001800211cd f   PhysX3CommonPROFILE_x64:PhysX3CommonPROFILE_x64.dll
 0001:000201d3       ?distanceSegmentSegmentSquared@Gu@physx@@YAMAEBVPxVec3@2@000PEAM1@Z 00000001800211d3 f   PhysX3CommonPROFILE_x64:PhysX3CommonPROFILE_x64.dll
 0001:000201d9       ?getRaycastFuncTable@Gu@physx@@YAAEAY06Q6AIAEBVPxGeometry@2@AEBVPxTransform@2@AEBVPxVec3@2@2MV?$PxFlags@W4Enum@PxHitFlag@physx@@G@2@IPEIAUPxRaycastHit@2@@ZXZ 00000001800211d9 f   PhysX3CommonPROFILE_x64:PhysX3CommonPROFILE_x64.dll
 0001:000201df       ?findOverlapTriangleMesh@PxMeshQuery@physx@@SAIAEBVPxGeometry@2@AEBVPxTransform@2@AEBVPxTriangleMeshGeometry@2@1PEAIIIAEA_N@Z 00000001800211df f   PhysX3CommonPROFILE_x64:PhysX3CommonPROFILE_x64.dll
 0001:000201e5       ?findOverlapHeightField@PxMeshQuery@physx@@SAIAEBVPxGeometry@2@AEBVPxTransform@2@AEBVPxHeightFieldGeometry@2@1PEAIIIAEA_N@Z 00000001800211e5 f   PhysX3CommonPROFILE_x64:PhysX3CommonPROFILE_x64.dll
 0001:000201ec       ??3@YAXPEAX_K@Z            00000001800211ec f   MSVCRT:delete_scalar_size.obj
 0001:000201f4       ??_V@YAXPEAX_K@Z           00000001800211f4 f   MSVCRT:delete_array_size.obj
 0001:000201fc       ?__scrt_initialize_type_info@@YAXXZ 00000001800211fc f   MSVCRT:tncleanup.obj
 0001:0002020c       ?__scrt_uninitialize_type_info@@YAXXZ 000000018002120c f   MSVCRT:tncleanup.obj
 0001:00020218       ??1type_info@@UEAA@XZ      0000000180021218 f   MSVCRT:std_type_info_static.obj
 0001:00020224       ??_Gtype_info@@UEAAPEAXI@Z 0000000180021224 f i MSVCRT:std_type_info_static.obj
 0001:00020224       ??_Etype_info@@UEAAPEAXI@Z 0000000180021224 f i MSVCRT:std_type_info_static.obj
 0001:00020260       __chkstk                   0000000180021260 f   MSVCRT:chkstk.obj
 0001:00020260       _alloca_probe              0000000180021260 f   MSVCRT:chkstk.obj
 0001:00020600       _CRT_INIT                  0000000180021600 f   MSVCRT:dll_dllmain.obj
 0001:00020608       _DllMainCRTStartup         0000000180021608 f   MSVCRT:dll_dllmain.obj
 0001:00020648       ??3@YAXPEAX@Z              0000000180021648 f   MSVCRT:delete_scalar.obj
 0001:00020650       ??_V@YAXPEAX@Z             0000000180021650 f   MSVCRT:delete_array.obj
 0001:000206c4       __security_init_cookie     00000001800216c4 f   MSVCRT:gs_support.obj
 0001:00020770       DllMain                    0000000180021770 f   MSVCRT:dll_dllmain_stub.obj
 0001:00020794       __local_stdio_printf_options 0000000180021794 f i MSVCRT:default_local_stdio_options.obj
 0001:0002079c       __local_stdio_scanf_options 000000018002179c f i MSVCRT:default_local_stdio_options.obj
 0001:000207a4       __scrt_initialize_default_local_stdio_options 00000001800217a4 f   MSVCRT:default_local_stdio_options.obj
 0001:000207c0       ??$__crt_fast_decode_pointer@PEAP6AXXZ@@YAPEAP6AXXZQEAP6AXXZ@Z 00000001800217c0 f i MSVCRT:utility.obj
 0001:000207d8       ??$__crt_fast_encode_pointer@PEAP6AXXZ@@YAPEAP6AXXZQEAP6AXXZ@Z 00000001800217d8 f i MSVCRT:utility.obj
 0001:000207f8       ?__crt_rotate_pointer_value@@YA_K_KH@Z 00000001800217f8 f i MSVCRT:utility.obj
 0001:00020804       ?configure_argv@__scrt_narrow_argv_policy@@SAHXZ 0000000180021804 f i MSVCRT:utility.obj
 0001:00020864       ?initialize_environment@__scrt_narrow_environment_policy@@SAHXZ 0000000180021864 f i MSVCRT:utility.obj
 0001:0002089c       NtCurrentTeb               000000018002189c f i MSVCRT:utility.obj
 0001:000208a8       __scrt_acquire_startup_lock 00000001800218a8 f   MSVCRT:utility.obj
 0001:000208e4       __scrt_dllmain_after_initialize_c 00000001800218e4 f   MSVCRT:utility.obj
 0001:00020918       __scrt_dllmain_before_initialize_c 0000000180021918 f   MSVCRT:utility.obj
 0001:00020930       __scrt_dllmain_crt_thread_attach 0000000180021930 f   MSVCRT:utility.obj
 0001:00020958       __scrt_dllmain_crt_thread_detach 0000000180021958 f   MSVCRT:utility.obj
 0001:00020970       __scrt_dllmain_exception_filter 0000000180021970 f   MSVCRT:utility.obj
 0001:000209d0       __scrt_dllmain_uninitialize_c 00000001800219d0 f   MSVCRT:utility.obj
 0001:00020a00       __scrt_dllmain_uninitialize_critical 0000000180021a00 f   MSVCRT:utility.obj
 0001:00020a14       __scrt_initialize_crt      0000000180021a14 f   MSVCRT:utility.obj
 0001:00020a60       __scrt_initialize_onexit_tables 0000000180021a60 f   MSVCRT:utility.obj
 0001:00020b38       __scrt_is_nonwritable_in_current_image 0000000180021b38 f   MSVCRT:utility.obj
 0001:00020bd4       __scrt_release_startup_lock 0000000180021bd4 f   MSVCRT:utility.obj
 0001:00020bf8       __scrt_uninitialize_crt    0000000180021bf8 f   MSVCRT:utility.obj
 0001:00020c24       _onexit                    0000000180021c24 f   MSVCRT:utility.obj
 0001:00020c74       at_quick_exit              0000000180021c74 f   MSVCRT:utility.obj
 0001:00020cac       atexit                     0000000180021cac f   MSVCRT:utility.obj
 0001:00020cc4       __scrt_get_dyn_tls_init_callback 0000000180021cc4 f   MSVCRT:dyn_tls_init.obj
 0001:00020ccc       __crt_debugger_hook        0000000180021ccc f   MSVCRT:utility_desktop.obj
 0001:00020cd4       __scrt_fastfail            0000000180021cd4 f   MSVCRT:utility_desktop.obj
 0001:00020e20       __scrt_get_show_window_mode 0000000180021e20 f   MSVCRT:utility_desktop.obj
 0001:00020e5c       __scrt_initialize_mta      0000000180021e5c f   MSVCRT:utility_desktop.obj
 0001:00020e64       __scrt_initialize_winrt    0000000180021e64 f   MSVCRT:utility_desktop.obj
 0001:00020e68       __scrt_is_managed_app      0000000180021e68 f   MSVCRT:utility_desktop.obj
 0001:00020ebc       __scrt_set_unhandled_exception_filter 0000000180021ebc f   MSVCRT:utility_desktop.obj
 0001:00020ecc       __scrt_exe_initialize_mta  0000000180021ecc f   MSVCRT:utility_desktop.obj
 0001:00020ecc       __scrt_stub_for_initialize_mta 0000000180021ecc f   MSVCRT:utility_desktop.obj
 0001:00020ed0       __scrt_unhandled_exception_filter 0000000180021ed0 f   MSVCRT:utility_desktop.obj
 0001:00020f08       _RTC_Initialize            0000000180021f08 f   MSVCRT:initsect.obj
 0001:00020f44       _RTC_Terminate             0000000180021f44 f   MSVCRT:initsect.obj
 0001:00020f80       _guard_check_icall_nop     0000000180021f80 f i MSVCRT:guard_support.obj
 0001:00020f84       ReadNoFence64              0000000180021f84 f i MSVCRT:guard_support.obj
 0001:00020f88       ReadPointerNoFence         0000000180021f88 f i MSVCRT:guard_support.obj
 0001:00020f8c       _guard_icall_checks_enforced 0000000180021f8c f i MSVCRT:guard_support.obj
 0001:00020fa4       _guard_rf_checks_enforced  0000000180021fa4 f i MSVCRT:guard_support.obj
 0001:00020fa8       __isa_available_init       0000000180021fa8 f   MSVCRT:cpu_disp.obj
 0001:00021124       _get_startup_argv_mode     0000000180022124 f   MSVCRT:argv_mode.obj
 0001:0002112c       __scrt_is_ucrt_dll_in_use  000000018002212c f   MSVCRT:ucrt_detection.obj
 0001:00021140       _purecall                  0000000180022140 f   vcruntime:VCRUNTIME140.dll
 0001:00021146       __std_type_info_name       0000000180022146 f   vcruntime:VCRUNTIME140.dll
 0001:0002114c       memcpy                     000000018002214c f   vcruntime:VCRUNTIME140.dll
 0001:00021152       memset                     0000000180022152 f   vcruntime:VCRUNTIME140.dll
 0001:00021158       __std_type_info_destroy_list 0000000180022158 f   vcruntime:VCRUNTIME140.dll
 0001:0002115e       __C_specific_handler       000000018002215e f   vcruntime:VCRUNTIME140.dll
 0001:00021164       _fpclass                   0000000180022164 f   ucrt:api-ms-win-crt-math-l1-1-0.dll
 0001:0002116a       _initterm                  000000018002216a f   ucrt:api-ms-win-crt-runtime-l1-1-0.dll
 0001:00021170       _initterm_e                0000000180022170 f   ucrt:api-ms-win-crt-runtime-l1-1-0.dll
 0001:00021176       free                       0000000180022176 f   ucrt:api-ms-win-crt-heap-l1-1-0.dll
 0001:0002117c       _seh_filter_dll            000000018002217c f   ucrt:api-ms-win-crt-runtime-l1-1-0.dll
 0001:00021182       _configure_narrow_argv     0000000180022182 f   ucrt:api-ms-win-crt-runtime-l1-1-0.dll
 0001:00021188       _initialize_narrow_environment 0000000180022188 f   ucrt:api-ms-win-crt-runtime-l1-1-0.dll
 0001:0002118e       _initialize_onexit_table   000000018002218e f   ucrt:api-ms-win-crt-runtime-l1-1-0.dll
 0001:00021194       _register_onexit_function  0000000180022194 f   ucrt:api-ms-win-crt-runtime-l1-1-0.dll
 0001:0002119a       _execute_onexit_table      000000018002219a f   ucrt:api-ms-win-crt-runtime-l1-1-0.dll
 0001:000211a0       _crt_atexit                00000001800221a0 f   ucrt:api-ms-win-crt-runtime-l1-1-0.dll
 0001:000211a6       _crt_at_quick_exit         00000001800221a6 f   ucrt:api-ms-win-crt-runtime-l1-1-0.dll
 0001:000211ac       _cexit                     00000001800221ac f   ucrt:api-ms-win-crt-runtime-l1-1-0.dll
 0001:000211b2       terminate                  00000001800221b2 f   ucrt:api-ms-win-crt-runtime-l1-1-0.dll
 0001:000211b8       InitializeSListHead        00000001800221b8 f   kernel32:KERNEL32.dll
 0001:000211be       QueryPerformanceCounter    00000001800221be f   kernel32:KERNEL32.dll
 0001:000211c4       GetCurrentProcessId        00000001800221c4 f   kernel32:KERNEL32.dll
 0001:000211ca       GetCurrentThreadId         00000001800221ca f   kernel32:KERNEL32.dll
 0001:000211d0       GetSystemTimeAsFileTime    00000001800221d0 f   kernel32:KERNEL32.dll
 0001:000211d6       DisableThreadLibraryCalls  00000001800221d6 f   kernel32:KERNEL32.dll
 0001:000211dc       RtlCaptureContext          00000001800221dc f   kernel32:KERNEL32.dll
 0001:000211e2       RtlLookupFunctionEntry     00000001800221e2 f   kernel32:KERNEL32.dll
 0001:000211e8       RtlVirtualUnwind           00000001800221e8 f   kernel32:KERNEL32.dll
 0001:000211ee       IsDebuggerPresent          00000001800221ee f   kernel32:KERNEL32.dll
 0001:000211f4       UnhandledExceptionFilter   00000001800221f4 f   kernel32:KERNEL32.dll
 0001:000211fa       SetUnhandledExceptionFilter 00000001800221fa f   kernel32:KERNEL32.dll
 0001:00021200       GetStartupInfoW            0000000180022200 f   kernel32:KERNEL32.dll
 0001:00021206       IsProcessorFeaturePresent  0000000180022206 f   kernel32:KERNEL32.dll
 0001:0002120c       GetModuleHandleW           000000018002220c f   kernel32:KERNEL32.dll
 0001:00021214       __scrt_stub_for_acrt_initialize 0000000180022214 f   MSVCRT:ucrt_stubs.obj
 0001:00021214       __vcrt_initialize          0000000180022214 f   MSVCRT:ucrt_stubs.obj
 0001:00021214       __acrt_initialize          0000000180022214 f   MSVCRT:ucrt_stubs.obj
 0001:00021218       __vcrt_thread_attach       0000000180022218 f   MSVCRT:ucrt_stubs.obj
 0001:00021218       __acrt_thread_attach       0000000180022218 f   MSVCRT:ucrt_stubs.obj
 0001:00021218       __scrt_stub_for_acrt_thread_attach 0000000180022218 f   MSVCRT:ucrt_stubs.obj
 0001:0002121c       __scrt_stub_for_acrt_thread_detach 000000018002221c f   MSVCRT:ucrt_stubs.obj
 0001:0002121c       __vcrt_thread_detach       000000018002221c f   MSVCRT:ucrt_stubs.obj
 0001:0002121c       __acrt_thread_detach       000000018002221c f   MSVCRT:ucrt_stubs.obj
 0001:00021220       __scrt_stub_for_acrt_uninitialize 0000000180022220 f   MSVCRT:ucrt_stubs.obj
 0001:00021220       __vcrt_uninitialize        0000000180022220 f   MSVCRT:ucrt_stubs.obj
 0001:00021220       __acrt_uninitialize        0000000180022220 f   MSVCRT:ucrt_stubs.obj
 0001:00021224       __scrt_stub_for_acrt_uninitialize_critical 0000000180022224 f   MSVCRT:ucrt_stubs.obj
 0001:00021224       __acrt_uninitialize_critical 0000000180022224 f   MSVCRT:ucrt_stubs.obj
 0001:00021224       __vcrt_uninitialize_critical 0000000180022224 f   MSVCRT:ucrt_stubs.obj
 0001:00021228       __scrt_stub_for_is_c_termination_complete 0000000180022228 f   MSVCRT:ucrt_stubs.obj
 0001:00021228       _is_c_termination_complete 0000000180022228 f   MSVCRT:ucrt_stubs.obj
 0001:00021240       _guard_dispatch_icall_nop  0000000180022240 f   MSVCRT:guard_dispatch.obj
 0002:00000000       __imp_InitializeSListHead  0000000180023000     kernel32:KERNEL32.dll
 0002:00000008       __imp_QueryPerformanceCounter 0000000180023008     kernel32:KERNEL32.dll
 0002:00000010       __imp_GetCurrentProcessId  0000000180023010     kernel32:KERNEL32.dll
 0002:00000018       __imp_GetCurrentThreadId   0000000180023018     kernel32:KERNEL32.dll
 0002:00000020       __imp_GetSystemTimeAsFileTime 0000000180023020     kernel32:KERNEL32.dll
 0002:00000028       __imp_DisableThreadLibraryCalls 0000000180023028     kernel32:KERNEL32.dll
 0002:00000030       __imp_RtlCaptureContext    0000000180023030     kernel32:KERNEL32.dll
 0002:00000038       __imp_RtlLookupFunctionEntry 0000000180023038     kernel32:KERNEL32.dll
 0002:00000040       __imp_RtlVirtualUnwind     0000000180023040     kernel32:KERNEL32.dll
 0002:00000048       __imp_IsDebuggerPresent    0000000180023048     kernel32:KERNEL32.dll
 0002:00000050       __imp_UnhandledExceptionFilter 0000000180023050     kernel32:KERNEL32.dll
 0002:00000058       __imp_SetUnhandledExceptionFilter 0000000180023058     kernel32:KERNEL32.dll
 0002:00000060       __imp_GetStartupInfoW      0000000180023060     kernel32:KERNEL32.dll
 0002:00000068       __imp_IsProcessorFeaturePresent 0000000180023068     kernel32:KERNEL32.dll
 0002:00000070       __imp_GetModuleHandleW     0000000180023070     kernel32:KERNEL32.dll
 0002:00000078       \177KERNEL32_NULL_THUNK_DATA 0000000180023078     kernel32:KERNEL32.dll
 0002:00000080       __imp_??0RenderOutput@Cm@physx@@QEAA@AEAVRenderBuffer@12@@Z 0000000180023080     PhysX3CommonPROFILE_x64:PhysX3CommonPROFILE_x64.dll
 0002:00000088       __imp_??6RenderOutput@Cm@physx@@QEAAAEAV012@I@Z 0000000180023088     PhysX3CommonPROFILE_x64:PhysX3CommonPROFILE_x64.dll
 0002:00000090       __imp_??6RenderOutput@Cm@physx@@QEAAAEAV012@AEBVPxTransform@2@@Z 0000000180023090     PhysX3CommonPROFILE_x64:PhysX3CommonPROFILE_x64.dll
 0002:00000098       __imp_?outputCapsule@RenderOutput@Cm@physx@@QEAAAEAV123@MMAEBVPxMat44@3@@Z 0000000180023098     PhysX3CommonPROFILE_x64:PhysX3CommonPROFILE_x64.dll
 0002:000000a0       __imp_??6Cm@physx@@YAAEAVRenderOutput@01@AEAV201@AEBUDebugBox@01@@Z 00000001800230a0     PhysX3CommonPROFILE_x64:PhysX3CommonPROFILE_x64.dll
 0002:000000a8       __imp_?PxTransformFromSegment@physx@@YA?AVPxTransform@1@AEBVPxVec3@1@0PEAM@Z 00000001800230a8     PhysX3CommonPROFILE_x64:PhysX3CommonPROFILE_x64.dll
 0002:000000b0       __imp_?sweep@PxGeometryQuery@physx@@SA_NAEBVPxVec3@2@MAEBVPxGeometry@2@AEBVPxTransform@2@12AEAUPxSweepHit@2@V?$PxFlags@W4Enum@PxHitFlag@physx@@G@2@M@Z 00000001800230b0     PhysX3CommonPROFILE_x64:PhysX3CommonPROFILE_x64.dll
 0002:000000b8       __imp_?computePenetration@PxGeometryQuery@physx@@SA_NAEAVPxVec3@2@AEAMAEBVPxGeometry@2@AEBVPxTransform@2@23@Z 00000001800230b8     PhysX3CommonPROFILE_x64:PhysX3CommonPROFILE_x64.dll
 0002:000000c0       __imp_?intersectOBBOBB@Gu@physx@@YA_NAEBVPxVec3@2@0AEBVPxMat33@2@001_N@Z 00000001800230c0     PhysX3CommonPROFILE_x64:PhysX3CommonPROFILE_x64.dll
 0002:000000c8       __imp_?distanceSegmentBoxSquared@Gu@physx@@YAMAEBVPxVec3@2@000AEBVPxMat33@2@PEAMPEAV32@@Z 00000001800230c8     PhysX3CommonPROFILE_x64:PhysX3CommonPROFILE_x64.dll
 0002:000000d0       __imp_?sweep@PxMeshQuery@physx@@SA_NAEBVPxVec3@2@MAEBVPxGeometry@2@AEBVPxTransform@2@IPEBVPxTriangle@2@AEAUPxSweepHit@2@V?$PxFlags@W4Enum@PxHitFlag@physx@@G@2@PEBIM_N@Z 00000001800230d0     PhysX3CommonPROFILE_x64:PhysX3CommonPROFILE_x64.dll
 0002:000000d8       __imp_?getTriangle@PxMeshQuery@physx@@SAXAEBVPxHeightFieldGeometry@2@AEBVPxTransform@2@IAEAVPxTriangle@2@PEAI3@Z 00000001800230d8     PhysX3CommonPROFILE_x64:PhysX3CommonPROFILE_x64.dll
 0002:000000e0       __imp_??6RenderOutput@Cm@physx@@QEAAAEAV012@W4Primitive@012@@Z 00000001800230e0     PhysX3CommonPROFILE_x64:PhysX3CommonPROFILE_x64.dll
 0002:000000e8       __imp_??6RenderOutput@Cm@physx@@QEAAAEAV012@VPxVec3@2@@Z 00000001800230e8     PhysX3CommonPROFILE_x64:PhysX3CommonPROFILE_x64.dll
 0002:000000f0       __imp_?intersectTriangleBox_Unsafe@Gu@physx@@YAHAEBVPxVec3@2@0000@Z 00000001800230f0     PhysX3CommonPROFILE_x64:PhysX3CommonPROFILE_x64.dll
 0002:000000f8       __imp_?CompleteBoxPruning@Cm@physx@@YA_NPEBVPxBounds3@2@IAEAV?$Array@IV?$ReflectionAllocator@I@shdfnd@physx@@@shdfnd@2@AEBVAxes@Gu@2@@Z 00000001800230f8     PhysX3CommonPROFILE_x64:PhysX3CommonPROFILE_x64.dll
 0002:00000100       __imp_?distanceSegmentSegmentSquared@Gu@physx@@YAMAEBVPxVec3@2@000PEAM1@Z 0000000180023100     PhysX3CommonPROFILE_x64:PhysX3CommonPROFILE_x64.dll
 0002:00000108       __imp_?getRaycastFuncTable@Gu@physx@@YAAEAY06Q6AIAEBVPxGeometry@2@AEBVPxTransform@2@AEBVPxVec3@2@2MV?$PxFlags@W4Enum@PxHitFlag@physx@@G@2@IPEIAUPxRaycastHit@2@@ZXZ 0000000180023108     PhysX3CommonPROFILE_x64:PhysX3CommonPROFILE_x64.dll
 0002:00000110       __imp_?findOverlapTriangleMesh@PxMeshQuery@physx@@SAIAEBVPxGeometry@2@AEBVPxTransform@2@AEBVPxTriangleMeshGeometry@2@1PEAIIIAEA_N@Z 0000000180023110     PhysX3CommonPROFILE_x64:PhysX3CommonPROFILE_x64.dll
 0002:00000118       __imp_?findOverlapHeightField@PxMeshQuery@physx@@SAIAEBVPxGeometry@2@AEBVPxTransform@2@AEBVPxHeightFieldGeometry@2@1PEAIIIAEA_N@Z 0000000180023118     PhysX3CommonPROFILE_x64:PhysX3CommonPROFILE_x64.dll
 0002:00000120       __imp_?getTriangle@PxMeshQuery@physx@@SAXAEBVPxTriangleMeshGeometry@2@AEBVPxTransform@2@IAEAVPxTriangle@2@PEAI3@Z 0000000180023120     PhysX3CommonPROFILE_x64:PhysX3CommonPROFILE_x64.dll
 0002:00000128       \177PhysX3CommonPROFILE_x64_NULL_THUNK_DATA 0000000180023128     PhysX3CommonPROFILE_x64:PhysX3CommonPROFILE_x64.dll
 0002:00000130       __imp_?getAllocator@shdfnd@physx@@YAAEAVPxAllocatorCallback@2@XZ 0000000180023130     PxFoundationPROFILE_x64:PxFoundationPROFILE_x64.dll
 0002:00000138       __imp_?PxShortestRotation@physx@@YA?AVPxQuat@1@AEBVPxVec3@1@0@Z 0000000180023138     PxFoundationPROFILE_x64:PxFoundationPROFILE_x64.dll
 0002:00000140       __imp_?error@Foundation@shdfnd@physx@@QEAAXW4Enum@PxErrorCode@3@PEBDH1ZZ 0000000180023140     PxFoundationPROFILE_x64:PxFoundationPROFILE_x64.dll
 0002:00000148       __imp_?decRefCount@Foundation@shdfnd@physx@@SAXXZ 0000000180023148     PxFoundationPROFILE_x64:PxFoundationPROFILE_x64.dll
 0002:00000150       __imp_?incRefCount@Foundation@shdfnd@physx@@SAXXZ 0000000180023150     PxFoundationPROFILE_x64:PxFoundationPROFILE_x64.dll
 0002:00000158       __imp_?getInstance@Foundation@shdfnd@physx@@SAAEAV123@XZ 0000000180023158     PxFoundationPROFILE_x64:PxFoundationPROFILE_x64.dll
 0002:00000160       __imp_?PxDiagonalize@physx@@YA?AVPxVec3@1@AEBVPxMat33@1@AEAVPxQuat@1@@Z 0000000180023160     PxFoundationPROFILE_x64:PxFoundationPROFILE_x64.dll
 0002:00000168       __imp_??1MutexImpl@shdfnd@physx@@QEAA@XZ 0000000180023168     PxFoundationPROFILE_x64:PxFoundationPROFILE_x64.dll
 0002:00000170       __imp_??0MutexImpl@shdfnd@physx@@QEAA@XZ 0000000180023170     PxFoundationPROFILE_x64:PxFoundationPROFILE_x64.dll
 0002:00000178       __imp_PxGetProfilerCallback 0000000180023178     PxFoundationPROFILE_x64:PxFoundationPROFILE_x64.dll
 0002:00000180       __imp_PxGetFoundation      0000000180023180     PxFoundationPROFILE_x64:PxFoundationPROFILE_x64.dll
 0002:00000188       __imp_?unlock@MutexImpl@shdfnd@physx@@QEAAXXZ 0000000180023188     PxFoundationPROFILE_x64:PxFoundationPROFILE_x64.dll
 0002:00000190       __imp_?lock@MutexImpl@shdfnd@physx@@QEAAXXZ 0000000180023190     PxFoundationPROFILE_x64:PxFoundationPROFILE_x64.dll
 0002:00000198       __imp_?getSize@MutexImpl@shdfnd@physx@@SAIXZ 0000000180023198     PxFoundationPROFILE_x64:PxFoundationPROFILE_x64.dll
 0002:000001a0       \177PxFoundationPROFILE_x64_NULL_THUNK_DATA 00000001800231a0     PxFoundationPROFILE_x64:PxFoundationPROFILE_x64.dll
 0002:000001a8       __imp_memset               00000001800231a8     vcruntime:VCRUNTIME140.dll
 0002:000001b0       __imp___std_type_info_destroy_list 00000001800231b0     vcruntime:VCRUNTIME140.dll
 0002:000001b8       __imp___C_specific_handler 00000001800231b8     vcruntime:VCRUNTIME140.dll
 0002:000001c0       __imp__purecall            00000001800231c0     vcruntime:VCRUNTIME140.dll
 0002:000001c8       __imp_memcpy               00000001800231c8     vcruntime:VCRUNTIME140.dll
 0002:000001d0       __imp___std_type_info_name 00000001800231d0     vcruntime:VCRUNTIME140.dll
 0002:000001d8       \177VCRUNTIME140_NULL_THUNK_DATA 00000001800231d8     vcruntime:VCRUNTIME140.dll
 0002:000001e0       __imp_free                 00000001800231e0     ucrt:api-ms-win-crt-heap-l1-1-0.dll
 0002:000001e8       \177api-ms-win-crt-heap-l1-1-0_NULL_THUNK_DATA 00000001800231e8     ucrt:api-ms-win-crt-heap-l1-1-0.dll
 0002:000001f0       __imp__fpclass             00000001800231f0     ucrt:api-ms-win-crt-math-l1-1-0.dll
 0002:000001f8       \177api-ms-win-crt-math-l1-1-0_NULL_THUNK_DATA 00000001800231f8     ucrt:api-ms-win-crt-math-l1-1-0.dll
 0002:00000200       __imp__initialize_narrow_environment 0000000180023200     ucrt:api-ms-win-crt-runtime-l1-1-0.dll
 0002:00000208       __imp__initterm_e          0000000180023208     ucrt:api-ms-win-crt-runtime-l1-1-0.dll
 0002:00000210       __imp__initterm            0000000180023210     ucrt:api-ms-win-crt-runtime-l1-1-0.dll
 0002:00000218       __imp__initialize_onexit_table 0000000180023218     ucrt:api-ms-win-crt-runtime-l1-1-0.dll
 0002:00000220       __imp__seh_filter_dll      0000000180023220     ucrt:api-ms-win-crt-runtime-l1-1-0.dll
 0002:00000228       __imp_terminate            0000000180023228     ucrt:api-ms-win-crt-runtime-l1-1-0.dll
 0002:00000230       __imp__cexit               0000000180023230     ucrt:api-ms-win-crt-runtime-l1-1-0.dll
 0002:00000238       __imp__crt_at_quick_exit   0000000180023238     ucrt:api-ms-win-crt-runtime-l1-1-0.dll
 0002:00000240       __imp__crt_atexit          0000000180023240     ucrt:api-ms-win-crt-runtime-l1-1-0.dll
 0002:00000248       __imp__execute_onexit_table 0000000180023248     ucrt:api-ms-win-crt-runtime-l1-1-0.dll
 0002:00000250       __imp__configure_narrow_argv 0000000180023250     ucrt:api-ms-win-crt-runtime-l1-1-0.dll
 0002:00000258       __imp__register_onexit_function 0000000180023258     ucrt:api-ms-win-crt-runtime-l1-1-0.dll
 0002:00000260       \177api-ms-win-crt-runtime-l1-1-0_NULL_THUNK_DATA 0000000180023260     ucrt:api-ms-win-crt-runtime-l1-1-0.dll
 0002:00000268       __guard_check_icall_fptr   0000000180023268     MSVCRT:guard_support.obj
 0002:00000270       __guard_dispatch_icall_fptr 0000000180023270     MSVCRT:guard_support.obj
 0002:00000278       __xc_a                     0000000180023278     MSVCRT:initializers.obj
 0002:000002b0       __xc_z                     00000001800232b0     MSVCRT:initializers.obj
 0002:000002b8       __xi_a                     00000001800232b8     MSVCRT:initializers.obj
 0002:000002c0       __xi_z                     00000001800232c0     MSVCRT:initializers.obj
 0002:000002c8       __xp_a                     00000001800232c8     MSVCRT:initializers.obj
 0002:000002d0       __xp_z                     00000001800232d0     MSVCRT:initializers.obj
 0002:000002d8       __xt_a                     00000001800232d8     MSVCRT:initializers.obj
 0002:000002e0       __xt_z                     00000001800232e0     MSVCRT:initializers.obj
 0002:000002f0       ??_7PxController@physx@@6B@ 00000001800232f0     CctBoxController.obj
 0002:000003c0       ??_7PxControllerManager@physx@@6B@ 00000001800233c0     CctBoxController.obj
 0002:00000450       ??_7PxFoundation@physx@@6B@ 0000000180023450     CctBoxController.obj
 0002:00000490       ??_7PxBoxController@physx@@6B@ 0000000180023490     CctBoxController.obj
 0002:00000590       ??_7BoxController@Cct@physx@@6BPxBoxController@2@@ 0000000180023590     CctBoxController.obj
 0002:00000690       ??_7BoxController@Cct@physx@@6BController@12@@ 0000000180023690     CctBoxController.obj
 0002:000006b0       __real@3f000000            00000001800236b0     CctBoxController.obj
 0002:000006c0       __xmm@3fe00000000000003fe0000000000000 00000001800236c0     CctBoxController.obj
 0002:000006d0       ??_7PxCapsuleController@physx@@6B@ 00000001800236d0     CctCapsuleController.obj
 0002:000007d0       ??_7CapsuleController@Cct@physx@@6BPxCapsuleController@2@@ 00000001800237d0     CctCapsuleController.obj
 0002:000008d0       ??_7CapsuleController@Cct@physx@@6BController@12@@ 00000001800238d0     CctCapsuleController.obj
 0002:000008f0       ??_7?$PxHitCallback@UPxRaycastHit@physx@@@physx@@6B@ 00000001800238f0     CctCharacterController.obj
 0002:00000908       ??_7?$PxHitBuffer@UPxRaycastHit@physx@@@physx@@6B@ 0000000180023908     CctCharacterController.obj
 0002:00000920       ??_7PxQueryFilterCallback@physx@@6B@ 0000000180023920     CctCharacterController.obj
 0002:00000950       ??_C@_0CA@CFKKDOLG@CharacterController?4doSweepTest@ 0000000180023950     CctCharacterController.obj
 0002:00000970       ??_C@_0CC@KMLEHBGF@CharacterController?4moveCharact@ 0000000180023970     CctCharacterController.obj
 0002:00000998       ??_7ControllerFilter@@6B@  0000000180023998     CctCharacterController.obj
 0002:000009b0       ??_C@_0CP@PMDHKMKE@CharacterController?4filterCandi@ 00000001800239b0     CctCharacterController.obj
 0002:000009e0       ??_C@_0BJ@FHANBDIB@CharacterController?4move@ 00000001800239e0     CctCharacterController.obj
 0002:00000a00       ??_C@_0BM@OIFKLHDN@?$DMallocation?5names?5disabled?$DO@ 0000000180023a00     CctCharacterController.obj
 0002:00000a20       ??_C@_0FL@LPEHMGCG@c?3?2users?2bestr?2documents?2librar@ 0000000180023a20     CctCharacterController.obj
 0002:00000a7c       __real@34000000            0000000180023a7c     CctCharacterController.obj
 0002:00000a80       __real@358637bd            0000000180023a80     CctCharacterController.obj
 0002:00000a84       __real@3dcccccd            0000000180023a84     CctCharacterController.obj
 0002:00000a88       __real@3ee66666            0000000180023a88     CctCharacterController.obj
 0002:00000a8c       __real@3f800000            0000000180023a8c     CctCharacterController.obj
 0002:00000a90       __real@3fe0000000000000    0000000180023a90     CctCharacterController.obj
 0002:00000a98       __real@7f7fffff            0000000180023a98     CctCharacterController.obj
 0002:00000aa0       __xmm@0000000000000000000000003f800000 0000000180023aa0     CctCharacterController.obj
 0002:00000ab0       __xmm@00000000000000007f7fffff00000000 0000000180023ab0     CctCharacterController.obj
 0002:00000ac0       __xmm@3f800000000000000000000000000000 0000000180023ac0     CctCharacterController.obj
 0002:00000ad0       __xmm@7fffffff7fffffff7fffffff7fffffff 0000000180023ad0     CctCharacterController.obj
 0002:00000ae0       __xmm@80000000800000008000000080000000 0000000180023ae0     CctCharacterController.obj
 0002:00000af0       ?g_PXSinCoefficients0@aos@shdfnd@physx@@3UPX_VECTORF32@123@B 0000000180023af0     CctCharacterControllerCallbacks.obj
 0002:00000b00       ?g_PXSinCoefficients1@aos@shdfnd@physx@@3UPX_VECTORF32@123@B 0000000180023b00     CctCharacterControllerCallbacks.obj
 0002:00000b10       ?g_PXSinCoefficients2@aos@shdfnd@physx@@3UPX_VECTORF32@123@B 0000000180023b10     CctCharacterControllerCallbacks.obj
 0002:00000b20       ?g_PXCosCoefficients0@aos@shdfnd@physx@@3UPX_VECTORF32@123@B 0000000180023b20     CctCharacterControllerCallbacks.obj
 0002:00000b30       ?g_PXCosCoefficients1@aos@shdfnd@physx@@3UPX_VECTORF32@123@B 0000000180023b30     CctCharacterControllerCallbacks.obj
 0002:00000b40       ?g_PXCosCoefficients2@aos@shdfnd@physx@@3UPX_VECTORF32@123@B 0000000180023b40     CctCharacterControllerCallbacks.obj
 0002:00000b50       ?g_PXTanCoefficients0@aos@shdfnd@physx@@3UPX_VECTORF32@123@B 0000000180023b50     CctCharacterControllerCallbacks.obj
 0002:00000b60       ?g_PXTanCoefficients1@aos@shdfnd@physx@@3UPX_VECTORF32@123@B 0000000180023b60     CctCharacterControllerCallbacks.obj
 0002:00000b70       ?g_PXTanCoefficients2@aos@shdfnd@physx@@3UPX_VECTORF32@123@B 0000000180023b70     CctCharacterControllerCallbacks.obj
 0002:00000b80       ?g_PXASinCoefficients0@aos@shdfnd@physx@@3UPX_VECTORF32@123@B 0000000180023b80     CctCharacterControllerCallbacks.obj
 0002:00000b90       ?g_PXASinCoefficients1@aos@shdfnd@physx@@3UPX_VECTORF32@123@B 0000000180023b90     CctCharacterControllerCallbacks.obj
 0002:00000ba0       ?g_PXASinCoefficients2@aos@shdfnd@physx@@3UPX_VECTORF32@123@B 0000000180023ba0     CctCharacterControllerCallbacks.obj
 0002:00000bb0       ?g_PXATanCoefficients0@aos@shdfnd@physx@@3UPX_VECTORF32@123@B 0000000180023bb0     CctCharacterControllerCallbacks.obj
 0002:00000bc0       ?g_PXATanCoefficients1@aos@shdfnd@physx@@3UPX_VECTORF32@123@B 0000000180023bc0     CctCharacterControllerCallbacks.obj
 0002:00000bd0       ?g_PXATanCoefficients2@aos@shdfnd@physx@@3UPX_VECTORF32@123@B 0000000180023bd0     CctCharacterControllerCallbacks.obj
 0002:00000be0       ?g_PXSinEstCoefficients@aos@shdfnd@physx@@3UPX_VECTORF32@123@B 0000000180023be0     CctCharacterControllerCallbacks.obj
 0002:00000bf0       ?g_PXCosEstCoefficients@aos@shdfnd@physx@@3UPX_VECTORF32@123@B 0000000180023bf0     CctCharacterControllerCallbacks.obj
 0002:00000c00       ?g_PXTanEstCoefficients@aos@shdfnd@physx@@3UPX_VECTORF32@123@B 0000000180023c00     CctCharacterControllerCallbacks.obj
 0002:00000c10       ?g_PXATanEstCoefficients@aos@shdfnd@physx@@3UPX_VECTORF32@123@B 0000000180023c10     CctCharacterControllerCallbacks.obj
 0002:00000c20       ?g_PXASinEstCoefficients@aos@shdfnd@physx@@3UPX_VECTORF32@123@B 0000000180023c20     CctCharacterControllerCallbacks.obj
 0002:00000c30       ?g_PXASinEstConstants@aos@shdfnd@physx@@3UPX_VECTORF32@123@B 0000000180023c30     CctCharacterControllerCallbacks.obj
 0002:00000c40       ?g_PXPiConstants0@aos@shdfnd@physx@@3UPX_VECTORF32@123@B 0000000180023c40     CctCharacterControllerCallbacks.obj
 0002:00000c50       ?g_PXReciprocalTwoPi@aos@shdfnd@physx@@3UPX_VECTORF32@123@B 0000000180023c50     CctCharacterControllerCallbacks.obj
 0002:00000c60       ?g_PXTwoPi@aos@shdfnd@physx@@3UPX_VECTORF32@123@B 0000000180023c60     CctCharacterControllerCallbacks.obj
 0002:00000c90       ??_7?$PxHitCallback@UPxOverlapHit@physx@@@physx@@6B@ 0000000180023c90     CctCharacterControllerCallbacks.obj
 0002:00000ca8       ??_7?$PxHitBuffer@UPxOverlapHit@physx@@@physx@@6B@ 0000000180023ca8     CctCharacterControllerCallbacks.obj
 0002:00000cc0       ??_C@_0CI@EALPEGI@CharacterController?4findTouched@ 0000000180023cc0     CctCharacterControllerCallbacks.obj
 0002:00000ce8       __real@3a83126f            0000000180023ce8     CctCharacterControllerCallbacks.obj
 0002:00000cec       __real@3c23d70a            0000000180023cec     CctCharacterControllerCallbacks.obj
 0002:00000cf0       __real@3f7ff972            0000000180023cf0     CctCharacterControllerCallbacks.obj
 0002:00000cf4       __real@7f7fc99e            0000000180023cf4     CctCharacterControllerCallbacks.obj
 0002:00000cf8       __real@ba83126f            0000000180023cf8     CctCharacterControllerCallbacks.obj
 0002:00000d00       __xmm@000000003a83126f3a83126f3a83126f 0000000180023d00     CctCharacterControllerCallbacks.obj
 0002:00000d10       __xmm@000000003f8000003f8000003f800000 0000000180023d10     CctCharacterControllerCallbacks.obj
 0002:00000d20       __xmm@00000000ba83126fba83126fba83126f 0000000180023d20     CctCharacterControllerCallbacks.obj
 0002:00000d30       __xmm@80000000000000008000000000000000 0000000180023d30     CctCharacterControllerCallbacks.obj
 0002:00000d40       ??_7PxRenderBuffer@physx@@6B@ 0000000180023d40     CctCharacterControllerManager.obj
 0002:00000d98       ??_7PxDeletionListener@physx@@6B@ 0000000180023d98     CctCharacterControllerManager.obj
 0002:00000da8       ??_C@_0BA@DLCJDKDM@NonTrackedAlloc@ 0000000180023da8     CctCharacterControllerManager.obj
 0002:00000db8       ??_7RenderBuffer@Cm@physx@@6B@ 0000000180023db8     CctCharacterControllerManager.obj
 0002:00000e10       ??_7CharacterControllerManager@Cct@physx@@6BPxControllerManager@2@@ 0000000180023e10     CctCharacterControllerManager.obj
 0002:00000ea0       ??_7CharacterControllerManager@Cct@physx@@6BPxDeletionListener@2@@ 0000000180023ea0     CctCharacterControllerManager.obj
 0002:00000eb0       ??_C@_0IA@HGHJICMG@c?3?2users?2bestr?2documents?2librar@ 0000000180023eb0     CctCharacterControllerManager.obj
 0002:00000f30       ??_C@_0DJ@FJGFFNLM@PxControllerManager?3?3getControl@ 0000000180023f30     CctCharacterControllerManager.obj
 0002:00000f70       ??_C@_0DO@NLBEEDJJ@PxControllerManager?3?3getObstacl@ 0000000180023f70     CctCharacterControllerManager.obj
 0002:00000fb0       ??_C@_0FL@LGCKMPFP@c?3?2users?2bestr?2documents?2librar@ 0000000180023fb0     CctCharacterControllerManager.obj
 0002:00001010       ??_C@_0GD@DPDNEHEI@c?3?2users?2bestr?2documents?2librar@ 0000000180024010     CctCharacterControllerManager.obj
 0002:00001074       __real@40800000            0000000180024074     CctCharacterControllerManager.obj
 0002:00001080       __xmm@00000001000000010000000100000001 0000000180024080     CctCharacterControllerManager.obj
 0002:00001090       __xmm@00000003000000020000000100000000 0000000180024090     CctCharacterControllerManager.obj
 0002:000010a0       ??_7Controller@Cct@physx@@6B@ 00000001800240a0     CctController.obj
 0002:000010c0       ??_7PxObstacleContext@physx@@6B@ 00000001800240c0     CctObstacleContext.obj
 0002:00001108       ??_7ObstacleContext@Cct@physx@@6B@ 0000000180024108     CctObstacleContext.obj
 0002:00001150       ??_C@_0HF@CPBIENJC@c?3?2users?2bestr?2documents?2librar@ 0000000180024150     CctObstacleContext.obj
 0002:000011c8       ??_7SweptBox@Cct@physx@@6B@ 00000001800241c8     CctSweptBox.obj
 0002:000011d8       ??_7SweptCapsule@Cct@physx@@6B@ 00000001800241d8     CctSweptCapsule.obj
 0002:000011e8       ??_7SweptVolume@Cct@physx@@6B@ 00000001800241e8     CctSweptVolume.obj
 0002:00001200       ??_C@_0GN@CAAFPKBN@c?3?2users?2bestr?2documents?2librar@ 0000000180024200     PhysX3ExtensionsPROFILE:ExtTriangleMeshExt.obj
 0002:00001270       ??_7?$PxHitCallback@UPxSweepHit@physx@@@physx@@6B@ 0000000180024270     PhysX3ExtensionsPROFILE:ExtRigidBodyExt.obj
 0002:00001288       ??_7?$PxHitBuffer@UPxSweepHit@physx@@@physx@@6B@ 0000000180024288     PhysX3ExtensionsPROFILE:ExtRigidBodyExt.obj
 0002:000012a0       ??_C@_0IE@PMLMABKM@?$CFs?3?5inertia?5tensor?5has?5negative@ 00000001800242a0     PhysX3ExtensionsPROFILE:ExtRigidBodyExt.obj
 0002:00001330       ??_C@_0GK@PNKCJEGC@c?3?2users?2bestr?2documents?2librar@ 0000000180024330     PhysX3ExtensionsPROFILE:ExtRigidBodyExt.obj
 0002:000013a0       ??_C@_0ED@GFJAKEFC@computeMassAndInertia?3?5Provided@ 00000001800243a0     PhysX3ExtensionsPROFILE:ExtRigidBodyExt.obj
 0002:000013f0       ??_C@_0FL@MGPHIFPL@computeMassAndInertia?3?5Not?5enou@ 00000001800243f0     PhysX3ExtensionsPROFILE:ExtRigidBodyExt.obj
 0002:00001450       ??_C@_0ED@IINBLCPB@computeMassAndInertia?3?5Dynamic?5@ 0000000180024450     PhysX3ExtensionsPROFILE:ExtRigidBodyExt.obj
 0002:00001498       ??_C@_0CF@NFENOJIA@PxRigidBodyExt?3?3updateMassAndIn@ 0000000180024498     PhysX3ExtensionsPROFILE:ExtRigidBodyExt.obj
 0002:000014c0       ??_C@_0FC@JIKFFKAL@?$CFs?3?5Mass?5and?5inertia?5computatio@ 00000001800244c0     PhysX3ExtensionsPROFILE:ExtRigidBodyExt.obj
 0002:00001520       ??_C@_0ED@BHIJHOEP@?$CFs?3?5No?5density?5specified?0?5setti@ 0000000180024520     PhysX3ExtensionsPROFILE:ExtRigidBodyExt.obj
 0002:00001568       ??_C@_0CI@NNBNKKJG@PxRigidBodyExt?3?3setMassAndUpdat@ 0000000180024568     PhysX3ExtensionsPROFILE:ExtRigidBodyExt.obj
 0002:00001590       ??_C@_0EA@JNKKHEHF@?$CFs?3?5No?5mass?5specified?0?5setting?5@ 0000000180024590     PhysX3ExtensionsPROFILE:ExtRigidBodyExt.obj
 0002:000015d0       ??_C@_0FI@DKLFOMEB@PxRigidBodyExt?3?3addForce?5method@ 00000001800245d0     PhysX3ExtensionsPROFILE:ExtRigidBodyExt.obj
 0002:00001628       __real@3daaaaab            0000000180024628     PhysX3ExtensionsPROFILE:ExtRigidBodyExt.obj
 0002:0000162c       __real@3e747645            000000018002462c     PhysX3ExtensionsPROFILE:ExtRigidBodyExt.obj
 0002:00001630       __real@3e800000            0000000180024630     PhysX3ExtensionsPROFILE:ExtRigidBodyExt.obj
 0002:00001634       __real@3eaaaaab            0000000180024634     PhysX3ExtensionsPROFILE:ExtRigidBodyExt.obj
 0002:00001638       __real@3ecccccd            0000000180024638     PhysX3ExtensionsPROFILE:ExtRigidBodyExt.obj
 0002:0000163c       __real@3f088889            000000018002463c     PhysX3ExtensionsPROFILE:ExtRigidBodyExt.obj
 0002:00001640       __real@3f2aaaab            0000000180024640     PhysX3ExtensionsPROFILE:ExtRigidBodyExt.obj
 0002:00001644       __real@3f8147ae            0000000180024644     PhysX3ExtensionsPROFILE:ExtRigidBodyExt.obj
 0002:00001648       __real@3f860a92            0000000180024648     PhysX3ExtensionsPROFILE:ExtRigidBodyExt.obj
 0002:0000164c       __real@3faaaaab            000000018002464c     PhysX3ExtensionsPROFILE:ExtRigidBodyExt.obj
 0002:00001650       __real@3fc00000            0000000180024650     PhysX3ExtensionsPROFILE:ExtRigidBodyExt.obj
 0002:00001654       __real@40000000            0000000180024654     PhysX3ExtensionsPROFILE:ExtRigidBodyExt.obj
 0002:00001658       __real@40490fdb            0000000180024658     PhysX3ExtensionsPROFILE:ExtRigidBodyExt.obj
 0002:0000165c       __real@40860a92            000000018002465c     PhysX3ExtensionsPROFILE:ExtRigidBodyExt.obj
 0002:00001660       __real@40c90fdb            0000000180024660     PhysX3ExtensionsPROFILE:ExtRigidBodyExt.obj
 0002:00001664       __real@41000000            0000000180024664     PhysX3ExtensionsPROFILE:ExtRigidBodyExt.obj
 0002:00001670       __xmm@7f7fffff000000000000000000000000 0000000180024670     PhysX3ExtensionsPROFILE:ExtRigidBodyExt.obj
 0002:00001688       ??_7type_info@@6B@         0000000180024688     MSVCRT:std_type_info_static.obj
 0002:00001690       _pDefaultRawDllMain        0000000180024690     MSVCRT:dll_dllmain.obj
 0002:00001690       _pRawDllMain               0000000180024690     MSVCRT:dll_dllmain.obj
 0002:00001700       _load_config_used          0000000180024700     MSVCRT:loadcfg.obj
 0002:00001800       ??_R4type_info@@6B@        0000000180024800     MSVCRT:std_type_info_static.obj
 0002:00001828       ??_R3type_info@@8          0000000180024828     MSVCRT:std_type_info_static.obj
 0002:00001840       ??_R2type_info@@8          0000000180024840     MSVCRT:std_type_info_static.obj
 0002:00001850       ??_R1A@?0A@EA@type_info@@8 0000000180024850     MSVCRT:std_type_info_static.obj
 0002:00001ba0       __rtc_iaa                  0000000180024ba0     MSVCRT:initsect.obj
 0002:00001ba8       __rtc_izz                  0000000180024ba8     MSVCRT:initsect.obj
 0002:00001bb0       __rtc_taa                  0000000180024bb0     MSVCRT:initsect.obj
 0002:00001bb8       __rtc_tzz                  0000000180024bb8     MSVCRT:initsect.obj
 0002:000048c4       __IMPORT_DESCRIPTOR_PxFoundationPROFILE_x64 00000001800278c4     PxFoundationPROFILE_x64:PxFoundationPROFILE_x64.dll
 0002:000048d8       __IMPORT_DESCRIPTOR_PhysX3CommonPROFILE_x64 00000001800278d8     PhysX3CommonPROFILE_x64:PhysX3CommonPROFILE_x64.dll
 0002:000048ec       __IMPORT_DESCRIPTOR_VCRUNTIME140 00000001800278ec     vcruntime:VCRUNTIME140.dll
 0002:00004900       __IMPORT_DESCRIPTOR_api-ms-win-crt-math-l1-1-0 0000000180027900     ucrt:api-ms-win-crt-math-l1-1-0.dll
 0002:00004914       __IMPORT_DESCRIPTOR_api-ms-win-crt-runtime-l1-1-0 0000000180027914     ucrt:api-ms-win-crt-runtime-l1-1-0.dll
 0002:00004928       __IMPORT_DESCRIPTOR_api-ms-win-crt-heap-l1-1-0 0000000180027928     ucrt:api-ms-win-crt-heap-l1-1-0.dll
 0002:0000493c       __IMPORT_DESCRIPTOR_KERNEL32 000000018002793c     kernel32:KERNEL32.dll
 0002:00004950       __NULL_IMPORT_DESCRIPTOR   0000000180027950     PxFoundationPROFILE_x64:PxFoundationPROFILE_x64.dll
 0003:00000060       _fltused                   0000000180029060     MSVCRT:fltused.obj
 0003:00000070       __scrt_native_dllmain_reason 0000000180029070     MSVCRT:utility.obj
 0003:00000078       __security_cookie_complement 0000000180029078     MSVCRT:gs_cookie.obj
 0003:00000080       __security_cookie          0000000180029080     MSVCRT:gs_cookie.obj
 0003:00000088       __isa_available            0000000180029088     MSVCRT:cpu_disp.obj
 0003:0000008c       __isa_enabled              000000018002908c     MSVCRT:cpu_disp.obj
 0003:00000090       __memcpy_nt_iters          0000000180029090     MSVCRT:cpu_disp.obj
 0003:000000a0       __scrt_ucrt_dll_is_in_use  00000001800290a0     MSVCRT:ucrt_stubs.obj
 0003:000000b0       ??_R0?AUPxExtendedCapsule@physx@@@8 00000001800290b0     CctCharacterController.obj
 0003:000000e0       ??_R0?AVPxExtendedBox@physx@@@8 00000001800290e0     CctCharacterController.obj
 0003:00000110       ??_R0PEBX@8                0000000180029110     CctCharacterController.obj
 0003:00000128       ??_R0I@8                   0000000180029128     CctCharacterController.obj
 0003:00000140       ??_R0?AVPxTriangle@physx@@@8 0000000180029140     CctCharacterControllerCallbacks.obj
 0003:00000168       ??_R0?AVMutexImpl@shdfnd@physx@@@8 0000000180029168     CctCharacterControllerManager.obj
 0003:00000198       ??_R0?AVCharacterControllerManager@Cct@physx@@@8 0000000180029198     CctCharacterControllerManager.obj
 0003:000001d8       ??_R0?AVObstacleContext@Cct@physx@@@8 00000001800291d8     CctCharacterControllerManager.obj
 0003:00000208       ??_R0?AVCapsuleController@Cct@physx@@@8 0000000180029208     CctCharacterControllerManager.obj
 0003:00000240       ??_R0?AVBoxController@Cct@physx@@@8 0000000180029240     CctCharacterControllerManager.obj
 0003:00000270       ??_R0?AVRenderBuffer@Cm@physx@@@8 0000000180029270     CctCharacterControllerManager.obj
 0003:000002a0       ??_R0PEAVObstacleContext@Cct@physx@@@8 00000001800292a0     CctCharacterControllerManager.obj
 0003:000002d8       ??_R0PEAVController@Cct@physx@@@8 00000001800292d8     CctCharacterControllerManager.obj
 0003:00000308       ??_R0?AUPxDebugText@physx@@@8 0000000180029308     CctCharacterControllerManager.obj
 0003:00000330       ??_R0?AUPxDebugTriangle@physx@@@8 0000000180029330     CctCharacterControllerManager.obj
 0003:00000360       ??_R0?AUPxDebugLine@physx@@@8 0000000180029360     CctCharacterControllerManager.obj
 0003:00000388       ??_R0?AUPxDebugPoint@physx@@@8 0000000180029388     CctCharacterControllerManager.obj
 0003:000003c0       ??_R0?AUInternalCapsuleObstacle@ObstacleContext@Cct@physx@@@8 00000001800293c0     CctObstacleContext.obj
 0003:00000410       ??_R0?AUInternalBoxObstacle@ObstacleContext@Cct@physx@@@8 0000000180029410     CctObstacleContext.obj
 0003:00000458       ??_R0?AVPxTransform@physx@@@8 0000000180029458     PhysX3ExtensionsPROFILE:ExtRigidBodyExt.obj
 0003:00000480       ??_R0?AVPxMassProperties@physx@@@8 0000000180029480     PhysX3ExtensionsPROFILE:ExtRigidBodyExt.obj
 0003:000004b0       ??_R0PEAVPxShape@physx@@@8 00000001800294b0     PhysX3ExtensionsPROFILE:ExtRigidBodyExt.obj
 0003:000004d8       ??_R0?AVtype_info@@@8      00000001800294d8     MSVCRT:std_type_info_static.obj
 0003:00000560       ?__type_info_root_node@@3U__type_info_node@@A 0000000180029560     MSVCRT:tncleanup.obj
 0003:00000578       ?_OptionsStorage@?1??__local_stdio_printf_options@@9@4_KA 0000000180029578     MSVCRT:default_local_stdio_options.obj
 0003:00000580       ?_OptionsStorage@?1??__local_stdio_scanf_options@@9@4_KA 0000000180029580     MSVCRT:default_local_stdio_options.obj
 0003:00000588       __scrt_current_native_startup_state 0000000180029588     MSVCRT:utility.obj
 0003:00000590       __scrt_native_startup_lock 0000000180029590     MSVCRT:utility.obj
 0003:000005d0       __scrt_debugger_hook_flag  00000001800295d0     MSVCRT:utility_desktop.obj
 0003:000005d4       __favor                    00000001800295d4     MSVCRT:cpu_disp.obj
 0003:000005d8       __dyn_tls_init_callback    00000001800295d8     <common>

 entry point at        0001:00020608

 Static symbols

 0000:fffd2000       .debug$S                   0000000180000000     PhysX3CommonPROFILE_x64:PhysX3CommonPROFILE_x64.dll
 0004:fffd6000       $pdata$??_GPxControllerManager@physx@@MEAAPEAXI@Z 0000000180000000     CctSweptBox.obj
 0002:fffdd000       $unwind$??_GPxControllerManager@physx@@MEAAPEAXI@Z 0000000180000000     CctSweptBox.obj
 0002:fffdd000       $chain$0$??_EPxControllerManager@physx@@MEAAPEAXI@Z 0000000180000000     CctCharacterController.obj
 0004:fffd6000       $pdata$??_EPxControllerManager@physx@@MEAAPEAXI@Z 0000000180000000     CctSweptBox.obj
 0004:fffd6000       $pdata$0$??_EPxControllerManager@physx@@MEAAPEAXI@Z 0000000180000000     CctCharacterController.obj
 0002:fffdd000       $chain$1$??_EPxControllerManager@physx@@MEAAPEAXI@Z 0000000180000000     CctCharacterController.obj
 0004:fffd6000       $pdata$??_I@YAXPEAX_K1P6AX0@Z@Z 0000000180000000     CctSweptBox.obj
 0002:fffdd000       $chain$0$??_EPxControllerManager@physx@@MEAAPEAXI@Z 0000000180000000     CctSweptBox.obj
 0002:fffdd000       $unwind$??_I@YAXPEAX_K1P6AX0@Z@Z 0000000180000000     CctSweptBox.obj
 0004:fffd6000       $pdata$??_H@YAXPEAX_K1P6APEAX0@Z@Z 0000000180000000     CctSweptBox.obj
 0002:fffdd000       $unwind$??_H@YAXPEAX_K1P6APEAX0@Z@Z 0000000180000000     CctSweptBox.obj
 0004:fffd6000       $pdata$0$??_EPxControllerManager@physx@@MEAAPEAXI@Z 0000000180000000     CctSweptBox.obj
 0004:fffd6000       $pdata$1$??_EPxControllerManager@physx@@MEAAPEAXI@Z 0000000180000000     CctObstacleContext.obj
 0002:fffdd000       $chain$1$??_EPxControllerManager@physx@@MEAAPEAXI@Z 0000000180000000     CctObstacleContext.obj
 0004:fffd6000       $pdata$0$??_EPxControllerManager@physx@@MEAAPEAXI@Z 0000000180000000     CctObstacleContext.obj
 0002:fffdd000       $chain$1$??_EPxControllerManager@physx@@MEAAPEAXI@Z 0000000180000000     CctSweptBox.obj
 0002:fffdd000       $chain$0$??_EPxControllerManager@physx@@MEAAPEAXI@Z 0000000180000000     CctObstacleContext.obj
 0004:fffd6000       $pdata$??_EPxControllerManager@physx@@MEAAPEAXI@Z 0000000180000000     CctObstacleContext.obj
 0002:fffdd000       $unwind$??_H@YAXPEAX_K1P6APEAX0@Z@Z 0000000180000000     CctCharacterControllerCallbacks.obj
 0004:fffd6000       $pdata$??_H@YAXPEAX_K1P6APEAX0@Z@Z 0000000180000000     CctCharacterControllerCallbacks.obj
 0002:fffdd000       $unwind$??_I@YAXPEAX_K1P6AX0@Z@Z 0000000180000000     CctCharacterControllerCallbacks.obj
 0004:fffd6000       $pdata$??_I@YAXPEAX_K1P6AX0@Z@Z 0000000180000000     CctCharacterControllerCallbacks.obj
 0002:fffdd000       $unwind$??_GPxFoundation@physx@@MEAAPEAXI@Z 0000000180000000     CctCharacterControllerCallbacks.obj
 0004:fffd6000       $pdata$??_GPxFoundation@physx@@MEAAPEAXI@Z 0000000180000000     CctCharacterControllerCallbacks.obj
 0002:fffdd000       $unwind$??_EPxFoundation@physx@@MEAAPEAXI@Z 0000000180000000     CctCharacterControllerCallbacks.obj
 0004:fffd6000       $pdata$??_EPxFoundation@physx@@MEAAPEAXI@Z 0000000180000000     CctCharacterControllerCallbacks.obj
 0002:fffdd000       $chain$0$??_EPxFoundation@physx@@MEAAPEAXI@Z 0000000180000000     CctCharacterControllerCallbacks.obj
 0004:fffd6000       $pdata$0$??_EPxFoundation@physx@@MEAAPEAXI@Z 0000000180000000     CctCharacterControllerCallbacks.obj
 0002:fffdd000       $chain$1$??_EPxFoundation@physx@@MEAAPEAXI@Z 0000000180000000     CctCharacterControllerCallbacks.obj
 0004:fffd6000       $pdata$1$??_EPxFoundation@physx@@MEAAPEAXI@Z 0000000180000000     CctCharacterControllerCallbacks.obj
 0002:fffdd000       $unwind$??DPxQuat@physx@@QEBA?AV01@AEBV01@@Z 0000000180000000     CctCharacterControllerCallbacks.obj
 0004:fffd6000       $pdata$??DPxQuat@physx@@QEBA?AV01@AEBV01@@Z 0000000180000000     CctCharacterControllerCallbacks.obj
 0002:fffdd000       $unwind$??_GPxControllerManager@physx@@MEAAPEAXI@Z 0000000180000000     CctCharacterControllerCallbacks.obj
 0004:fffd6000       $pdata$??_GPxControllerManager@physx@@MEAAPEAXI@Z 0000000180000000     CctCharacterControllerCallbacks.obj
 0000:fffd2000       .debug$S                   0000000180000000     PhysX3CharacterKinematicPROFILE_x64.exp
 0002:fffdd000       $unwind$??_EPxControllerManager@physx@@MEAAPEAXI@Z 0000000180000000     CctCharacterControllerCallbacks.obj
 0004:fffd6000       $pdata$??_EPxControllerManager@physx@@MEAAPEAXI@Z 0000000180000000     CctCharacterControllerCallbacks.obj
 0000:fffd2000       .debug$S                   0000000180000000     kernel32:KERNEL32.dll
 0000:fffd2000       .debug$S                   0000000180000000     kernel32:KERNEL32.dll
 0000:fffd2000       .debug$S                   0000000180000000     kernel32:KERNEL32.dll
 0000:fffd2000       .debug$S                   0000000180000000     kernel32:KERNEL32.dll
 0000:fffd2000       .debug$S                   0000000180000000     kernel32:KERNEL32.dll
 0000:fffd2000       .debug$S                   0000000180000000     kernel32:KERNEL32.dll
 0000:fffd2000       .debug$S                   0000000180000000     kernel32:KERNEL32.dll
 0000:fffd2000       .debug$S                   0000000180000000     kernel32:KERNEL32.dll
 0000:fffd2000       .debug$S                   0000000180000000     kernel32:KERNEL32.dll
 0000:fffd2000       .debug$S                   0000000180000000     kernel32:KERNEL32.dll
 0000:fffd2000       .debug$S                   0000000180000000     kernel32:KERNEL32.dll
 0000:fffd2000       .debug$S                   0000000180000000     kernel32:KERNEL32.dll
 0000:fffd2000       .debug$S                   0000000180000000     kernel32:KERNEL32.dll
 0000:fffd2000       .debug$S                   0000000180000000     kernel32:KERNEL32.dll
 0000:fffd2000       .debug$S                   0000000180000000     kernel32:KERNEL32.dll
 0002:fffdd000       $chain$0$??_EPxControllerManager@physx@@MEAAPEAXI@Z 0000000180000000     CctCharacterControllerCallbacks.obj
 0004:fffd6000       $pdata$0$??_EPxControllerManager@physx@@MEAAPEAXI@Z 0000000180000000     CctCharacterControllerCallbacks.obj
 0002:fffdd000       $chain$1$??_EPxControllerManager@physx@@MEAAPEAXI@Z 0000000180000000     CctCharacterControllerCallbacks.obj
 0000:fffd2000       .debug$S                   0000000180000000     ucrt:api-ms-win-crt-runtime-l1-1-0.dll
 0000:fffd2000       .debug$S                   0000000180000000     ucrt:api-ms-win-crt-runtime-l1-1-0.dll
 0000:fffd2000       .debug$S                   0000000180000000     ucrt:api-ms-win-crt-runtime-l1-1-0.dll
 0000:fffd2000       .debug$S                   0000000180000000     ucrt:api-ms-win-crt-runtime-l1-1-0.dll
 0000:fffd2000       .debug$S                   0000000180000000     ucrt:api-ms-win-crt-runtime-l1-1-0.dll
 0000:fffd2000       .debug$S                   0000000180000000     ucrt:api-ms-win-crt-runtime-l1-1-0.dll
 0000:fffd2000       .debug$S                   0000000180000000     ucrt:api-ms-win-crt-runtime-l1-1-0.dll
 0000:fffd2000       .debug$S                   0000000180000000     ucrt:api-ms-win-crt-runtime-l1-1-0.dll
 0000:fffd2000       .debug$S                   0000000180000000     ucrt:api-ms-win-crt-runtime-l1-1-0.dll
 0000:fffd2000       .debug$S                   0000000180000000     ucrt:api-ms-win-crt-runtime-l1-1-0.dll
 0000:fffd2000       .debug$S                   0000000180000000     ucrt:api-ms-win-crt-heap-l1-1-0.dll
 0000:fffd2000       .debug$S                   0000000180000000     ucrt:api-ms-win-crt-runtime-l1-1-0.dll
 0000:fffd2000       .debug$S                   0000000180000000     ucrt:api-ms-win-crt-runtime-l1-1-0.dll
 0000:fffd2000       .debug$S                   0000000180000000     ucrt:api-ms-win-crt-math-l1-1-0.dll
 0004:fffd6000       $pdata$1$??_EPxControllerManager@physx@@MEAAPEAXI@Z 0000000180000000     CctCharacterControllerCallbacks.obj
 0000:fffd2000       .debug$S                   0000000180000000     vcruntime:VCRUNTIME140.dll
 0000:fffd2000       .debug$S                   0000000180000000     vcruntime:VCRUNTIME140.dll
 0000:fffd2000       .debug$S                   0000000180000000     vcruntime:VCRUNTIME140.dll
 0000:fffd2000       .debug$S                   0000000180000000     vcruntime:VCRUNTIME140.dll
 0000:fffd2000       .debug$S                   0000000180000000     vcruntime:VCRUNTIME140.dll
 0000:fffd2000       .debug$S                   0000000180000000     vcruntime:VCRUNTIME140.dll
 0002:fffdd000       $unwind$??_EPxControllerManager@physx@@MEAAPEAXI@Z 0000000180000000     CctObstacleContext.obj
 0002:fffdd000       $unwind$?recreate@?$Array@IV?$ReflectionAllocator@I@shdfnd@physx@@@shdfnd@physx@@IEAAXI@Z 0000000180000000     CctCharacterControllerCallbacks.obj
 0004:fffd6000       $pdata$1$??_EPxFoundation@physx@@MEAAPEAXI@Z 0000000180000000     CctCharacterController.obj
 0004:fffd6000       $pdata$?recreate@?$Array@IV?$ReflectionAllocator@I@shdfnd@physx@@@shdfnd@physx@@IEAAXI@Z 0000000180000000     CctCharacterControllerCallbacks.obj
 0002:fffdd000       __guard_fids__guard_icall_checks_enforced 0000000180000000     MSVCRT:guard_support.obj
 0002:fffdd000       __guard_fids__             0000000180000000     MSVCRT:guard_support.obj
 0004:fffd6000       $pdata$1$??_EPxControllerManager@physx@@MEAAPEAXI@Z 0000000180000000     CctSweptBox.obj
 0004:fffd6000       $pdata$??_GPxControllerManager@physx@@MEAAPEAXI@Z 0000000180000000     CctObstacleContext.obj
 0002:fffdd000       $chain$1$??_EPxFoundation@physx@@MEAAPEAXI@Z 0000000180000000     CctCharacterController.obj
 0002:fffdd000       $unwind$??_GPxControllerManager@physx@@MEAAPEAXI@Z 0000000180000000     CctObstacleContext.obj
 0004:fffd6000       $pdata$1$??_EPxControllerManager@physx@@MEAAPEAXI@Z 0000000180000000     CctCharacterController.obj
 0002:fffdd000       $unwind$??_GPxFoundation@physx@@MEAAPEAXI@Z 0000000180000000     CctSweptBox.obj
 0004:fffd6000       $pdata$0$??_EPxFoundation@physx@@MEAAPEAXI@Z 0000000180000000     CctCharacterController.obj
 0004:fffd6000       $pdata$??_GPxFoundation@physx@@MEAAPEAXI@Z 0000000180000000     CctSweptBox.obj
 0002:fffdd000       __guard_fids___scrt_set_unhandled_exception_filter 0000000180000000     MSVCRT:utility_desktop.obj
 0002:fffdd000       $unwind$??_EPxFoundation@physx@@MEAAPEAXI@Z 0000000180000000     CctSweptBox.obj
 0004:fffd6000       $pdata$??_EPxFoundation@physx@@MEAAPEAXI@Z 0000000180000000     CctSweptBox.obj
 0002:fffdd000       $chain$0$??_EPxFoundation@physx@@MEAAPEAXI@Z 0000000180000000     CctCharacterController.obj
 0002:fffdd000       $chain$0$??_EPxFoundation@physx@@MEAAPEAXI@Z 0000000180000000     CctSweptBox.obj
 0002:fffdd000       $unwind$??_H@YAXPEAX_K1P6APEAX0@Z@Z 0000000180000000     CctCharacterControllerManager.obj
 0004:fffd6000       $pdata$??_H@YAXPEAX_K1P6APEAX0@Z@Z 0000000180000000     CctCharacterControllerManager.obj
 0002:fffdd000       $unwind$??_I@YAXPEAX_K1P6AX0@Z@Z 0000000180000000     CctCharacterControllerManager.obj
 0004:fffd6000       $pdata$??_I@YAXPEAX_K1P6AX0@Z@Z 0000000180000000     CctCharacterControllerManager.obj
 0002:fffdd000       $unwind$??_GPxControllerManager@physx@@MEAAPEAXI@Z 0000000180000000     CctCharacterControllerManager.obj
 0004:fffd6000       $pdata$??_GPxControllerManager@physx@@MEAAPEAXI@Z 0000000180000000     CctCharacterControllerManager.obj
 0004:fffd6000       $pdata$0$??_EPxFoundation@physx@@MEAAPEAXI@Z 0000000180000000     CctSweptBox.obj
 0002:fffdd000       $unwind$??_EPxControllerManager@physx@@MEAAPEAXI@Z 0000000180000000     CctCharacterControllerManager.obj
 0004:fffd6000       $pdata$??_EPxControllerManager@physx@@MEAAPEAXI@Z 0000000180000000     CctCharacterControllerManager.obj
 0002:fffdd000       $chain$0$??_EPxControllerManager@physx@@MEAAPEAXI@Z 0000000180000000     CctCharacterControllerManager.obj
 0004:fffd6000       $pdata$??_EPxFoundation@physx@@MEAAPEAXI@Z 0000000180000000     CctCharacterController.obj
 0004:fffd6000       $pdata$0$??_EPxControllerManager@physx@@MEAAPEAXI@Z 0000000180000000     CctCharacterControllerManager.obj
 0002:fffdd000       $chain$1$??_EPxControllerManager@physx@@MEAAPEAXI@Z 0000000180000000     CctCharacterControllerManager.obj
 0004:fffd6000       $pdata$1$??_EPxControllerManager@physx@@MEAAPEAXI@Z 0000000180000000     CctCharacterControllerManager.obj
 0002:fffdd000       $chain$1$??_EPxFoundation@physx@@MEAAPEAXI@Z 0000000180000000     CctSweptBox.obj
 0002:fffdd000       $unwind$??_GPxFoundation@physx@@MEAAPEAXI@Z 0000000180000000     CctCharacterControllerManager.obj
 0004:fffd6000       $pdata$??_GPxFoundation@physx@@MEAAPEAXI@Z 0000000180000000     CctCharacterControllerManager.obj
 0002:fffdd000       $unwind$??_EPxFoundation@physx@@MEAAPEAXI@Z 0000000180000000     CctCharacterControllerManager.obj
 0002:fffdd000       $unwind$??_EPxFoundation@physx@@MEAAPEAXI@Z 0000000180000000     CctCharacterController.obj
 0004:fffd6000       $pdata$??_EPxFoundation@physx@@MEAAPEAXI@Z 0000000180000000     CctCharacterControllerManager.obj
 0002:fffdd000       $chain$0$??_EPxFoundation@physx@@MEAAPEAXI@Z 0000000180000000     CctCharacterControllerManager.obj
 0004:fffd6000       $pdata$0$??_EPxFoundation@physx@@MEAAPEAXI@Z 0000000180000000     CctCharacterControllerManager.obj
 0002:fffdd000       $unwind$??_GPxControllerManager@physx@@MEAAPEAXI@Z 0000000180000000     CctCharacterController.obj
 0002:fffdd000       $chain$1$??_EPxFoundation@physx@@MEAAPEAXI@Z 0000000180000000     CctCharacterControllerManager.obj
 0004:fffd6000       $pdata$1$??_EPxFoundation@physx@@MEAAPEAXI@Z 0000000180000000     CctCharacterControllerManager.obj
 0004:fffd6000       $pdata$??_GPxFoundation@physx@@MEAAPEAXI@Z 0000000180000000     CctCharacterController.obj
 0004:fffd6000       $pdata$1$??_EPxFoundation@physx@@MEAAPEAXI@Z 0000000180000000     CctSweptCapsule.obj
 0002:fffdd000       $unwind$??_GPxFoundation@physx@@MEAAPEAXI@Z 0000000180000000     CctCharacterController.obj
 0002:fffdd000       $chain$1$??_EPxFoundation@physx@@MEAAPEAXI@Z 0000000180000000     CctSweptCapsule.obj
 0004:fffd6000       $pdata$??_I@YAXPEAX_K1P6AX0@Z@Z 0000000180000000     CctCharacterController.obj
 0004:fffd6000       $pdata$0$??_EPxFoundation@physx@@MEAAPEAXI@Z 0000000180000000     CctSweptCapsule.obj
 0002:fffdd000       $unwind$??_I@YAXPEAX_K1P6AX0@Z@Z 0000000180000000     CctCharacterController.obj
 0002:fffdd000       $chain$0$??_EPxFoundation@physx@@MEAAPEAXI@Z 0000000180000000     CctSweptCapsule.obj
 0004:fffd6000       $pdata$??_H@YAXPEAX_K1P6APEAX0@Z@Z 0000000180000000     CctCharacterController.obj
 0004:fffd6000       $pdata$??_EPxFoundation@physx@@MEAAPEAXI@Z 0000000180000000     CctSweptCapsule.obj
 0002:fffdd000       $unwind$??_H@YAXPEAX_K1P6APEAX0@Z@Z 0000000180000000     CctCharacterController.obj
 0002:fffdd000       $unwind$??_EPxFoundation@physx@@MEAAPEAXI@Z 0000000180000000     CctSweptCapsule.obj
 0004:fffd6000       $pdata$1$??_EPxFoundation@physx@@MEAAPEAXI@Z 0000000180000000     CctSweptBox.obj
 0002:fffdd000       $unwind$??_H@YAXPEAX_K1P6APEAX0@Z@Z 0000000180000000     CctSweptCapsule.obj
 0004:fffd6000       $pdata$??_H@YAXPEAX_K1P6APEAX0@Z@Z 0000000180000000     CctSweptCapsule.obj
 0002:fffdd000       $unwind$??_I@YAXPEAX_K1P6AX0@Z@Z 0000000180000000     CctSweptCapsule.obj
 0004:fffd6000       $pdata$??_GPxFoundation@physx@@MEAAPEAXI@Z 0000000180000000     CctSweptCapsule.obj
 0004:fffd6000       $pdata$1$??_EPxFoundation@physx@@MEAAPEAXI@Z 0000000180000000     CctCapsuleController.obj
 0004:fffd6000       $pdata$??_I@YAXPEAX_K1P6AX0@Z@Z 0000000180000000     CctSweptCapsule.obj
 0002:fffdd000       $chain$1$??_EPxFoundation@physx@@MEAAPEAXI@Z 0000000180000000     CctCapsuleController.obj
 0004:fffd6000       $pdata$0$??_EPxFoundation@physx@@MEAAPEAXI@Z 0000000180000000     CctCapsuleController.obj
 0004:fffd6000       $pdata$??_EPxControllerManager@physx@@MEAAPEAXI@Z 0000000180000000     CctCharacterController.obj
 0002:fffdd000       $chain$0$??_EPxFoundation@physx@@MEAAPEAXI@Z 0000000180000000     CctCapsuleController.obj
 0004:fffd6000       $pdata$1$??_EPxFoundation@physx@@MEAAPEAXI@Z 0000000180000000     CctObstacleContext.obj
 0004:fffd6000       $pdata$??_EPxFoundation@physx@@MEAAPEAXI@Z 0000000180000000     CctCapsuleController.obj
 0002:fffdd000       $unwind$??DPxQuat@physx@@QEBA?AV01@AEBV01@@Z 0000000180000000     PhysX3ExtensionsPROFILE:ExtRigidBodyExt.obj
 0004:fffd6000       $pdata$??DPxQuat@physx@@QEBA?AV01@AEBV01@@Z 0000000180000000     PhysX3ExtensionsPROFILE:ExtRigidBodyExt.obj
 0002:fffdd000       $unwind$??_GPxFoundation@physx@@MEAAPEAXI@Z 0000000180000000     CctSweptCapsule.obj
 0002:fffdd000       $chain$1$??_EPxFoundation@physx@@MEAAPEAXI@Z 0000000180000000     CctObstacleContext.obj
 0004:fffd6000       $pdata$1$??_EPxControllerManager@physx@@MEAAPEAXI@Z 0000000180000000     CctSweptCapsule.obj
 0002:fffdd000       $unwind$??_EPxFoundation@physx@@MEAAPEAXI@Z 0000000180000000     CctCapsuleController.obj
 0002:fffdd000       $chain$1$??_EPxControllerManager@physx@@MEAAPEAXI@Z 0000000180000000     CctSweptCapsule.obj
 0002:fffdd000       __guard_fids_?dllmain_dispatch@@YAHQEAUHINSTANCE__@@KQEAX@Z 0000000180000000     MSVCRT:dll_dllmain.obj
 0002:fffdd000       $unwind$??_EPxControllerManager@physx@@MEAAPEAXI@Z 0000000180000000     CctSweptBox.obj
 0004:fffd6000       $pdata$0$??_EPxControllerManager@physx@@MEAAPEAXI@Z 0000000180000000     CctSweptCapsule.obj
 0004:fffd6000       $pdata$0$??_EPxFoundation@physx@@MEAAPEAXI@Z 0000000180000000     CctObstacleContext.obj
 0002:fffdd000       $chain$0$??_EPxControllerManager@physx@@MEAAPEAXI@Z 0000000180000000     CctSweptCapsule.obj
 0004:fffd6000       $pdata$??_GPxFoundation@physx@@MEAAPEAXI@Z 0000000180000000     CctCapsuleController.obj
 0004:fffd6000       $pdata$??_EPxControllerManager@physx@@MEAAPEAXI@Z 0000000180000000     CctSweptCapsule.obj
 0002:fffdd000       $chain$0$??_EPxFoundation@physx@@MEAAPEAXI@Z 0000000180000000     CctObstacleContext.obj
 0002:fffdd000       $unwind$??_H@YAXPEAX_K1P6APEAX0@Z@Z 0000000180000000     CctController.obj
 0004:fffd6000       $pdata$??_H@YAXPEAX_K1P6APEAX0@Z@Z 0000000180000000     CctController.obj
 0002:fffdd000       $unwind$??_I@YAXPEAX_K1P6AX0@Z@Z 0000000180000000     CctController.obj
 0002:fffdd000       $unwind$??_GPxFoundation@physx@@MEAAPEAXI@Z 0000000180000000     CctCapsuleController.obj
 0004:fffd6000       $pdata$??_EPxFoundation@physx@@MEAAPEAXI@Z 0000000180000000     CctObstacleContext.obj
 0004:fffd6000       $pdata$1$??_EPxControllerManager@physx@@MEAAPEAXI@Z 0000000180000000     CctCapsuleController.obj
 0002:fffdd000       $unwind$??_EPxFoundation@physx@@MEAAPEAXI@Z 0000000180000000     CctObstacleContext.obj
 0002:fffdd000       $chain$1$??_EPxControllerManager@physx@@MEAAPEAXI@Z 0000000180000000     CctCapsuleController.obj
 0004:fffd6000       $pdata$??_GPxFoundation@physx@@MEAAPEAXI@Z 0000000180000000     CctObstacleContext.obj
 0004:fffd6000       $pdata$0$??_EPxControllerManager@physx@@MEAAPEAXI@Z 0000000180000000     CctCapsuleController.obj
 0002:fffdd000       $unwind$??_GPxFoundation@physx@@MEAAPEAXI@Z 0000000180000000     CctObstacleContext.obj
 0002:fffdd000       $chain$0$??_EPxControllerManager@physx@@MEAAPEAXI@Z 0000000180000000     CctCapsuleController.obj
 0004:fffd6000       $pdata$??_I@YAXPEAX_K1P6AX0@Z@Z 0000000180000000     CctController.obj
 0002:fffdd000       __guard_fids__             0000000180000000     MSVCRT:std_type_info_static.obj
 0002:fffdd000       $unwind$??_EPxControllerManager@physx@@MEAAPEAXI@Z 0000000180000000     CctSweptCapsule.obj
 0002:fffdd000       $unwind$??_GPxControllerManager@physx@@MEAAPEAXI@Z 0000000180000000     CctController.obj
 0004:fffd6000       $pdata$??_GPxControllerManager@physx@@MEAAPEAXI@Z 0000000180000000     CctController.obj
 0000:fffd2000       .debug$S                   0000000180000000     PhysX3CommonPROFILE_x64:PhysX3CommonPROFILE_x64.dll
 0000:fffd2000       .debug$S                   0000000180000000     PhysX3CommonPROFILE_x64:PhysX3CommonPROFILE_x64.dll
 0000:fffd2000       .debug$S                   0000000180000000     PhysX3CommonPROFILE_x64:PhysX3CommonPROFILE_x64.dll
 0000:fffd2000       .debug$S                   0000000180000000     PhysX3CommonPROFILE_x64:PhysX3CommonPROFILE_x64.dll
 0000:fffd2000       .debug$S                   0000000180000000     PhysX3CommonPROFILE_x64:PhysX3CommonPROFILE_x64.dll
 0000:fffd2000       .debug$S                   0000000180000000     PhysX3CommonPROFILE_x64:PhysX3CommonPROFILE_x64.dll
 0000:fffd2000       .debug$S                   0000000180000000     PhysX3CommonPROFILE_x64:PhysX3CommonPROFILE_x64.dll
 0000:fffd2000       .debug$S                   0000000180000000     PhysX3CommonPROFILE_x64:PhysX3CommonPROFILE_x64.dll
 0000:fffd2000       .debug$S                   0000000180000000     PhysX3CommonPROFILE_x64:PhysX3CommonPROFILE_x64.dll
 0000:fffd2000       .debug$S                   0000000180000000     PhysX3CommonPROFILE_x64:PhysX3CommonPROFILE_x64.dll
 0000:fffd2000       .debug$S                   0000000180000000     PhysX3CommonPROFILE_x64:PhysX3CommonPROFILE_x64.dll
 0000:fffd2000       .debug$S                   0000000180000000     PhysX3CommonPROFILE_x64:PhysX3CommonPROFILE_x64.dll
 0000:fffd2000       .debug$S                   0000000180000000     PhysX3CommonPROFILE_x64:PhysX3CommonPROFILE_x64.dll
 0000:fffd2000       .debug$S                   0000000180000000     PhysX3CommonPROFILE_x64:PhysX3CommonPROFILE_x64.dll
 0000:fffd2000       .debug$S                   0000000180000000     PhysX3CommonPROFILE_x64:PhysX3CommonPROFILE_x64.dll
 0000:fffd2000       .debug$S                   0000000180000000     PhysX3CommonPROFILE_x64:PhysX3CommonPROFILE_x64.dll
 0000:fffd2000       .debug$S                   0000000180000000     PhysX3CommonPROFILE_x64:PhysX3CommonPROFILE_x64.dll
 0000:fffd2000       .debug$S                   0000000180000000     PhysX3CommonPROFILE_x64:PhysX3CommonPROFILE_x64.dll
 0000:fffd2000       .debug$S                   0000000180000000     PhysX3CommonPROFILE_x64:PhysX3CommonPROFILE_x64.dll
 0004:fffd6000       $pdata$??_EPxControllerManager@physx@@MEAAPEAXI@Z 0000000180000000     CctCapsuleController.obj
 0000:fffd2000       .debug$S                   0000000180000000     PhysX3CommonPROFILE_x64:PhysX3CommonPROFILE_x64.dll
 0002:fffdd000       $unwind$??_EPxControllerManager@physx@@MEAAPEAXI@Z 0000000180000000     CctController.obj
 0000:fffd2000       .debug$S                   0000000180000000     PxFoundationPROFILE_x64:PxFoundationPROFILE_x64.dll
 0000:fffd2000       .debug$S                   0000000180000000     PxFoundationPROFILE_x64:PxFoundationPROFILE_x64.dll
 0000:fffd2000       .debug$S                   0000000180000000     PxFoundationPROFILE_x64:PxFoundationPROFILE_x64.dll
 0000:fffd2000       .debug$S                   0000000180000000     PxFoundationPROFILE_x64:PxFoundationPROFILE_x64.dll
 0000:fffd2000       .debug$S                   0000000180000000     PxFoundationPROFILE_x64:PxFoundationPROFILE_x64.dll
 0000:fffd2000       .debug$S                   0000000180000000     PxFoundationPROFILE_x64:PxFoundationPROFILE_x64.dll
 0000:fffd2000       .debug$S                   0000000180000000     PxFoundationPROFILE_x64:PxFoundationPROFILE_x64.dll
 0000:fffd2000       .debug$S                   0000000180000000     PxFoundationPROFILE_x64:PxFoundationPROFILE_x64.dll
 0000:fffd2000       .debug$S                   0000000180000000     PxFoundationPROFILE_x64:PxFoundationPROFILE_x64.dll
 0000:fffd2000       .debug$S                   0000000180000000     PxFoundationPROFILE_x64:PxFoundationPROFILE_x64.dll
 0000:fffd2000       .debug$S                   0000000180000000     PxFoundationPROFILE_x64:PxFoundationPROFILE_x64.dll
 0000:fffd2000       .debug$S                   0000000180000000     PxFoundationPROFILE_x64:PxFoundationPROFILE_x64.dll
 0000:fffd2000       .debug$S                   0000000180000000     PxFoundationPROFILE_x64:PxFoundationPROFILE_x64.dll
 0000:fffd2000       .debug$S                   0000000180000000     PxFoundationPROFILE_x64:PxFoundationPROFILE_x64.dll
 0004:fffd6000       $pdata$??_EPxControllerManager@physx@@MEAAPEAXI@Z 0000000180000000     CctController.obj
 0002:fffdd000       $chain$0$??_EPxControllerManager@physx@@MEAAPEAXI@Z 0000000180000000     CctController.obj
 0004:fffd6000       $pdata$??_I@YAXPEAX_K1P6AX0@Z@Z 0000000180000000     CctObstacleContext.obj
 0004:fffd6000       $pdata$0$??_EPxControllerManager@physx@@MEAAPEAXI@Z 0000000180000000     CctController.obj
 0002:fffdd000       $chain$1$??_EPxControllerManager@physx@@MEAAPEAXI@Z 0000000180000000     CctController.obj
 0004:fffd6000       $pdata$1$??_EPxControllerManager@physx@@MEAAPEAXI@Z 0000000180000000     CctController.obj
 0004:fffd6000       $pdata$??_GPxControllerManager@physx@@MEAAPEAXI@Z 0000000180000000     CctSweptCapsule.obj
 0002:fffdd000       $unwind$??_GPxFoundation@physx@@MEAAPEAXI@Z 0000000180000000     CctController.obj
 0004:fffd6000       $pdata$??_GPxFoundation@physx@@MEAAPEAXI@Z 0000000180000000     CctController.obj
 0002:fffdd000       $unwind$??_EPxFoundation@physx@@MEAAPEAXI@Z 0000000180000000     CctController.obj
 0002:fffdd000       $unwind$??_EPxControllerManager@physx@@MEAAPEAXI@Z 0000000180000000     CctCapsuleController.obj
 0004:fffd6000       $pdata$??_EPxFoundation@physx@@MEAAPEAXI@Z 0000000180000000     CctController.obj
 0002:fffdd000       $chain$0$??_EPxFoundation@physx@@MEAAPEAXI@Z 0000000180000000     CctController.obj
 0004:fffd6000       $pdata$0$??_EPxFoundation@physx@@MEAAPEAXI@Z 0000000180000000     CctController.obj
 0002:fffdd000       $unwind$??_H@YAXPEAX_K1P6APEAX0@Z@Z 0000000180000000     CctCapsuleController.obj
 0002:fffdd000       $chain$1$??_EPxFoundation@physx@@MEAAPEAXI@Z 0000000180000000     CctController.obj
 0004:fffd6000       $pdata$??_H@YAXPEAX_K1P6APEAX0@Z@Z 0000000180000000     CctCapsuleController.obj
 0004:fffd6000       $pdata$1$??_EPxFoundation@physx@@MEAAPEAXI@Z 0000000180000000     CctController.obj
 0002:fffdd000       $unwind$??_I@YAXPEAX_K1P6AX0@Z@Z 0000000180000000     CctCapsuleController.obj
 0002:fffdd000       $unwind$??_GPxControllerManager@physx@@MEAAPEAXI@Z 0000000180000000     CctSweptCapsule.obj
 0004:fffd6000       $pdata$??_I@YAXPEAX_K1P6AX0@Z@Z 0000000180000000     CctCapsuleController.obj
 0002:fffdd000       $unwind$??_I@YAXPEAX_K1P6AX0@Z@Z 0000000180000000     CctObstacleContext.obj
 0002:fffdd000       $unwind$??_GPxController@physx@@MEAAPEAXI@Z 0000000180000000     CctCapsuleController.obj
 0004:fffd6000       $pdata$??_GPxControllerManager@physx@@MEAAPEAXI@Z 0000000180000000     CctCharacterController.obj
 0004:fffd6000       $pdata$??_GPxController@physx@@MEAAPEAXI@Z 0000000180000000     CctCapsuleController.obj
 0004:fffd6000       $pdata$??_GPxControllerManager@physx@@MEAAPEAXI@Z 0000000180000000     CctCapsuleController.obj
 0002:fffdd000       $unwind$??_GPxControllerManager@physx@@MEAAPEAXI@Z 0000000180000000     CctCapsuleController.obj
 0002:fffdd000       $unwind$??_EPxControllerManager@physx@@MEAAPEAXI@Z 0000000180000000     CctCharacterController.obj
 0001:00000000       ??__EmaxFError@_VecMathTests@aos@shdfnd@physx@@YAXXZ 0000000180001000 f   CctCharacterControllerCallbacks.obj
 0001:00000020       ??__EmaxV3Error@_VecMathTests@aos@shdfnd@physx@@YAXXZ 0000000180001020 f   CctCharacterControllerCallbacks.obj
 0001:00000030       ??__EmaxV4Error@_VecMathTests@aos@shdfnd@physx@@YAXXZ 0000000180001030 f   CctCharacterControllerCallbacks.obj
 0001:00000050       ??__EminFError@_VecMathTests@aos@shdfnd@physx@@YAXXZ 0000000180001050 f   CctCharacterControllerCallbacks.obj
 0001:00000070       ??__EminV3Error@_VecMathTests@aos@shdfnd@physx@@YAXXZ 0000000180001070 f   CctCharacterControllerCallbacks.obj
 0001:00000080       ??__EminV4Error@_VecMathTests@aos@shdfnd@physx@@YAXXZ 0000000180001080 f   CctCharacterControllerCallbacks.obj
 0001:00006850       ?SweepBoxUserBox@@YA_NPEBVSweepTest@Cct@physx@@PEBVSweptVolume@23@PEBUTouchedGeom@23@AEBUPxExtendedVec3@3@AEBVPxVec3@3@AEAUSweptContact@23@@Z 0000000180007850 f   CctCharacterController.obj
 0001:00006a70       ?SweepBoxUserCapsule@@YA_NPEBVSweepTest@Cct@physx@@PEBVSweptVolume@23@PEBUTouchedGeom@23@AEBUPxExtendedVec3@3@AEBVPxVec3@3@AEAUSweptContact@23@@Z 0000000180007a70 f   CctCharacterController.obj
 0001:00006d40       ?SweepBoxMesh@@YA_NPEBVSweepTest@Cct@physx@@PEBVSweptVolume@23@PEBUTouchedGeom@23@AEBUPxExtendedVec3@3@AEBVPxVec3@3@AEAUSweptContact@23@@Z 0000000180007d40 f   CctCharacterController.obj
 0001:00006e50       ?SweepCapsuleMesh@@YA_NPEBVSweepTest@Cct@physx@@PEBVSweptVolume@23@PEBUTouchedGeom@23@AEBUPxExtendedVec3@3@AEBVPxVec3@3@AEAUSweptContact@23@@Z 0000000180007e50 f   CctCharacterController.obj
 0001:00006f60       ?SweepBoxBox@@YA_NPEBVSweepTest@Cct@physx@@PEBVSweptVolume@23@PEBUTouchedGeom@23@AEBUPxExtendedVec3@3@AEBVPxVec3@3@AEAUSweptContact@23@@Z 0000000180007f60 f   CctCharacterController.obj
 0001:00007160       ?SweepBoxSphere@@YA_NPEBVSweepTest@Cct@physx@@PEBVSweptVolume@23@PEBUTouchedGeom@23@AEBUPxExtendedVec3@3@AEBVPxVec3@3@AEAUSweptContact@23@@Z 0000000180008160 f   CctCharacterController.obj
 0001:00007320       ?SweepBoxCapsule@@YA_NPEBVSweepTest@Cct@physx@@PEBVSweptVolume@23@PEBUTouchedGeom@23@AEBUPxExtendedVec3@3@AEBVPxVec3@3@AEAUSweptContact@23@@Z 0000000180008320 f   CctCharacterController.obj
 0001:00007570       ?SweepCapsuleBox@@YA_NPEBVSweepTest@Cct@physx@@PEBVSweptVolume@23@PEBUTouchedGeom@23@AEBUPxExtendedVec3@3@AEBVPxVec3@3@AEAUSweptContact@23@@Z 0000000180008570 f   CctCharacterController.obj
 0001:00007770       ?SweepCapsuleSphere@@YA_NPEBVSweepTest@Cct@physx@@PEBVSweptVolume@23@PEBUTouchedGeom@23@AEBUPxExtendedVec3@3@AEBVPxVec3@3@AEAUSweptContact@23@@Z 0000000180008770 f   CctCharacterController.obj
 0001:00007950       ?SweepCapsuleCapsule@@YA_NPEBVSweepTest@Cct@physx@@PEBVSweptVolume@23@PEBUTouchedGeom@23@AEBUPxExtendedVec3@3@AEBVPxVec3@3@AEAUSweptContact@23@@Z 0000000180008950 f   CctCharacterController.obj
 0001:00007ba0       ?SweepCapsuleUserCapsule@@YA_NPEBVSweepTest@Cct@physx@@PEBVSweptVolume@23@PEBUTouchedGeom@23@AEBUPxExtendedVec3@3@AEBVPxVec3@3@AEAUSweptContact@23@@Z 0000000180008ba0 f   CctCharacterController.obj
 0001:00007e70       ?SweepCapsuleUserBox@@YA_NPEBVSweepTest@Cct@physx@@PEBVSweptVolume@23@PEBUTouchedGeom@23@AEBUPxExtendedVec3@3@AEBVPxVec3@3@AEAUSweptContact@23@@Z 0000000180008e70 f   CctCharacterController.obj
 0001:00008400       ??$reserveContainerMemory@I@Cm@physx@@YAPEAIAEAV?$Array@IV?$ReflectionAllocator@I@shdfnd@physx@@@shdfnd@1@I@Z 0000000180009400 f   CctCharacterController.obj
 0001:00008700       ?collisionResponse@@YAXAEAUPxExtendedVec3@physx@@AEBU12@AEBVPxVec3@2@2MM_N@Z 0000000180009700 f   CctCharacterController.obj
 0001:00008a60       ?computeMTD@@YA?AVPxVec3@physx@@PEBVSweepTest@Cct@2@AEBVSweptVolume@42@AEBV?$Array@IV?$ReflectionAllocator@I@shdfnd@physx@@@shdfnd@2@AEBUPxExtendedVec3@2@M@Z 0000000180009a60 f   CctCharacterController.obj
 0001:00009910       ?sweepVolumeVsMesh@@YA_NPEBVSweepTest@Cct@physx@@PEBUTouchedMesh@23@AEAUSweptContact@23@AEBVPxVec3@3@AEBVPxGeometry@3@AEBVPxTransform@3@IPEBVPxTriangle@3@I@Z 000000018000a910 f   CctCharacterController.obj
 0001:00009ac0       ?worldToLocal@@YA?AVPxVec3@physx@@AEBVPxObstacle@2@AEBUPxExtendedVec3@2@@Z 000000018000aac0 f   CctCharacterController.obj
 0001:0000b160       ?createInvisibleWalls@@YAIAEBUCCTParams@Cct@physx@@AEBVPxTriangle@3@AEAVTriArray@23@AEAV?$Array@IV?$ReflectionAllocator@I@shdfnd@physx@@@shdfnd@3@@Z 000000018000c160 f   CctCharacterControllerCallbacks.obj
 0001:0000b8f0       ?outputBoxToStream@@YAXPEAVPxShape@physx@@PEBVPxRigidActor@2@AEBVPxTransform@2@AEAV?$Array@IV?$ReflectionAllocator@I@shdfnd@physx@@@shdfnd@2@AEAVTriArray@Cct@2@3AEBUPxExtendedVec3@2@AEBVPxBounds3@2@AEBUCCTParams@82@AEAG@Z 000000018000c8f0 f   CctCharacterControllerCallbacks.obj
 0001:0000c3b0       ?outputCapsuleToStream@@YAXPEAVPxShape@physx@@PEBVPxRigidActor@2@AEBVPxTransform@2@AEAV?$Array@IV?$ReflectionAllocator@I@shdfnd@physx@@@shdfnd@2@AEBUPxExtendedVec3@2@@Z 000000018000d3b0 f   CctCharacterControllerCallbacks.obj
 0001:0000c5d0       ?outputConvexToStream@@YAXPEAVPxShape@physx@@PEBVPxRigidActor@2@AEBVPxTransform@2@AEAV?$Array@IV?$ReflectionAllocator@I@shdfnd@physx@@@shdfnd@2@AEAVTriArray@Cct@2@3AEBUPxExtendedVec3@2@AEBVPxBounds3@2@AEBUCCTParams@82@PEAVRenderBuffer@Cm@2@AEAG@Z 000000018000d5d0 f   CctCharacterControllerCallbacks.obj
 0001:0000d590       ?outputHeightFieldToStream@@YAXPEAVPxShape@physx@@PEBVPxRigidActor@2@AEBVPxTransform@2@AEAV?$Array@IV?$ReflectionAllocator@I@shdfnd@physx@@@shdfnd@2@AEAVTriArray@Cct@2@3AEBUPxExtendedVec3@2@AEBVPxBounds3@2@AEBUCCTParams@82@PEAVRenderBuffer@Cm@2@AEAG@Z 000000018000e590 f   CctCharacterControllerCallbacks.obj
 0001:0000dff0       ?outputMeshToStream@@YAXPEAVPxShape@physx@@PEBVPxRigidActor@2@AEBVPxTransform@2@AEAV?$Array@IV?$ReflectionAllocator@I@shdfnd@physx@@@shdfnd@2@AEAVTriArray@Cct@2@3AEBUPxExtendedVec3@2@AEBVPxBounds3@2@AEBUCCTParams@82@PEAVRenderBuffer@Cm@2@AEAG@Z 000000018000eff0 f   CctCharacterControllerCallbacks.obj
 0001:0000ea50       ?outputPlaneToStream@@YAXPEAVPxShape@physx@@PEBVPxRigidActor@2@AEBVPxTransform@2@AEAV?$Array@IV?$ReflectionAllocator@I@shdfnd@physx@@@shdfnd@2@AEAVTriArray@Cct@2@3AEBUPxExtendedVec3@2@AEBVPxBounds3@2@AEBUCCTParams@82@PEAVRenderBuffer@Cm@2@@Z 000000018000fa50 f   CctCharacterControllerCallbacks.obj
 0001:0000f160       ?tessellateTriangleRecursive@@YAXPEAUTessParams@@AEBVPxVec3@physx@@11@Z 0000000180010160 f   CctCharacterControllerCallbacks.obj
 0001:0000f6a4       $LN132                     00000001800106a4     CctCharacterControllerCallbacks.obj
 0001:00011410       ?InteractionCharacterCharacter@@YAXPEAVController@Cct@physx@@0M@Z 0000000180012410 f   CctCharacterControllerManager.obj
 0001:000124d0       ?computeMTD@@YA_NAEAVPxVec3@physx@@AEAMAEBV12@2AEBVPxMat33@2@223@Z 00000001800134d0 f   CctCharacterControllerManager.obj
 0001:000129b8       $LN140                     00000001800139b8     CctCharacterControllerManager.obj
 0001:00017e90       ??$computeMeshPenetrationT@VPxHeightFieldGeometry@physx@@@?A0x05e637a1@@YA_NAEAVPxVec3@physx@@AEAMAEBVPxGeometry@2@AEBVPxTransform@2@AEBVPxHeightFieldGeometry@2@3IPEAI@Z 0000000180018e90 f   PhysX3ExtensionsPROFILE:ExtTriangleMeshExt.obj
 0001:00018060       ??$computeMeshPenetrationT@VPxTriangleMeshGeometry@physx@@@?A0x05e637a1@@YA_NAEAVPxVec3@physx@@AEAMAEBVPxGeometry@2@AEBVPxTransform@2@AEBVPxTriangleMeshGeometry@2@3IPEAI@Z 0000000180019060 f   PhysX3ExtensionsPROFILE:ExtTriangleMeshExt.obj
 0001:0001bd14       $LN276                     000000018001cd14     PhysX3ExtensionsPROFILE:ExtRigidBodyExt.obj
 0001:0001c2d0       ?computeMassAndDiagInertia@@YA_NAEAVInertiaTensorComputer@Ext@physx@@AEAVPxVec3@3@AEAVPxQuat@3@AEAM1_NAEBVPxRigidBody@3@PEBD@Z 000000018001d2d0 f   PhysX3ExtensionsPROFILE:ExtRigidBodyExt.obj
 0001:0001c780       ?computeMassAndInertia@@YA_N_NAEAVPxRigidBody@physx@@PEBM2I0AEAVInertiaTensorComputer@Ext@2@@Z 000000018001d780 f   PhysX3ExtensionsPROFILE:ExtRigidBodyExt.obj
 0001:0001d454       $LN701                     000000018001e454     PhysX3ExtensionsPROFILE:ExtRigidBodyExt.obj
 0001:0001ec80       ?setMassAndUpdateInertia@@YA_N_NAEAVPxRigidBody@physx@@PEBMIPEBVPxVec3@2@0@Z 000000018001fc80 f   PhysX3ExtensionsPROFILE:ExtRigidBodyExt.obj
 0001:0001ff30       ?updateMassAndInertia@@YA_N_NAEAVPxRigidBody@physx@@PEBMIPEBVPxVec3@2@0@Z 0000000180020f30 f   PhysX3ExtensionsPROFILE:ExtRigidBodyExt.obj
 0001:00020250       $$000000                   0000000180021250     MSVCRT:chkstk.obj
 0001:000202b4       ?dllmain_crt_dispatch@@YAHQEAUHINSTANCE__@@KQEAX@Z 00000001800212b4 f   MSVCRT:dll_dllmain.obj
 0001:00020304       ?dllmain_crt_process_attach@@YAHQEAUHINSTANCE__@@QEAX@Z 0000000180021304 f   MSVCRT:dll_dllmain.obj
 0001:00020420       ?dllmain_crt_process_detach@@YAH_N@Z 0000000180021420 f   MSVCRT:dll_dllmain.obj
 0001:000204b0       ?dllmain_dispatch@@YAHQEAUHINSTANCE__@@KQEAX@Z 00000001800214b0 f   MSVCRT:dll_dllmain.obj
 0001:000205e4       ?dllmain_raw@@YAHQEAUHINSTANCE__@@KQEAX@Z 00000001800215e4 f   MSVCRT:dll_dllmain.obj
 0001:00020658       __get_entropy              0000000180021658 f   MSVCRT:gs_support.obj
 0001:00020818       ?find_pe_section@@YAPEAU_IMAGE_SECTION_HEADER@@QEAE_K@Z 0000000180021818 f   MSVCRT:utility.obj
 0001:0002086c       ?is_potentially_valid_image_base@@YA_NQEAX@Z 000000018002186c f   MSVCRT:utility.obj
 0001:00021230       $$000000                   0000000180022230     MSVCRT:guard_dispatch.obj
 0001:00021242       ?fin$0@?0??dllmain_crt_process_attach@@YAHQEAUHINSTANCE__@@QEAX@Z@4HA 0000000180022242 f   MSVCRT:dll_dllmain.obj
 0001:00021259       ?fin$0@?0??dllmain_crt_process_detach@@YAH_N@Z@4HA 0000000180022259 f   MSVCRT:dll_dllmain.obj
 0001:00021275       ?filt$0@?0??dllmain_dispatch@@YAHQEAUHINSTANCE__@@KQEAX@Z@4HA 0000000180022275 f   MSVCRT:dll_dllmain.obj
 0001:000212ab       __scrt_is_nonwritable_in_current_image$filt$0 00000001800222ab f   MSVCRT:utility.obj
 0002:00000280       ?minFError$initializer$@_VecMathTests@aos@shdfnd@physx@@3P6AXXZEA 0000000180023280     CctCharacterControllerCallbacks.obj
 0002:00000288       ?maxFError$initializer$@_VecMathTests@aos@shdfnd@physx@@3P6AXXZEA 0000000180023288     CctCharacterControllerCallbacks.obj
 0002:00000290       ?minV3Error$initializer$@_VecMathTests@aos@shdfnd@physx@@3P6AXXZEA 0000000180023290     CctCharacterControllerCallbacks.obj
 0002:00000298       ?maxV3Error$initializer$@_VecMathTests@aos@shdfnd@physx@@3P6AXXZEA 0000000180023298     CctCharacterControllerCallbacks.obj
 0002:000002a0       ?minV4Error$initializer$@_VecMathTests@aos@shdfnd@physx@@3P6AXXZEA 00000001800232a0     CctCharacterControllerCallbacks.obj
 0002:000002a8       ?maxV4Error$initializer$@_VecMathTests@aos@shdfnd@physx@@3P6AXXZEA 00000001800232a8     CctCharacterControllerCallbacks.obj
 0002:00000938       ?GeomSizes@@3QBIB          0000000180023938     CctCharacterController.obj
 0002:00000c70       ?minus1w@?A0x08e955bf@aos@shdfnd@physx@@3QBMB 0000000180023c70     CctCharacterControllerCallbacks.obj
 0002:00000c80       ?gMaskXYZ@internalWindowsSimd@aos@shdfnd@physx@@3QBIB 0000000180023c80     CctCharacterControllerCallbacks.obj
 0002:00001bc0       $unwind$??_H@YAXPEAX_K1P6APEAX0@Z@Z 0000000180024bc0     CctBoxController.obj
 0002:00001bd4       $unwind$??_I@YAXPEAX_K1P6AX0@Z@Z 0000000180024bd4     CctBoxController.obj
 0002:00001be8       $unwind$??_GPxController@physx@@MEAAPEAXI@Z 0000000180024be8     CctBoxController.obj
 0002:00001bf0       $unwind$??_GPxControllerManager@physx@@MEAAPEAXI@Z 0000000180024bf0     CctBoxController.obj
 0002:00001bf8       $unwind$??_EPxControllerManager@physx@@MEAAPEAXI@Z 0000000180024bf8     CctBoxController.obj
 0002:00001c00       $chain$0$??_EPxControllerManager@physx@@MEAAPEAXI@Z 0000000180024c00     CctBoxController.obj
 0002:00001c14       $chain$1$??_EPxControllerManager@physx@@MEAAPEAXI@Z 0000000180024c14     CctBoxController.obj
 0002:00001c24       $unwind$??_GPxFoundation@physx@@MEAAPEAXI@Z 0000000180024c24     CctBoxController.obj
 0002:00001c2c       $unwind$??_EPxFoundation@physx@@MEAAPEAXI@Z 0000000180024c2c     CctBoxController.obj
 0002:00001c34       $chain$0$??_EPxFoundation@physx@@MEAAPEAXI@Z 0000000180024c34     CctBoxController.obj
 0002:00001c48       $chain$1$??_EPxFoundation@physx@@MEAAPEAXI@Z 0000000180024c48     CctBoxController.obj
 0002:00001c58       $unwind$??_GPxBoxController@physx@@MEAAPEAXI@Z 0000000180024c58     CctBoxController.obj
 0002:00001c60       $unwind$??0BoxController@Cct@physx@@QEAA@AEBVPxControllerDesc@2@AEAVPxPhysics@2@PEAVPxScene@2@@Z 0000000180024c60     CctBoxController.obj
 0002:00001c74       $unwind$??1BoxController@Cct@physx@@UEAA@XZ 0000000180024c74     CctBoxController.obj
 0002:00001c7c       $unwind$?getWorldBox@BoxController@Cct@physx@@UEBA_NAEAUPxExtendedBounds3@3@@Z 0000000180024c7c     CctBoxController.obj
 0002:00001c88       $unwind$?setFootPosition@BoxController@Cct@physx@@UEAA_NAEBUPxExtendedVec3@3@@Z 0000000180024c88     CctBoxController.obj
 0002:00001c90       $unwind$?invalidateCache@BoxController@Cct@physx@@UEAAXXZ 0000000180024c90     CctBoxController.obj
 0002:00001c98       $unwind$?resize@BoxController@Cct@physx@@UEAAXM@Z 0000000180024c98     CctBoxController.obj
 0002:00001ca8       $unwind$?updateKinematicProxy@BoxController@Cct@physx@@QEAA_NXZ 0000000180024ca8     CctBoxController.obj
 0002:00001cb0       $chain$0$?updateKinematicProxy@BoxController@Cct@physx@@QEAA_NXZ 0000000180024cb0     CctBoxController.obj
 0002:00001cc4       $chain$1$?updateKinematicProxy@BoxController@Cct@physx@@QEAA_NXZ 0000000180024cc4     CctBoxController.obj
 0002:00001cd4       $unwind$?getOBB@BoxController@Cct@physx@@QEBAXAEAVPxExtendedBox@3@@Z 0000000180024cd4     CctBoxController.obj
 0002:00001ce4       $unwind$??_GBoxController@Cct@physx@@UEAAPEAXI@Z 0000000180024ce4     CctBoxController.obj
 0002:00001cf0       $unwind$??_GPxCapsuleController@physx@@MEAAPEAXI@Z 0000000180024cf0     CctCapsuleController.obj
 0002:00001cf8       $unwind$??0CapsuleController@Cct@physx@@QEAA@AEBVPxControllerDesc@2@AEAVPxPhysics@2@PEAVPxScene@2@@Z 0000000180024cf8     CctCapsuleController.obj
 0002:00001d0c       $unwind$??1CapsuleController@Cct@physx@@UEAA@XZ 0000000180024d0c     CctCapsuleController.obj
 0002:00001d14       $unwind$?setFootPosition@CapsuleController@Cct@physx@@UEAA_NAEBUPxExtendedVec3@3@@Z 0000000180024d14     CctCapsuleController.obj
 0002:00001d1c       $unwind$?invalidateCache@CapsuleController@Cct@physx@@UEAAXXZ 0000000180024d1c     CctCapsuleController.obj
 0002:00001d24       $unwind$?resize@CapsuleController@Cct@physx@@UEAAXM@Z 0000000180024d24     CctCapsuleController.obj
 0002:00001d34       $unwind$?setRadius@CapsuleController@Cct@physx@@UEAA_NM@Z 0000000180024d34     CctCapsuleController.obj
 0002:00001d40       $chain$0$?setRadius@CapsuleController@Cct@physx@@UEAA_NM@Z 0000000180024d40     CctCapsuleController.obj
 0002:00001d54       $chain$1$?setRadius@CapsuleController@Cct@physx@@UEAA_NM@Z 0000000180024d54     CctCapsuleController.obj
 0002:00001d64       $unwind$?setHeight@CapsuleController@Cct@physx@@UEAA_NM@Z 0000000180024d64     CctCapsuleController.obj
 0002:00001d70       $chain$0$?setHeight@CapsuleController@Cct@physx@@UEAA_NM@Z 0000000180024d70     CctCapsuleController.obj
 0002:00001d84       $chain$1$?setHeight@CapsuleController@Cct@physx@@UEAA_NM@Z 0000000180024d84     CctCapsuleController.obj
 0002:00001d94       $unwind$?getCapsule@CapsuleController@Cct@physx@@QEBAXAEAUPxExtendedCapsule@3@@Z 0000000180024d94     CctCapsuleController.obj
 0002:00001dac       $unwind$??_GCapsuleController@Cct@physx@@UEAAPEAXI@Z 0000000180024dac     CctCapsuleController.obj
 0002:00001db8       $unwind$??DPxQuat@physx@@QEBA?AV01@AEBV01@@Z 0000000180024db8     CctCharacterController.obj
 0002:00001dd8       $unwind$??_G?$PxHitCallback@UPxRaycastHit@physx@@@physx@@UEAAPEAXI@Z 0000000180024dd8     CctCharacterController.obj
 0002:00001de0       $unwind$??_G?$PxHitBuffer@UPxRaycastHit@physx@@@physx@@UEAAPEAXI@Z 0000000180024de0     CctCharacterController.obj
 0002:00001de8       $unwind$??_GPxQueryFilterCallback@physx@@UEAAPEAXI@Z 0000000180024de8     CctCharacterController.obj
 0002:00001df0       $unwind$?getShapeGlobalPose@physx@@YA?AVPxTransform@1@AEBVPxShape@1@AEBVPxRigidActor@1@@Z 0000000180024df0     CctCharacterController.obj
 0002:00001e20       $unwind$?growAndPushBack@?$Array@PEBXV?$ReflectionAllocator@PEBX@shdfnd@physx@@@shdfnd@physx@@IEAAAEAPEBXAEBQEBX@Z 0000000180024e20     CctCharacterController.obj
 0002:00001e30       $chain$0$?growAndPushBack@?$Array@PEBXV?$ReflectionAllocator@PEBX@shdfnd@physx@@@shdfnd@physx@@IEAAAEAPEBXAEBQEBX@Z 0000000180024e30     CctCharacterController.obj
 0002:00001e44       $chain$1$?growAndPushBack@?$Array@PEBXV?$ReflectionAllocator@PEBX@shdfnd@physx@@@shdfnd@physx@@IEAAAEAPEBXAEBQEBX@Z 0000000180024e44     CctCharacterController.obj
 0002:00001e58       $chain$2$?growAndPushBack@?$Array@PEBXV?$ReflectionAllocator@PEBX@shdfnd@physx@@@shdfnd@physx@@IEAAAEAPEBXAEBQEBX@Z 0000000180024e58     CctCharacterController.obj
 0002:00001e68       $chain$3$?growAndPushBack@?$Array@PEBXV?$ReflectionAllocator@PEBX@shdfnd@physx@@@shdfnd@physx@@IEAAAEAPEBXAEBQEBX@Z 0000000180024e68     CctCharacterController.obj
 0002:00001e78       $unwind$?growAndPushBack@?$Array@VPxExtendedBox@physx@@V?$ReflectionAllocator@VPxExtendedBox@physx@@@shdfnd@2@@shdfnd@physx@@IEAAAEAVPxExtendedBox@3@AEBV43@@Z 0000000180024e78     CctCharacterController.obj
 0002:00001e8c       $chain$0$?growAndPushBack@?$Array@VPxExtendedBox@physx@@V?$ReflectionAllocator@VPxExtendedBox@physx@@@shdfnd@2@@shdfnd@physx@@IEAAAEAVPxExtendedBox@3@AEBV43@@Z 0000000180024e8c     CctCharacterController.obj
 0002:00001ea0       $chain$1$?growAndPushBack@?$Array@VPxExtendedBox@physx@@V?$ReflectionAllocator@VPxExtendedBox@physx@@@shdfnd@2@@shdfnd@physx@@IEAAAEAVPxExtendedBox@3@AEBV43@@Z 0000000180024ea0     CctCharacterController.obj
 0002:00001eb0       $unwind$?growAndPushBack@?$Array@UPxExtendedCapsule@physx@@V?$ReflectionAllocator@UPxExtendedCapsule@physx@@@shdfnd@2@@shdfnd@physx@@IEAAAEAUPxExtendedCapsule@3@AEBU43@@Z 0000000180024eb0     CctCharacterController.obj
 0002:00001ec4       $chain$0$?growAndPushBack@?$Array@UPxExtendedCapsule@physx@@V?$ReflectionAllocator@UPxExtendedCapsule@physx@@@shdfnd@2@@shdfnd@physx@@IEAAAEAUPxExtendedCapsule@3@AEBU43@@Z 0000000180024ec4     CctCharacterController.obj
 0002:00001ed8       $chain$1$?growAndPushBack@?$Array@UPxExtendedCapsule@physx@@V?$ReflectionAllocator@UPxExtendedCapsule@physx@@@shdfnd@2@@shdfnd@physx@@IEAAAEAUPxExtendedCapsule@3@AEBU43@@Z 0000000180024ed8     CctCharacterController.obj
 0002:00001ee8       $unwind$??1SweepTest@Cct@physx@@QEAA@XZ 0000000180024ee8     CctCharacterController.obj
 0002:00001ef4       $unwind$?moveCharacter@SweepTest@Cct@physx@@QEAA?AV?$PxFlags@W4Enum@PxControllerCollisionFlag@physx@@E@3@PEBUInternalCBData_FindTouchedGeom@23@PEAUInternalCBData_OnHit@23@AEAVSweptVolume@23@AEBVPxVec3@3@AEBUUserObstacles@23@MAEBVPxControllerFilters@3@_N6AEAPEBVPxRigidActor@3@AEAPEBVPxShape@3@_K@Z 0000000180024ef4     CctCharacterController.obj
 0002:00001f1c       $chain$2$?moveCharacter@SweepTest@Cct@physx@@QEAA?AV?$PxFlags@W4Enum@PxControllerCollisionFlag@physx@@E@3@PEBUInternalCBData_FindTouchedGeom@23@PEAUInternalCBData_OnHit@23@AEAVSweptVolume@23@AEBVPxVec3@3@AEBUUserObstacles@23@MAEBVPxControllerFilters@3@_N6AEAPEBVPxRigidActor@3@AEAPEBVPxShape@3@_K@Z 0000000180024f1c     CctCharacterController.obj
 0002:00001f38       $chain$5$?moveCharacter@SweepTest@Cct@physx@@QEAA?AV?$PxFlags@W4Enum@PxControllerCollisionFlag@physx@@E@3@PEBUInternalCBData_FindTouchedGeom@23@PEAUInternalCBData_OnHit@23@AEAVSweptVolume@23@AEBVPxVec3@3@AEBUUserObstacles@23@MAEBVPxControllerFilters@3@_N6AEAPEBVPxRigidActor@3@AEAPEBVPxShape@3@_K@Z 0000000180024f38     CctCharacterController.obj
 0002:00001f54       $chain$6$?moveCharacter@SweepTest@Cct@physx@@QEAA?AV?$PxFlags@W4Enum@PxControllerCollisionFlag@physx@@E@3@PEBUInternalCBData_FindTouchedGeom@23@PEAUInternalCBData_OnHit@23@AEAVSweptVolume@23@AEBVPxVec3@3@AEBUUserObstacles@23@MAEBVPxControllerFilters@3@_N6AEAPEBVPxRigidActor@3@AEAPEBVPxShape@3@_K@Z 0000000180024f54     CctCharacterController.obj
 0002:00001f68       $chain$7$?moveCharacter@SweepTest@Cct@physx@@QEAA?AV?$PxFlags@W4Enum@PxControllerCollisionFlag@physx@@E@3@PEBUInternalCBData_FindTouchedGeom@23@PEAUInternalCBData_OnHit@23@AEAVSweptVolume@23@AEBVPxVec3@3@AEBUUserObstacles@23@MAEBVPxControllerFilters@3@_N6AEAPEBVPxRigidActor@3@AEAPEBVPxShape@3@_K@Z 0000000180024f68     CctCharacterController.obj
 0002:00001f78       $chain$8$?moveCharacter@SweepTest@Cct@physx@@QEAA?AV?$PxFlags@W4Enum@PxControllerCollisionFlag@physx@@E@3@PEBUInternalCBData_FindTouchedGeom@23@PEAUInternalCBData_OnHit@23@AEAVSweptVolume@23@AEBVPxVec3@3@AEBUUserObstacles@23@MAEBVPxControllerFilters@3@_N6AEAPEBVPxRigidActor@3@AEAPEBVPxShape@3@_K@Z 0000000180024f78     CctCharacterController.obj
 0002:00001f94       $unwind$?doSweepTest@SweepTest@Cct@physx@@QEAA_NPEBUInternalCBData_FindTouchedGeom@23@PEAUInternalCBData_OnHit@23@AEBUUserObstacles@23@AEAVSweptVolume@23@AEBVPxVec3@3@4IPEAIMAEBVPxControllerFilters@3@W4SweepPass@23@AEAPEBVPxRigidActor@3@AEAPEBVPxShape@3@_K@Z 0000000180024f94     CctCharacterController.obj
 0002:00001fac       $chain$9$?doSweepTest@SweepTest@Cct@physx@@QEAA_NPEBUInternalCBData_FindTouchedGeom@23@PEAUInternalCBData_OnHit@23@AEBUUserObstacles@23@AEAVSweptVolume@23@AEBVPxVec3@3@4IPEAIMAEBVPxControllerFilters@3@W4SweepPass@23@AEAPEBVPxRigidActor@3@AEAPEBVPxShape@3@_K@Z 0000000180024fac     CctCharacterController.obj
 0002:00001fe4       $chain$11$?doSweepTest@SweepTest@Cct@physx@@QEAA_NPEBUInternalCBData_FindTouchedGeom@23@PEAUInternalCBData_OnHit@23@AEBUUserObstacles@23@AEAVSweptVolume@23@AEBVPxVec3@3@4IPEAIMAEBVPxControllerFilters@3@W4SweepPass@23@AEAPEBVPxRigidActor@3@AEAPEBVPxShape@3@_K@Z 0000000180024fe4     CctCharacterController.obj
 0002:00001ffc       $chain$12$?doSweepTest@SweepTest@Cct@physx@@QEAA_NPEBUInternalCBData_FindTouchedGeom@23@PEAUInternalCBData_OnHit@23@AEBUUserObstacles@23@AEAVSweptVolume@23@AEBVPxVec3@3@4IPEAIMAEBVPxControllerFilters@3@W4SweepPass@23@AEAPEBVPxRigidActor@3@AEAPEBVPxShape@3@_K@Z 0000000180024ffc     CctCharacterController.obj
 0002:00002010       $chain$13$?doSweepTest@SweepTest@Cct@physx@@QEAA_NPEBUInternalCBData_FindTouchedGeom@23@PEAUInternalCBData_OnHit@23@AEBUUserObstacles@23@AEAVSweptVolume@23@AEBVPxVec3@3@4IPEAIMAEBVPxControllerFilters@3@W4SweepPass@23@AEAPEBVPxRigidActor@3@AEAPEBVPxShape@3@_K@Z 0000000180025010     CctCharacterController.obj
 0002:00002020       $unwind$?findTouchedObstacles@SweepTest@Cct@physx@@QEAAXAEBUUserObstacles@23@AEBUPxExtendedBounds3@3@@Z 0000000180025020     CctCharacterController.obj
 0002:00002054       $chain$2$?findTouchedObstacles@SweepTest@Cct@physx@@QEAAXAEBUUserObstacles@23@AEBUPxExtendedBounds3@3@@Z 0000000180025054     CctCharacterController.obj
 0002:00002070       $chain$3$?findTouchedObstacles@SweepTest@Cct@physx@@QEAAXAEBUUserObstacles@23@AEBUPxExtendedBounds3@3@@Z 0000000180025070     CctCharacterController.obj
 0002:00002084       $chain$4$?findTouchedObstacles@SweepTest@Cct@physx@@QEAAXAEBUUserObstacles@23@AEBUPxExtendedBounds3@3@@Z 0000000180025084     CctCharacterController.obj
 0002:00002094       $chain$5$?findTouchedObstacles@SweepTest@Cct@physx@@QEAAXAEBUUserObstacles@23@AEBUPxExtendedBounds3@3@@Z 0000000180025094     CctCharacterController.obj
 0002:000020a4       $unwind$?voidTestCache@SweepTest@Cct@physx@@QEAAXXZ 00000001800250a4     CctCharacterController.obj
 0002:000020ac       $unwind$?onRelease@SweepTest@Cct@physx@@QEAAXAEBVPxBase@3@@Z 00000001800250ac     CctCharacterController.obj
 0002:000020b4       $unwind$?updateCachedShapesRegistration@SweepTest@Cct@physx@@QEAAXI_N@Z 00000001800250b4     CctCharacterController.obj
 0002:000020c0       $chain$1$?updateCachedShapesRegistration@SweepTest@Cct@physx@@QEAAXI_N@Z 00000001800250c0     CctCharacterController.obj
 0002:000020d8       $chain$2$?updateCachedShapesRegistration@SweepTest@Cct@physx@@QEAAXI_N@Z 00000001800250d8     CctCharacterController.obj
 0002:000020ec       $chain$3$?updateCachedShapesRegistration@SweepTest@Cct@physx@@QEAAXI_N@Z 00000001800250ec     CctCharacterController.obj
 0002:000020fc       $chain$4$?updateCachedShapesRegistration@SweepTest@Cct@physx@@QEAAXI_N@Z 00000001800250fc     CctCharacterController.obj
 0002:0000210c       $unwind$?onObstacleUpdated@SweepTest@Cct@physx@@QEAAXIPEBVPxObstacleContext@3@AEBVPxVec3@3@1M@Z 000000018002510c     CctCharacterController.obj
 0002:00002118       $unwind$?onObstacleAdded@SweepTest@Cct@physx@@QEAAXIPEBVPxObstacleContext@3@AEBVPxVec3@3@1M@Z 0000000180025118     CctCharacterController.obj
 0002:00002124       $chain$0$?onObstacleAdded@SweepTest@Cct@physx@@QEAAXIPEBVPxObstacleContext@3@AEBVPxVec3@3@1M@Z 0000000180025124     CctCharacterController.obj
 0002:00002138       $chain$3$?onObstacleAdded@SweepTest@Cct@physx@@QEAAXIPEBVPxObstacleContext@3@AEBVPxVec3@3@1M@Z 0000000180025138     CctCharacterController.obj
 0002:00002154       $chain$4$?onObstacleAdded@SweepTest@Cct@physx@@QEAAXIPEBVPxObstacleContext@3@AEBVPxVec3@3@1M@Z 0000000180025154     CctCharacterController.obj
 0002:00002164       $chain$5$?onObstacleAdded@SweepTest@Cct@physx@@QEAAXIPEBVPxObstacleContext@3@AEBVPxVec3@3@1M@Z 0000000180025164     CctCharacterController.obj
 0002:00002174       $unwind$?updateTouchedGeoms@SweepTest@Cct@physx@@AEAAXPEBUInternalCBData_FindTouchedGeom@23@AEBUUserObstacles@23@AEBUPxExtendedBounds3@3@AEBVPxControllerFilters@3@AEBVPxVec3@3@@Z 0000000180025174     CctCharacterController.obj
 0002:00002188       $chain$2$?updateTouchedGeoms@SweepTest@Cct@physx@@AEAAXPEBUInternalCBData_FindTouchedGeom@23@AEBUUserObstacles@23@AEBUPxExtendedBounds3@3@AEBVPxControllerFilters@3@AEBVPxVec3@3@@Z 0000000180025188     CctCharacterController.obj
 0002:000021a4       $chain$5$?updateTouchedGeoms@SweepTest@Cct@physx@@AEAAXPEBUInternalCBData_FindTouchedGeom@23@AEBUUserObstacles@23@AEBUPxExtendedBounds3@3@AEBVPxControllerFilters@3@AEBVPxVec3@3@@Z 00000001800251a4     CctCharacterController.obj
 0002:000021c0       $chain$9$?updateTouchedGeoms@SweepTest@Cct@physx@@AEAAXPEBUInternalCBData_FindTouchedGeom@23@AEBUUserObstacles@23@AEBUPxExtendedBounds3@3@AEBVPxControllerFilters@3@AEBVPxVec3@3@@Z 00000001800251c0     CctCharacterController.obj
 0002:000021e0       $chain$10$?updateTouchedGeoms@SweepTest@Cct@physx@@AEAAXPEBUInternalCBData_FindTouchedGeom@23@AEBUUserObstacles@23@AEBUPxExtendedBounds3@3@AEBVPxControllerFilters@3@AEBVPxVec3@3@@Z 00000001800251e0     CctCharacterController.obj
 0002:000021f0       $chain$11$?updateTouchedGeoms@SweepTest@Cct@physx@@AEAAXPEBUInternalCBData_FindTouchedGeom@23@AEBUUserObstacles@23@AEBUPxExtendedBounds3@3@AEBVPxControllerFilters@3@AEBVPxVec3@3@@Z 00000001800251f0     CctCharacterController.obj
 0002:00002200       $chain$12$?updateTouchedGeoms@SweepTest@Cct@physx@@AEAAXPEBUInternalCBData_FindTouchedGeom@23@AEBUUserObstacles@23@AEBUPxExtendedBounds3@3@AEBVPxControllerFilters@3@AEBVPxVec3@3@@Z 0000000180025200     CctCharacterController.obj
 0002:0000221c       $chain$13$?updateTouchedGeoms@SweepTest@Cct@physx@@AEAAXPEBUInternalCBData_FindTouchedGeom@23@AEBUUserObstacles@23@AEBUPxExtendedBounds3@3@AEBVPxControllerFilters@3@AEBVPxVec3@3@@Z 000000018002521c     CctCharacterController.obj
 0002:0000222c       $chain$14$?updateTouchedGeoms@SweepTest@Cct@physx@@AEAAXPEBUInternalCBData_FindTouchedGeom@23@AEBUUserObstacles@23@AEBUPxExtendedBounds3@3@AEBVPxControllerFilters@3@AEBVPxVec3@3@@Z 000000018002522c     CctCharacterController.obj
 0002:0000223c       $unwind$?findTouchedObject@Controller@Cct@physx@@IEAAXAEBVPxControllerFilters@3@PEBVPxObstacleContext@3@AEBVPxVec3@3@@Z 000000018002523c     CctCharacterController.obj
 0002:00002250       $chain$2$?findTouchedObject@Controller@Cct@physx@@IEAAXAEBVPxControllerFilters@3@PEBVPxObstacleContext@3@AEBVPxVec3@3@@Z 0000000180025250     CctCharacterController.obj
 0002:0000226c       $chain$10$?findTouchedObject@Controller@Cct@physx@@IEAAXAEBVPxControllerFilters@3@PEBVPxObstacleContext@3@AEBVPxVec3@3@@Z 000000018002526c     CctCharacterController.obj
 0002:0000229c       $chain$11$?findTouchedObject@Controller@Cct@physx@@IEAAXAEBVPxControllerFilters@3@PEBVPxObstacleContext@3@AEBVPxVec3@3@@Z 000000018002529c     CctCharacterController.obj
 0002:000022ac       $chain$12$?findTouchedObject@Controller@Cct@physx@@IEAAXAEBVPxControllerFilters@3@PEBVPxObstacleContext@3@AEBVPxVec3@3@@Z 00000001800252ac     CctCharacterController.obj
 0002:000022bc       $unwind$?rideOnTouchedObject@Controller@Cct@physx@@IEAA_NAEAVSweptVolume@23@AEBVPxVec3@3@AEAV53@PEBVPxObstacleContext@3@@Z 00000001800252bc     CctCharacterController.obj
 0002:000022f8       $chain$0$?rideOnTouchedObject@Controller@Cct@physx@@IEAA_NAEAVSweptVolume@23@AEBVPxVec3@3@AEAV53@PEBVPxObstacleContext@3@@Z 00000001800252f8     CctCharacterController.obj
 0002:0000230c       $chain$1$?rideOnTouchedObject@Controller@Cct@physx@@IEAA_NAEAVSweptVolume@23@AEBVPxVec3@3@AEAV53@PEBVPxObstacleContext@3@@Z 000000018002530c     CctCharacterController.obj
 0002:0000231c       $unwind$?move@Controller@Cct@physx@@IEAA?AV?$PxFlags@W4Enum@PxControllerCollisionFlag@physx@@E@3@AEAVSweptVolume@23@AEBVPxVec3@3@MMAEBVPxControllerFilters@3@PEBVPxObstacleContext@3@_N@Z 000000018002531c     CctCharacterController.obj
 0002:0000232c       $chain$1$?move@Controller@Cct@physx@@IEAA?AV?$PxFlags@W4Enum@PxControllerCollisionFlag@physx@@E@3@AEAVSweptVolume@23@AEBVPxVec3@3@MMAEBVPxControllerFilters@3@PEBVPxObstacleContext@3@_N@Z 000000018002532c     CctCharacterController.obj
 0002:00002344       $chain$8$?move@Controller@Cct@physx@@IEAA?AV?$PxFlags@W4Enum@PxControllerCollisionFlag@physx@@E@3@AEAVSweptVolume@23@AEBVPxVec3@3@MMAEBVPxControllerFilters@3@PEBVPxObstacleContext@3@_N@Z 0000000180025344     CctCharacterController.obj
 0002:00002370       $chain$9$?move@Controller@Cct@physx@@IEAA?AV?$PxFlags@W4Enum@PxControllerCollisionFlag@physx@@E@3@AEAVSweptVolume@23@AEBVPxVec3@3@MMAEBVPxControllerFilters@3@PEBVPxObstacleContext@3@_N@Z 0000000180025370     CctCharacterController.obj
 0002:00002384       $chain$14$?move@Controller@Cct@physx@@IEAA?AV?$PxFlags@W4Enum@PxControllerCollisionFlag@physx@@E@3@AEAVSweptVolume@23@AEBVPxVec3@3@MMAEBVPxControllerFilters@3@PEBVPxObstacleContext@3@_N@Z 0000000180025384     CctCharacterController.obj
 0002:000023a8       $chain$15$?move@Controller@Cct@physx@@IEAA?AV?$PxFlags@W4Enum@PxControllerCollisionFlag@physx@@E@3@AEAVSweptVolume@23@AEBVPxVec3@3@MMAEBVPxControllerFilters@3@PEBVPxObstacleContext@3@_N@Z 00000001800253a8     CctCharacterController.obj
 0002:000023b8       $chain$16$?move@Controller@Cct@physx@@IEAA?AV?$PxFlags@W4Enum@PxControllerCollisionFlag@physx@@E@3@AEAVSweptVolume@23@AEBVPxVec3@3@MMAEBVPxControllerFilters@3@PEBVPxObstacleContext@3@_N@Z 00000001800253b8     CctCharacterController.obj
 0002:000023c8       $chain$17$?move@Controller@Cct@physx@@IEAA?AV?$PxFlags@W4Enum@PxControllerCollisionFlag@physx@@E@3@AEAVSweptVolume@23@AEBVPxVec3@3@MMAEBVPxControllerFilters@3@PEBVPxObstacleContext@3@_N@Z 00000001800253c8     CctCharacterController.obj
 0002:000023dc       $chain$18$?move@Controller@Cct@physx@@IEAA?AV?$PxFlags@W4Enum@PxControllerCollisionFlag@physx@@E@3@AEAVSweptVolume@23@AEBVPxVec3@3@MMAEBVPxControllerFilters@3@PEBVPxObstacleContext@3@_N@Z 00000001800253dc     CctCharacterController.obj
 0002:000023f4       $chain$19$?move@Controller@Cct@physx@@IEAA?AV?$PxFlags@W4Enum@PxControllerCollisionFlag@physx@@E@3@AEAVSweptVolume@23@AEBVPxVec3@3@MMAEBVPxControllerFilters@3@PEBVPxObstacleContext@3@_N@Z 00000001800253f4     CctCharacterController.obj
 0002:00002404       $unwind$?filterTouchedShape@Controller@Cct@physx@@IEAA_NAEBVPxControllerFilters@3@@Z 0000000180025404     CctCharacterController.obj
 0002:0000240c       $unwind$?SweepBoxUserBox@@YA_NPEBVSweepTest@Cct@physx@@PEBVSweptVolume@23@PEBUTouchedGeom@23@AEBUPxExtendedVec3@3@AEBVPxVec3@3@AEAUSweptContact@23@@Z 000000018002540c     CctCharacterController.obj
 0002:00002420       $unwind$?SweepBoxUserCapsule@@YA_NPEBVSweepTest@Cct@physx@@PEBVSweptVolume@23@PEBUTouchedGeom@23@AEBUPxExtendedVec3@3@AEBVPxVec3@3@AEAUSweptContact@23@@Z 0000000180025420     CctCharacterController.obj
 0002:00002438       $unwind$?SweepBoxMesh@@YA_NPEBVSweepTest@Cct@physx@@PEBVSweptVolume@23@PEBUTouchedGeom@23@AEBUPxExtendedVec3@3@AEBVPxVec3@3@AEAUSweptContact@23@@Z 0000000180025438     CctCharacterController.obj
 0002:00002440       $unwind$?SweepCapsuleMesh@@YA_NPEBVSweepTest@Cct@physx@@PEBVSweptVolume@23@PEBUTouchedGeom@23@AEBUPxExtendedVec3@3@AEBVPxVec3@3@AEAUSweptContact@23@@Z 0000000180025440     CctCharacterController.obj
 0002:00002448       $unwind$?SweepBoxBox@@YA_NPEBVSweepTest@Cct@physx@@PEBVSweptVolume@23@PEBUTouchedGeom@23@AEBUPxExtendedVec3@3@AEBVPxVec3@3@AEAUSweptContact@23@@Z 0000000180025448     CctCharacterController.obj
 0002:0000245c       $unwind$?SweepBoxSphere@@YA_NPEBVSweepTest@Cct@physx@@PEBVSweptVolume@23@PEBUTouchedGeom@23@AEBUPxExtendedVec3@3@AEBVPxVec3@3@AEAUSweptContact@23@@Z 000000018002545c     CctCharacterController.obj
 0002:00002470       $unwind$?SweepBoxCapsule@@YA_NPEBVSweepTest@Cct@physx@@PEBVSweptVolume@23@PEBUTouchedGeom@23@AEBUPxExtendedVec3@3@AEBVPxVec3@3@AEAUSweptContact@23@@Z 0000000180025470     CctCharacterController.obj
 0002:00002488       $unwind$?SweepCapsuleBox@@YA_NPEBVSweepTest@Cct@physx@@PEBVSweptVolume@23@PEBUTouchedGeom@23@AEBUPxExtendedVec3@3@AEBVPxVec3@3@AEAUSweptContact@23@@Z 0000000180025488     CctCharacterController.obj
 0002:0000249c       $unwind$?SweepCapsuleSphere@@YA_NPEBVSweepTest@Cct@physx@@PEBVSweptVolume@23@PEBUTouchedGeom@23@AEBUPxExtendedVec3@3@AEBVPxVec3@3@AEAUSweptContact@23@@Z 000000018002549c     CctCharacterController.obj
 0002:000024b0       $unwind$?SweepCapsuleCapsule@@YA_NPEBVSweepTest@Cct@physx@@PEBVSweptVolume@23@PEBUTouchedGeom@23@AEBUPxExtendedVec3@3@AEBVPxVec3@3@AEAUSweptContact@23@@Z 00000001800254b0     CctCharacterController.obj
 0002:000024c8       $unwind$?SweepCapsuleUserCapsule@@YA_NPEBVSweepTest@Cct@physx@@PEBVSweptVolume@23@PEBUTouchedGeom@23@AEBUPxExtendedVec3@3@AEBVPxVec3@3@AEAUSweptContact@23@@Z 00000001800254c8     CctCharacterController.obj
 0002:000024e0       $unwind$?SweepCapsuleUserBox@@YA_NPEBVSweepTest@Cct@physx@@PEBVSweptVolume@23@PEBUTouchedGeom@23@AEBUPxExtendedVec3@3@AEBVPxVec3@3@AEAUSweptContact@23@@Z 00000001800254e0     CctCharacterController.obj
 0002:000024f4       $unwind$?move@BoxController@Cct@physx@@UEAA?AV?$PxFlags@W4Enum@PxControllerCollisionFlag@physx@@E@3@AEBVPxVec3@3@MMAEBVPxControllerFilters@3@PEBVPxObstacleContext@3@@Z 00000001800254f4     CctCharacterController.obj
 0002:00002508       $chain$1$?move@BoxController@Cct@physx@@UEAA?AV?$PxFlags@W4Enum@PxControllerCollisionFlag@physx@@E@3@AEBVPxVec3@3@MMAEBVPxControllerFilters@3@PEBVPxObstacleContext@3@@Z 0000000180025508     CctCharacterController.obj
 0002:00002520       $chain$2$?move@BoxController@Cct@physx@@UEAA?AV?$PxFlags@W4Enum@PxControllerCollisionFlag@physx@@E@3@AEBVPxVec3@3@MMAEBVPxControllerFilters@3@PEBVPxObstacleContext@3@@Z 0000000180025520     CctCharacterController.obj
 0002:00002530       $unwind$?move@CapsuleController@Cct@physx@@UEAA?AV?$PxFlags@W4Enum@PxControllerCollisionFlag@physx@@E@3@AEBVPxVec3@3@MMAEBVPxControllerFilters@3@PEBVPxObstacleContext@3@@Z 0000000180025530     CctCharacterController.obj
 0002:00002544       $chain$1$?move@CapsuleController@Cct@physx@@UEAA?AV?$PxFlags@W4Enum@PxControllerCollisionFlag@physx@@E@3@AEBVPxVec3@3@MMAEBVPxControllerFilters@3@PEBVPxObstacleContext@3@@Z 0000000180025544     CctCharacterController.obj
 0002:0000255c       $chain$2$?move@CapsuleController@Cct@physx@@UEAA?AV?$PxFlags@W4Enum@PxControllerCollisionFlag@physx@@E@3@AEBVPxVec3@3@MMAEBVPxControllerFilters@3@PEBVPxObstacleContext@3@@Z 000000018002555c     CctCharacterController.obj
 0002:0000256c       $unwind$?recreate@?$Array@IV?$ReflectionAllocator@I@shdfnd@physx@@@shdfnd@physx@@IEAAXI@Z 000000018002556c     CctCharacterController.obj
 0002:00002580       $chain$0$?recreate@?$Array@IV?$ReflectionAllocator@I@shdfnd@physx@@@shdfnd@physx@@IEAAXI@Z 0000000180025580     CctCharacterController.obj
 0002:00002594       $chain$1$?recreate@?$Array@IV?$ReflectionAllocator@I@shdfnd@physx@@@shdfnd@physx@@IEAAXI@Z 0000000180025594     CctCharacterController.obj
 0002:000025a4       $unwind$?worldToLocal@@YA?AVPxVec3@physx@@AEBVPxObstacle@2@AEBUPxExtendedVec3@2@@Z 00000001800255a4     CctCharacterController.obj
 0002:000025c8       $unwind$?collisionResponse@@YAXAEAUPxExtendedVec3@physx@@AEBU12@AEBVPxVec3@2@2MM_N@Z 00000001800255c8     CctCharacterController.obj
 0002:000025e4       $chain$2$?collisionResponse@@YAXAEAUPxExtendedVec3@physx@@AEBU12@AEBVPxVec3@2@2MM_N@Z 00000001800255e4     CctCharacterController.obj
 0002:00002600       $chain$3$?collisionResponse@@YAXAEAUPxExtendedVec3@physx@@AEBU12@AEBVPxVec3@2@2MM_N@Z 0000000180025600     CctCharacterController.obj
 0002:00002614       $chain$4$?collisionResponse@@YAXAEAUPxExtendedVec3@physx@@AEBU12@AEBVPxVec3@2@2MM_N@Z 0000000180025614     CctCharacterController.obj
 0002:00002624       $chain$5$?collisionResponse@@YAXAEAUPxExtendedVec3@physx@@AEBU12@AEBVPxVec3@2@2MM_N@Z 0000000180025624     CctCharacterController.obj
 0002:00002634       $unwind$?sweepVolumeVsMesh@@YA_NPEBVSweepTest@Cct@physx@@PEBUTouchedMesh@23@AEAUSweptContact@23@AEBVPxVec3@3@AEBVPxGeometry@3@AEBVPxTransform@3@IPEBVPxTriangle@3@I@Z 0000000180025634     CctCharacterController.obj
 0002:00002648       $unwind$?computeMTD@@YA?AVPxVec3@physx@@PEBVSweepTest@Cct@2@AEBVSweptVolume@42@AEBV?$Array@IV?$ReflectionAllocator@I@shdfnd@physx@@@shdfnd@2@AEBUPxExtendedVec3@2@M@Z 0000000180025648     CctCharacterController.obj
 0002:00002688       $unwind$??$reserveContainerMemory@I@Cm@physx@@YAPEAIAEAV?$Array@IV?$ReflectionAllocator@I@shdfnd@physx@@@shdfnd@1@I@Z 0000000180025688     CctCharacterController.obj
 0002:00002694       $unwind$?preFilter@ControllerFilter@@UEAA?AW4Enum@PxQueryHitType@physx@@AEBUPxFilterData@4@PEBVPxShape@4@PEBVPxRigidActor@4@AEAV?$PxFlags@W4Enum@PxHitFlag@physx@@G@4@@Z 0000000180025694     CctCharacterController.obj
 0002:000026a8       $unwind$??_GControllerFilter@@UEAAPEAXI@Z 00000001800256a8     CctCharacterController.obj
 0002:000026b0       $unwind$??_G?$PxHitCallback@UPxOverlapHit@physx@@@physx@@UEAAPEAXI@Z 00000001800256b0     CctCharacterControllerCallbacks.obj
 0002:000026b8       $unwind$??_G?$PxHitBuffer@UPxOverlapHit@physx@@@physx@@UEAAPEAXI@Z 00000001800256b8     CctCharacterControllerCallbacks.obj
 0002:000026c0       $unwind$?recreate@?$Array@VPxTriangle@physx@@V?$ReflectionAllocator@VPxTriangle@physx@@@shdfnd@2@@shdfnd@physx@@IEAAXI@Z 00000001800256c0     CctCharacterControllerCallbacks.obj
 0002:000026d0       $chain$0$?recreate@?$Array@VPxTriangle@physx@@V?$ReflectionAllocator@VPxTriangle@physx@@@shdfnd@2@@shdfnd@physx@@IEAAXI@Z 00000001800256d0     CctCharacterControllerCallbacks.obj
 0002:000026e4       $chain$1$?recreate@?$Array@VPxTriangle@physx@@V?$ReflectionAllocator@VPxTriangle@physx@@@shdfnd@2@@shdfnd@physx@@IEAAXI@Z 00000001800256e4     CctCharacterControllerCallbacks.obj
 0002:000026f4       $chain$2$?recreate@?$Array@VPxTriangle@physx@@V?$ReflectionAllocator@VPxTriangle@physx@@@shdfnd@2@@shdfnd@physx@@IEAAXI@Z 00000001800256f4     CctCharacterControllerCallbacks.obj
 0002:00002708       $chain$3$?recreate@?$Array@VPxTriangle@physx@@V?$ReflectionAllocator@VPxTriangle@physx@@@shdfnd@2@@shdfnd@physx@@IEAAXI@Z 0000000180025708     CctCharacterControllerCallbacks.obj
 0002:00002718       $unwind$?allocate@?$Array@IV?$ReflectionAllocator@I@shdfnd@physx@@@shdfnd@physx@@IEAAPEAII@Z 0000000180025718     CctCharacterControllerCallbacks.obj
 0002:00002720       $chain$1$?allocate@?$Array@IV?$ReflectionAllocator@I@shdfnd@physx@@@shdfnd@physx@@IEAAPEAII@Z 0000000180025720     CctCharacterControllerCallbacks.obj
 0002:00002738       $chain$3$?allocate@?$Array@IV?$ReflectionAllocator@I@shdfnd@physx@@@shdfnd@physx@@IEAAPEAII@Z 0000000180025738     CctCharacterControllerCallbacks.obj
 0002:0000274c       $chain$4$?allocate@?$Array@IV?$ReflectionAllocator@I@shdfnd@physx@@@shdfnd@physx@@IEAAPEAII@Z 000000018002574c     CctCharacterControllerCallbacks.obj
 0002:0000275c       $unwind$?growAndPushBack@?$Array@IV?$ReflectionAllocator@I@shdfnd@physx@@@shdfnd@physx@@IEAAAEAIAEBI@Z 000000018002575c     CctCharacterControllerCallbacks.obj
 0002:00002774       $unwind$?findTouchedGeometry@Cct@physx@@YAXPEBUInternalCBData_FindTouchedGeom@12@AEBUPxExtendedBounds3@2@AEAVTriArray@12@AEAV?$Array@IV?$ReflectionAllocator@I@shdfnd@physx@@@shdfnd@2@3AEBVCCTFilter@12@AEBUCCTParams@12@AEAG@Z 0000000180025774     CctCharacterControllerCallbacks.obj
 0002:00002780       $chain$12$?findTouchedGeometry@Cct@physx@@YAXPEBUInternalCBData_FindTouchedGeom@12@AEBUPxExtendedBounds3@2@AEAVTriArray@12@AEAV?$Array@IV?$ReflectionAllocator@I@shdfnd@physx@@@shdfnd@2@3AEBVCCTFilter@12@AEBUCCTParams@12@AEAG@Z 0000000180025780     CctCharacterControllerCallbacks.obj
 0002:000027c4       $chain$15$?findTouchedGeometry@Cct@physx@@YAXPEBUInternalCBData_FindTouchedGeom@12@AEBUPxExtendedBounds3@2@AEAVTriArray@12@AEAV?$Array@IV?$ReflectionAllocator@I@shdfnd@physx@@@shdfnd@2@3AEBVCCTFilter@12@AEBUCCTParams@12@AEAG@Z 00000001800257c4     CctCharacterControllerCallbacks.obj
 0002:000027e0       $chain$16$?findTouchedGeometry@Cct@physx@@YAXPEBUInternalCBData_FindTouchedGeom@12@AEBUPxExtendedBounds3@2@AEAVTriArray@12@AEAV?$Array@IV?$ReflectionAllocator@I@shdfnd@physx@@@shdfnd@2@3AEBVCCTFilter@12@AEBUCCTParams@12@AEAG@Z 00000001800257e0     CctCharacterControllerCallbacks.obj
 0002:000027f0       $chain$17$?findTouchedGeometry@Cct@physx@@YAXPEBUInternalCBData_FindTouchedGeom@12@AEBUPxExtendedBounds3@2@AEAVTriArray@12@AEAV?$Array@IV?$ReflectionAllocator@I@shdfnd@physx@@@shdfnd@2@3AEBVCCTFilter@12@AEBUCCTParams@12@AEAG@Z 00000001800257f0     CctCharacterControllerCallbacks.obj
 0002:00002800       $unwind$?shapeHitCallback@Cct@physx@@YAIPEBUInternalCBData_OnHit@12@AEBUSweptContact@12@AEBVPxVec3@2@M@Z 0000000180025800     CctCharacterControllerCallbacks.obj
 0002:00002818       $unwind$?userHitCallback@Cct@physx@@YAIPEBUInternalCBData_OnHit@12@AEBUSweptContact@12@AEBVPxVec3@2@M@Z 0000000180025818     CctCharacterControllerCallbacks.obj
 0002:00002834       $unwind$?tessellateTriangleRecursive@@YAXPEAUTessParams@@AEBVPxVec3@physx@@11@Z 0000000180025834     CctCharacterControllerCallbacks.obj
 0002:0000284c       $chain$8$?tessellateTriangleRecursive@@YAXPEAUTessParams@@AEBVPxVec3@physx@@11@Z 000000018002584c     CctCharacterControllerCallbacks.obj
 0002:00002880       $chain$9$?tessellateTriangleRecursive@@YAXPEAUTessParams@@AEBVPxVec3@physx@@11@Z 0000000180025880     CctCharacterControllerCallbacks.obj
 0002:00002894       $chain$10$?tessellateTriangleRecursive@@YAXPEAUTessParams@@AEBVPxVec3@physx@@11@Z 0000000180025894     CctCharacterControllerCallbacks.obj
 0002:000028ac       $chain$11$?tessellateTriangleRecursive@@YAXPEAUTessParams@@AEBVPxVec3@physx@@11@Z 00000001800258ac     CctCharacterControllerCallbacks.obj
 0002:000028bc       $unwind$?outputPlaneToStream@@YAXPEAVPxShape@physx@@PEBVPxRigidActor@2@AEBVPxTransform@2@AEAV?$Array@IV?$ReflectionAllocator@I@shdfnd@physx@@@shdfnd@2@AEAVTriArray@Cct@2@3AEBUPxExtendedVec3@2@AEBVPxBounds3@2@AEBUCCTParams@82@PEAVRenderBuffer@Cm@2@@Z 00000001800258bc     CctCharacterControllerCallbacks.obj
 0002:000028f8       $unwind$?outputCapsuleToStream@@YAXPEAVPxShape@physx@@PEBVPxRigidActor@2@AEBVPxTransform@2@AEAV?$Array@IV?$ReflectionAllocator@I@shdfnd@physx@@@shdfnd@2@AEBUPxExtendedVec3@2@@Z 00000001800258f8     CctCharacterControllerCallbacks.obj
 0002:0000292c       $unwind$?outputBoxToStream@@YAXPEAVPxShape@physx@@PEBVPxRigidActor@2@AEBVPxTransform@2@AEAV?$Array@IV?$ReflectionAllocator@I@shdfnd@physx@@@shdfnd@2@AEAVTriArray@Cct@2@3AEBUPxExtendedVec3@2@AEBVPxBounds3@2@AEBUCCTParams@82@AEAG@Z 000000018002592c     CctCharacterControllerCallbacks.obj
 0002:00002974       $unwind$?createInvisibleWalls@@YAIAEBUCCTParams@Cct@physx@@AEBVPxTriangle@3@AEAVTriArray@23@AEAV?$Array@IV?$ReflectionAllocator@I@shdfnd@physx@@@shdfnd@3@@Z 0000000180025974     CctCharacterControllerCallbacks.obj
 0002:0000298c       $chain$8$?createInvisibleWalls@@YAIAEBUCCTParams@Cct@physx@@AEBVPxTriangle@3@AEAVTriArray@23@AEAV?$Array@IV?$ReflectionAllocator@I@shdfnd@physx@@@shdfnd@3@@Z 000000018002598c     CctCharacterControllerCallbacks.obj
 0002:000029c0       $chain$9$?createInvisibleWalls@@YAIAEBUCCTParams@Cct@physx@@AEBVPxTriangle@3@AEAVTriArray@23@AEAV?$Array@IV?$ReflectionAllocator@I@shdfnd@physx@@@shdfnd@3@@Z 00000001800259c0     CctCharacterControllerCallbacks.obj
 0002:000029d4       $chain$10$?createInvisibleWalls@@YAIAEBUCCTParams@Cct@physx@@AEBVPxTriangle@3@AEAVTriArray@23@AEAV?$Array@IV?$ReflectionAllocator@I@shdfnd@physx@@@shdfnd@3@@Z 00000001800259d4     CctCharacterControllerCallbacks.obj
 0002:000029e4       $chain$11$?createInvisibleWalls@@YAIAEBUCCTParams@Cct@physx@@AEBVPxTriangle@3@AEAVTriArray@23@AEAV?$Array@IV?$ReflectionAllocator@I@shdfnd@physx@@@shdfnd@3@@Z 00000001800259e4     CctCharacterControllerCallbacks.obj
 0002:000029f4       $unwind$?outputMeshToStream@@YAXPEAVPxShape@physx@@PEBVPxRigidActor@2@AEBVPxTransform@2@AEAV?$Array@IV?$ReflectionAllocator@I@shdfnd@physx@@@shdfnd@2@AEAVTriArray@Cct@2@3AEBUPxExtendedVec3@2@AEBVPxBounds3@2@AEBUCCTParams@82@PEAVRenderBuffer@Cm@2@AEAG@Z 00000001800259f4     CctCharacterControllerCallbacks.obj
 0002:00002a24       $chain$4$?outputMeshToStream@@YAXPEAVPxShape@physx@@PEBVPxRigidActor@2@AEBVPxTransform@2@AEAV?$Array@IV?$ReflectionAllocator@I@shdfnd@physx@@@shdfnd@2@AEAVTriArray@Cct@2@3AEBUPxExtendedVec3@2@AEBVPxBounds3@2@AEBUCCTParams@82@PEAVRenderBuffer@Cm@2@AEAG@Z 0000000180025a24     CctCharacterControllerCallbacks.obj
 0002:00002a48       $unwind$?outputHeightFieldToStream@@YAXPEAVPxShape@physx@@PEBVPxRigidActor@2@AEBVPxTransform@2@AEAV?$Array@IV?$ReflectionAllocator@I@shdfnd@physx@@@shdfnd@2@AEAVTriArray@Cct@2@3AEBUPxExtendedVec3@2@AEBVPxBounds3@2@AEBUCCTParams@82@PEAVRenderBuffer@Cm@2@AEAG@Z 0000000180025a48     CctCharacterControllerCallbacks.obj
 0002:00002a74       $chain$5$?outputHeightFieldToStream@@YAXPEAVPxShape@physx@@PEBVPxRigidActor@2@AEBVPxTransform@2@AEAV?$Array@IV?$ReflectionAllocator@I@shdfnd@physx@@@shdfnd@2@AEAVTriArray@Cct@2@3AEBUPxExtendedVec3@2@AEBVPxBounds3@2@AEBUCCTParams@82@PEAVRenderBuffer@Cm@2@AEAG@Z 0000000180025a74     CctCharacterControllerCallbacks.obj
 0002:00002a9c       $unwind$?outputConvexToStream@@YAXPEAVPxShape@physx@@PEBVPxRigidActor@2@AEBVPxTransform@2@AEAV?$Array@IV?$ReflectionAllocator@I@shdfnd@physx@@@shdfnd@2@AEAVTriArray@Cct@2@3AEBUPxExtendedVec3@2@AEBVPxBounds3@2@AEBUCCTParams@82@PEAVRenderBuffer@Cm@2@AEAG@Z 0000000180025a9c     CctCharacterControllerCallbacks.obj
 0002:00002ae0       $unwind$??_GPxRenderBuffer@physx@@UEAAPEAXI@Z 0000000180025ae0     CctCharacterControllerManager.obj
 0002:00002ae8       $unwind$PxCreateControllerManager 0000000180025ae8     CctCharacterControllerManager.obj
 0002:00002af8       $unwind$??0CharacterControllerManager@Cct@physx@@QEAA@AEAVPxScene@2@_N@Z 0000000180025af8     CctCharacterControllerManager.obj
 0002:00002b10       $unwind$??1CharacterControllerManager@Cct@physx@@UEAA@XZ 0000000180025b10     CctCharacterControllerManager.obj
 0002:00002b1c       $unwind$?release@CharacterControllerManager@Cct@physx@@UEAAXXZ 0000000180025b1c     CctCharacterControllerManager.obj
 0002:00002b24       $chain$3$?release@CharacterControllerManager@Cct@physx@@UEAAXXZ 0000000180025b24     CctCharacterControllerManager.obj
 0002:00002b44       $chain$4$?release@CharacterControllerManager@Cct@physx@@UEAAXXZ 0000000180025b44     CctCharacterControllerManager.obj
 0002:00002b54       $unwind$?getController@CharacterControllerManager@Cct@physx@@UEAAPEAVPxController@3@I@Z 0000000180025b54     CctCharacterControllerManager.obj
 0002:00002b5c       $unwind$?createController@CharacterControllerManager@Cct@physx@@UEAAPEAVPxController@3@AEBVPxControllerDesc@3@@Z 0000000180025b5c     CctCharacterControllerManager.obj
 0002:00002b70       $unwind$?purgeControllers@CharacterControllerManager@Cct@physx@@UEAAXXZ 0000000180025b70     CctCharacterControllerManager.obj
 0002:00002b78       $chain$3$?purgeControllers@CharacterControllerManager@Cct@physx@@UEAAXXZ 0000000180025b78     CctCharacterControllerManager.obj
 0002:00002b98       $chain$4$?purgeControllers@CharacterControllerManager@Cct@physx@@UEAAXXZ 0000000180025b98     CctCharacterControllerManager.obj
 0002:00002ba8       $unwind$?getRenderBuffer@CharacterControllerManager@Cct@physx@@UEAAAEAVPxRenderBuffer@3@XZ 0000000180025ba8     CctCharacterControllerManager.obj
 0002:00002bb0       $chain$0$?getRenderBuffer@CharacterControllerManager@Cct@physx@@UEAAAEAVPxRenderBuffer@3@XZ 0000000180025bb0     CctCharacterControllerManager.obj
 0002:00002bc4       $chain$1$?getRenderBuffer@CharacterControllerManager@Cct@physx@@UEAAAEAVPxRenderBuffer@3@XZ 0000000180025bc4     CctCharacterControllerManager.obj
 0002:00002bd4       $unwind$?setDebugRenderingFlags@CharacterControllerManager@Cct@physx@@UEAAXV?$PxFlags@W4Enum@PxControllerDebugRenderFlag@physx@@I@3@@Z 0000000180025bd4     CctCharacterControllerManager.obj
 0002:00002bdc       $unwind$?getObstacleContext@CharacterControllerManager@Cct@physx@@UEAAPEAVPxObstacleContext@3@I@Z 0000000180025bdc     CctCharacterControllerManager.obj
 0002:00002be4       $unwind$?createObstacleContext@CharacterControllerManager@Cct@physx@@UEAAPEAVPxObstacleContext@3@XZ 0000000180025be4     CctCharacterControllerManager.obj
 0002:00002bf0       $unwind$?computeInteractions@CharacterControllerManager@Cct@physx@@UEAAXMPEAVPxControllerFilterCallback@3@@Z 0000000180025bf0     CctCharacterControllerManager.obj
 0002:00002bfc       $chain$5$?computeInteractions@CharacterControllerManager@Cct@physx@@UEAAXMPEAVPxControllerFilterCallback@3@@Z 0000000180025bfc     CctCharacterControllerManager.obj
 0002:00002c24       $chain$7$?computeInteractions@CharacterControllerManager@Cct@physx@@UEAAXMPEAVPxControllerFilterCallback@3@@Z 0000000180025c24     CctCharacterControllerManager.obj
 0002:00002c3c       $chain$8$?computeInteractions@CharacterControllerManager@Cct@physx@@UEAAXMPEAVPxControllerFilterCallback@3@@Z 0000000180025c3c     CctCharacterControllerManager.obj
 0002:00002c4c       $chain$9$?computeInteractions@CharacterControllerManager@Cct@physx@@UEAAXMPEAVPxControllerFilterCallback@3@@Z 0000000180025c4c     CctCharacterControllerManager.obj
 0002:00002c60       $chain$10$?computeInteractions@CharacterControllerManager@Cct@physx@@UEAAXMPEAVPxControllerFilterCallback@3@@Z 0000000180025c60     CctCharacterControllerManager.obj
 0002:00002c70       $unwind$?shiftOrigin@CharacterControllerManager@Cct@physx@@UEAAXAEBVPxVec3@3@@Z 0000000180025c70     CctCharacterControllerManager.obj
 0002:00002c84       $unwind$?onRelease@CharacterControllerManager@Cct@physx@@UEAAXPEBVPxBase@3@PEAXW4Enum@PxDeletionEventFlag@3@@Z 0000000180025c84     CctCharacterControllerManager.obj
 0002:00002c90       $chain$1$?onRelease@CharacterControllerManager@Cct@physx@@UEAAXPEBVPxBase@3@PEAXW4Enum@PxDeletionEventFlag@3@@Z 0000000180025c90     CctCharacterControllerManager.obj
 0002:00002ca8       $chain$2$?onRelease@CharacterControllerManager@Cct@physx@@UEAAXPEBVPxBase@3@PEAXW4Enum@PxDeletionEventFlag@3@@Z 0000000180025ca8     CctCharacterControllerManager.obj
 0002:00002cb8       $unwind$?registerObservedObject@CharacterControllerManager@Cct@physx@@QEAAXPEBVPxBase@3@@Z 0000000180025cb8     CctCharacterControllerManager.obj
 0002:00002cc4       $unwind$?unregisterObservedObject@CharacterControllerManager@Cct@physx@@QEAAXPEBVPxBase@3@@Z 0000000180025cc4     CctCharacterControllerManager.obj
 0002:00002cd4       $unwind$?onObstacleRemoved@CharacterControllerManager@Cct@physx@@QEBAXI@Z 0000000180025cd4     CctCharacterControllerManager.obj
 0002:00002ce4       $unwind$?onObstacleUpdated@CharacterControllerManager@Cct@physx@@QEBAXIPEBVPxObstacleContext@3@@Z 0000000180025ce4     CctCharacterControllerManager.obj
 0002:00002cf4       $chain$2$?onObstacleUpdated@CharacterControllerManager@Cct@physx@@QEBAXIPEBVPxObstacleContext@3@@Z 0000000180025cf4     CctCharacterControllerManager.obj
 0002:00002d10       $chain$3$?onObstacleUpdated@CharacterControllerManager@Cct@physx@@QEBAXIPEBVPxObstacleContext@3@@Z 0000000180025d10     CctCharacterControllerManager.obj
 0002:00002d20       $unwind$?onObstacleAdded@CharacterControllerManager@Cct@physx@@QEBAXIPEBVPxObstacleContext@3@@Z 0000000180025d20     CctCharacterControllerManager.obj
 0002:00002d30       $chain$2$?onObstacleAdded@CharacterControllerManager@Cct@physx@@QEBAXIPEBVPxObstacleContext@3@@Z 0000000180025d30     CctCharacterControllerManager.obj
 0002:00002d4c       $chain$3$?onObstacleAdded@CharacterControllerManager@Cct@physx@@QEBAXIPEBVPxObstacleContext@3@@Z 0000000180025d4c     CctCharacterControllerManager.obj
 0002:00002d5c       $unwind$?releaseController@CharacterControllerManager@Cct@physx@@QEAAXAEAVPxController@3@@Z 0000000180025d5c     CctCharacterControllerManager.obj
 0002:00002d64       $chain$0$?releaseController@CharacterControllerManager@Cct@physx@@QEAAXAEAVPxController@3@@Z 0000000180025d64     CctCharacterControllerManager.obj
 0002:00002d78       $chain$1$?releaseController@CharacterControllerManager@Cct@physx@@QEAAXAEAVPxController@3@@Z 0000000180025d78     CctCharacterControllerManager.obj
 0002:00002d8c       $chain$2$?releaseController@CharacterControllerManager@Cct@physx@@QEAAXAEAVPxController@3@@Z 0000000180025d8c     CctCharacterControllerManager.obj
 0002:00002da0       $chain$3$?releaseController@CharacterControllerManager@Cct@physx@@QEAAXAEAVPxController@3@@Z 0000000180025da0     CctCharacterControllerManager.obj
 0002:00002db0       $chain$4$?releaseController@CharacterControllerManager@Cct@physx@@QEAAXAEAVPxController@3@@Z 0000000180025db0     CctCharacterControllerManager.obj
 0002:00002dc0       $chain$5$?releaseController@CharacterControllerManager@Cct@physx@@QEAAXAEAVPxController@3@@Z 0000000180025dc0     CctCharacterControllerManager.obj
 0002:00002dd0       $unwind$?resetObstaclesBuffers@CharacterControllerManager@Cct@physx@@QEAAXXZ 0000000180025dd0     CctCharacterControllerManager.obj
 0002:00002de0       $unwind$??_GPxDeletionListener@physx@@MEAAPEAXI@Z 0000000180025de0     CctCharacterControllerManager.obj
 0002:00002de8       $unwind$?append@RenderBuffer@Cm@physx@@UEAAXAEBVPxRenderBuffer@3@@Z 0000000180025de8     CctCharacterControllerManager.obj
 0002:00002e00       $unwind$?allocate@?$Array@UPxDebugPoint@physx@@V?$ReflectionAllocator@UPxDebugPoint@physx@@@shdfnd@2@@shdfnd@physx@@IEAAPEAUPxDebugPoint@3@I@Z 0000000180025e00     CctCharacterControllerManager.obj
 0002:00002e08       $chain$1$?allocate@?$Array@UPxDebugPoint@physx@@V?$ReflectionAllocator@UPxDebugPoint@physx@@@shdfnd@2@@shdfnd@physx@@IEAAPEAUPxDebugPoint@3@I@Z 0000000180025e08     CctCharacterControllerManager.obj
 0002:00002e20       $chain$3$?allocate@?$Array@UPxDebugPoint@physx@@V?$ReflectionAllocator@UPxDebugPoint@physx@@@shdfnd@2@@shdfnd@physx@@IEAAPEAUPxDebugPoint@3@I@Z 0000000180025e20     CctCharacterControllerManager.obj
 0002:00002e34       $chain$4$?allocate@?$Array@UPxDebugPoint@physx@@V?$ReflectionAllocator@UPxDebugPoint@physx@@@shdfnd@2@@shdfnd@physx@@IEAAPEAUPxDebugPoint@3@I@Z 0000000180025e34     CctCharacterControllerManager.obj
 0002:00002e44       $unwind$?growAndPushBack@?$Array@UPxDebugPoint@physx@@V?$ReflectionAllocator@UPxDebugPoint@physx@@@shdfnd@2@@shdfnd@physx@@IEAAAEAUPxDebugPoint@3@AEBU43@@Z 0000000180025e44     CctCharacterControllerManager.obj
 0002:00002e5c       $unwind$?recreate@?$Array@UPxDebugPoint@physx@@V?$ReflectionAllocator@UPxDebugPoint@physx@@@shdfnd@2@@shdfnd@physx@@IEAAXI@Z 0000000180025e5c     CctCharacterControllerManager.obj
 0002:00002e70       $unwind$?allocate@?$Array@UPxDebugLine@physx@@V?$ReflectionAllocator@UPxDebugLine@physx@@@shdfnd@2@@shdfnd@physx@@IEAAPEAUPxDebugLine@3@I@Z 0000000180025e70     CctCharacterControllerManager.obj
 0002:00002e78       $chain$1$?allocate@?$Array@UPxDebugLine@physx@@V?$ReflectionAllocator@UPxDebugLine@physx@@@shdfnd@2@@shdfnd@physx@@IEAAPEAUPxDebugLine@3@I@Z 0000000180025e78     CctCharacterControllerManager.obj
 0002:00002e90       $chain$3$?allocate@?$Array@UPxDebugLine@physx@@V?$ReflectionAllocator@UPxDebugLine@physx@@@shdfnd@2@@shdfnd@physx@@IEAAPEAUPxDebugLine@3@I@Z 0000000180025e90     CctCharacterControllerManager.obj
 0002:00002ea4       $chain$4$?allocate@?$Array@UPxDebugLine@physx@@V?$ReflectionAllocator@UPxDebugLine@physx@@@shdfnd@2@@shdfnd@physx@@IEAAPEAUPxDebugLine@3@I@Z 0000000180025ea4     CctCharacterControllerManager.obj
 0002:00002eb4       $unwind$?growAndPushBack@?$Array@UPxDebugLine@physx@@V?$ReflectionAllocator@UPxDebugLine@physx@@@shdfnd@2@@shdfnd@physx@@IEAAAEAUPxDebugLine@3@AEBU43@@Z 0000000180025eb4     CctCharacterControllerManager.obj
 0002:00002ecc       $unwind$?recreate@?$Array@UPxDebugLine@physx@@V?$ReflectionAllocator@UPxDebugLine@physx@@@shdfnd@2@@shdfnd@physx@@IEAAXI@Z 0000000180025ecc     CctCharacterControllerManager.obj
 0002:00002ee0       $unwind$?allocate@?$Array@UPxDebugTriangle@physx@@V?$ReflectionAllocator@UPxDebugTriangle@physx@@@shdfnd@2@@shdfnd@physx@@IEAAPEAUPxDebugTriangle@3@I@Z 0000000180025ee0     CctCharacterControllerManager.obj
 0002:00002ee8       $chain$1$?allocate@?$Array@UPxDebugTriangle@physx@@V?$ReflectionAllocator@UPxDebugTriangle@physx@@@shdfnd@2@@shdfnd@physx@@IEAAPEAUPxDebugTriangle@3@I@Z 0000000180025ee8     CctCharacterControllerManager.obj
 0002:00002f00       $chain$3$?allocate@?$Array@UPxDebugTriangle@physx@@V?$ReflectionAllocator@UPxDebugTriangle@physx@@@shdfnd@2@@shdfnd@physx@@IEAAPEAUPxDebugTriangle@3@I@Z 0000000180025f00     CctCharacterControllerManager.obj
 0002:00002f14       $chain$4$?allocate@?$Array@UPxDebugTriangle@physx@@V?$ReflectionAllocator@UPxDebugTriangle@physx@@@shdfnd@2@@shdfnd@physx@@IEAAPEAUPxDebugTriangle@3@I@Z 0000000180025f14     CctCharacterControllerManager.obj
 0002:00002f24       $unwind$?growAndPushBack@?$Array@UPxDebugTriangle@physx@@V?$ReflectionAllocator@UPxDebugTriangle@physx@@@shdfnd@2@@shdfnd@physx@@IEAAAEAUPxDebugTriangle@3@AEBU43@@Z 0000000180025f24     CctCharacterControllerManager.obj
 0002:00002f38       $unwind$?recreate@?$Array@UPxDebugTriangle@physx@@V?$ReflectionAllocator@UPxDebugTriangle@physx@@@shdfnd@2@@shdfnd@physx@@IEAAXI@Z 0000000180025f38     CctCharacterControllerManager.obj
 0002:00002f4c       $unwind$?allocate@?$Array@UPxDebugText@physx@@V?$ReflectionAllocator@UPxDebugText@physx@@@shdfnd@2@@shdfnd@physx@@IEAAPEAUPxDebugText@3@I@Z 0000000180025f4c     CctCharacterControllerManager.obj
 0002:00002f54       $chain$1$?allocate@?$Array@UPxDebugText@physx@@V?$ReflectionAllocator@UPxDebugText@physx@@@shdfnd@2@@shdfnd@physx@@IEAAPEAUPxDebugText@3@I@Z 0000000180025f54     CctCharacterControllerManager.obj
 0002:00002f6c       $chain$3$?allocate@?$Array@UPxDebugText@physx@@V?$ReflectionAllocator@UPxDebugText@physx@@@shdfnd@2@@shdfnd@physx@@IEAAPEAUPxDebugText@3@I@Z 0000000180025f6c     CctCharacterControllerManager.obj
 0002:00002f80       $chain$4$?allocate@?$Array@UPxDebugText@physx@@V?$ReflectionAllocator@UPxDebugText@physx@@@shdfnd@2@@shdfnd@physx@@IEAAPEAUPxDebugText@3@I@Z 0000000180025f80     CctCharacterControllerManager.obj
 0002:00002f90       $unwind$?growAndPushBack@?$Array@UPxDebugText@physx@@V?$ReflectionAllocator@UPxDebugText@physx@@@shdfnd@2@@shdfnd@physx@@IEAAAEAUPxDebugText@3@AEBU43@@Z 0000000180025f90     CctCharacterControllerManager.obj
 0002:00002fa8       $unwind$?recreate@?$Array@UPxDebugText@physx@@V?$ReflectionAllocator@UPxDebugText@physx@@@shdfnd@2@@shdfnd@physx@@IEAAXI@Z 0000000180025fa8     CctCharacterControllerManager.obj
 0002:00002fbc       $unwind$??_GRenderBuffer@Cm@physx@@UEAAPEAXI@Z 0000000180025fbc     CctCharacterControllerManager.obj
 0002:00002fcc       $unwind$?resize@?$Array@PEBXV?$ReflectionAllocator@PEBX@shdfnd@physx@@@shdfnd@physx@@QEAAXIAEBQEBX@Z 0000000180025fcc     CctCharacterControllerManager.obj
 0002:00002fe0       $unwind$?recreate@?$Array@PEBXV?$ReflectionAllocator@PEBX@shdfnd@physx@@@shdfnd@physx@@IEAAXI@Z 0000000180025fe0     CctCharacterControllerManager.obj
 0002:00002ff4       $chain$0$?recreate@?$Array@PEBXV?$ReflectionAllocator@PEBX@shdfnd@physx@@@shdfnd@physx@@IEAAXI@Z 0000000180025ff4     CctCharacterControllerManager.obj
 0002:00003008       $chain$1$?recreate@?$Array@PEBXV?$ReflectionAllocator@PEBX@shdfnd@physx@@@shdfnd@physx@@IEAAXI@Z 0000000180026008     CctCharacterControllerManager.obj
 0002:00003018       $unwind$?resize@?$Array@VPxExtendedBox@physx@@V?$ReflectionAllocator@VPxExtendedBox@physx@@@shdfnd@2@@shdfnd@physx@@QEAAXIAEBVPxExtendedBox@3@@Z 0000000180026018     CctCharacterControllerManager.obj
 0002:00003028       $unwind$?recreate@?$Array@VPxExtendedBox@physx@@V?$ReflectionAllocator@VPxExtendedBox@physx@@@shdfnd@2@@shdfnd@physx@@IEAAXI@Z 0000000180026028     CctCharacterControllerManager.obj
 0002:00003038       $chain$0$?recreate@?$Array@VPxExtendedBox@physx@@V?$ReflectionAllocator@VPxExtendedBox@physx@@@shdfnd@2@@shdfnd@physx@@IEAAXI@Z 0000000180026038     CctCharacterControllerManager.obj
 0002:0000304c       $chain$1$?recreate@?$Array@VPxExtendedBox@physx@@V?$ReflectionAllocator@VPxExtendedBox@physx@@@shdfnd@2@@shdfnd@physx@@IEAAXI@Z 000000018002604c     CctCharacterControllerManager.obj
 0002:0000305c       $chain$2$?recreate@?$Array@VPxExtendedBox@physx@@V?$ReflectionAllocator@VPxExtendedBox@physx@@@shdfnd@2@@shdfnd@physx@@IEAAXI@Z 000000018002605c     CctCharacterControllerManager.obj
 0002:00003070       $chain$3$?recreate@?$Array@VPxExtendedBox@physx@@V?$ReflectionAllocator@VPxExtendedBox@physx@@@shdfnd@2@@shdfnd@physx@@IEAAXI@Z 0000000180026070     CctCharacterControllerManager.obj
 0002:00003080       $unwind$?resize@?$Array@UPxExtendedCapsule@physx@@V?$ReflectionAllocator@UPxExtendedCapsule@physx@@@shdfnd@2@@shdfnd@physx@@QEAAXIAEBUPxExtendedCapsule@3@@Z 0000000180026080     CctCharacterControllerManager.obj
 0002:00003090       $unwind$?recreate@?$Array@UPxExtendedCapsule@physx@@V?$ReflectionAllocator@UPxExtendedCapsule@physx@@@shdfnd@2@@shdfnd@physx@@IEAAXI@Z 0000000180026090     CctCharacterControllerManager.obj
 0002:000030a4       $unwind$?growAndPushBack@?$Array@PEAVController@Cct@physx@@V?$ReflectionAllocator@PEAVController@Cct@physx@@@shdfnd@3@@shdfnd@physx@@IEAAAEAPEAVController@Cct@3@AEBQEAV453@@Z 00000001800260a4     CctCharacterControllerManager.obj
 0002:000030b4       $chain$0$?growAndPushBack@?$Array@PEAVController@Cct@physx@@V?$ReflectionAllocator@PEAVController@Cct@physx@@@shdfnd@3@@shdfnd@physx@@IEAAAEAPEAVController@Cct@3@AEBQEAV453@@Z 00000001800260b4     CctCharacterControllerManager.obj
 0002:000030c8       $chain$1$?growAndPushBack@?$Array@PEAVController@Cct@physx@@V?$ReflectionAllocator@PEAVController@Cct@physx@@@shdfnd@3@@shdfnd@physx@@IEAAAEAPEAVController@Cct@3@AEBQEAV453@@Z 00000001800260c8     CctCharacterControllerManager.obj
 0002:000030dc       $chain$2$?growAndPushBack@?$Array@PEAVController@Cct@physx@@V?$ReflectionAllocator@PEAVController@Cct@physx@@@shdfnd@3@@shdfnd@physx@@IEAAAEAPEAVController@Cct@3@AEBQEAV453@@Z 00000001800260dc     CctCharacterControllerManager.obj
 0002:000030ec       $chain$3$?growAndPushBack@?$Array@PEAVController@Cct@physx@@V?$ReflectionAllocator@PEAVController@Cct@physx@@@shdfnd@3@@shdfnd@physx@@IEAAAEAPEAVController@Cct@3@AEBQEAV453@@Z 00000001800260ec     CctCharacterControllerManager.obj
 0002:000030fc       $unwind$?create@?$HashBase@PEAVPxShape@physx@@PEAV12@U?$Hash@PEAVPxShape@physx@@@shdfnd@2@UGetKey@?$HashSetBase@PEAVPxShape@physx@@U?$Hash@PEAVPxShape@physx@@@shdfnd@2@VNonTrackingAllocator@42@$0A@@internal@42@VNonTrackingAllocator@42@$0A@@internal@shdfnd@physx@@QEAAPEAPEAVPxShape@4@AEBQEAV54@AEA_N@Z 00000001800260fc     CctCharacterControllerManager.obj
 0002:00003108       $unwind$?reserveInternal@?$HashBase@PEAVPxShape@physx@@PEAV12@U?$Hash@PEAVPxShape@physx@@@shdfnd@2@UGetKey@?$HashSetBase@PEAVPxShape@physx@@U?$Hash@PEAVPxShape@physx@@@shdfnd@2@VNonTrackingAllocator@42@$0A@@internal@42@VNonTrackingAllocator@42@$0A@@internal@shdfnd@physx@@AEAAXI@Z 0000000180026108     CctCharacterControllerManager.obj
 0002:00003120       $unwind$?growAndPushBack@?$Array@PEAVObstacleContext@Cct@physx@@V?$ReflectionAllocator@PEAVObstacleContext@Cct@physx@@@shdfnd@3@@shdfnd@physx@@IEAAAEAPEAVObstacleContext@Cct@3@AEBQEAV453@@Z 0000000180026120     CctCharacterControllerManager.obj
 0002:00003130       $chain$0$?growAndPushBack@?$Array@PEAVObstacleContext@Cct@physx@@V?$ReflectionAllocator@PEAVObstacleContext@Cct@physx@@@shdfnd@3@@shdfnd@physx@@IEAAAEAPEAVObstacleContext@Cct@3@AEBQEAV453@@Z 0000000180026130     CctCharacterControllerManager.obj
 0002:00003144       $chain$1$?growAndPushBack@?$Array@PEAVObstacleContext@Cct@physx@@V?$ReflectionAllocator@PEAVObstacleContext@Cct@physx@@@shdfnd@3@@shdfnd@physx@@IEAAAEAPEAVObstacleContext@Cct@3@AEBQEAV453@@Z 0000000180026144     CctCharacterControllerManager.obj
 0002:00003158       $chain$2$?growAndPushBack@?$Array@PEAVObstacleContext@Cct@physx@@V?$ReflectionAllocator@PEAVObstacleContext@Cct@physx@@@shdfnd@3@@shdfnd@physx@@IEAAAEAPEAVObstacleContext@Cct@3@AEBQEAV453@@Z 0000000180026158     CctCharacterControllerManager.obj
 0002:00003168       $chain$3$?growAndPushBack@?$Array@PEAVObstacleContext@Cct@physx@@V?$ReflectionAllocator@PEAVObstacleContext@Cct@physx@@@shdfnd@3@@shdfnd@physx@@IEAAAEAPEAVObstacleContext@Cct@3@AEBQEAV453@@Z 0000000180026168     CctCharacterControllerManager.obj
 0002:00003178       $unwind$?create@?$HashBase@V?$Pair@QEBVPxBase@physx@@UObservedRefCounter@Cct@2@@shdfnd@physx@@PEBVPxBase@3@U?$Hash@PEBVPxBase@physx@@@23@UGetKey@?$HashMapBase@PEBVPxBase@physx@@UObservedRefCounter@Cct@2@U?$Hash@PEBVPxBase@physx@@@shdfnd@2@VNonTrackingAllocator@62@@internal@23@VNonTrackingAllocator@23@$00@internal@shdfnd@physx@@QEAAPEAV?$Pair@QEBVPxBase@physx@@UObservedRefCounter@Cct@2@@34@AEBQEBVPxBase@4@AEA_N@Z 0000000180026178     CctCharacterControllerManager.obj
 0002:00003184       $unwind$?reserveInternal@?$HashBase@V?$Pair@QEBVPxBase@physx@@UObservedRefCounter@Cct@2@@shdfnd@physx@@PEBVPxBase@3@U?$Hash@PEBVPxBase@physx@@@23@UGetKey@?$HashMapBase@PEBVPxBase@physx@@UObservedRefCounter@Cct@2@U?$Hash@PEBVPxBase@physx@@@shdfnd@2@VNonTrackingAllocator@62@@internal@23@VNonTrackingAllocator@23@$00@internal@shdfnd@physx@@AEAAXI@Z 0000000180026184     CctCharacterControllerManager.obj
 0002:000031a0       $unwind$??_GCharacterControllerManager@Cct@physx@@UEAAPEAXI@Z 00000001800261a0     CctCharacterControllerManager.obj
 0002:000031ac       $unwind$??$resetOrClear@V?$Array@PEBXV?$ReflectionAllocator@PEBX@shdfnd@physx@@@shdfnd@physx@@@@YAXAEAV?$Array@PEBXV?$ReflectionAllocator@PEBX@shdfnd@physx@@@shdfnd@physx@@@Z 00000001800261ac     CctCharacterControllerManager.obj
 0002:000031b4       $unwind$??$resetOrClear@V?$Array@VPxExtendedBox@physx@@V?$ReflectionAllocator@VPxExtendedBox@physx@@@shdfnd@2@@shdfnd@physx@@@@YAXAEAV?$Array@VPxExtendedBox@physx@@V?$ReflectionAllocator@VPxExtendedBox@physx@@@shdfnd@2@@shdfnd@physx@@@Z 00000001800261b4     CctCharacterControllerManager.obj
 0002:000031bc       $unwind$??$resetOrClear@V?$Array@UPxExtendedCapsule@physx@@V?$ReflectionAllocator@UPxExtendedCapsule@physx@@@shdfnd@2@@shdfnd@physx@@@@YAXAEAV?$Array@UPxExtendedCapsule@physx@@V?$ReflectionAllocator@UPxExtendedCapsule@physx@@@shdfnd@2@@shdfnd@physx@@@Z 00000001800261bc     CctCharacterControllerManager.obj
 0002:000031c4       $unwind$?computeMTD@@YA_NAEAVPxVec3@physx@@AEAMAEBV12@2AEBVPxMat33@2@223@Z 00000001800261c4     CctCharacterControllerManager.obj
 0002:00003208       $unwind$?InteractionCharacterCharacter@@YAXPEAVController@Cct@physx@@0M@Z 0000000180026208     CctCharacterControllerManager.obj
 0002:00003244       $unwind$??0Controller@Cct@physx@@QEAA@AEBVPxControllerDesc@2@PEAVPxScene@2@@Z 0000000180026244     CctController.obj
 0002:0000325c       $unwind$??1Controller@Cct@physx@@UEAA@XZ 000000018002625c     CctController.obj
 0002:00003268       $unwind$?releaseInternal@Controller@Cct@physx@@QEAAXXZ 0000000180026268     CctController.obj
 0002:00003270       $unwind$?getInternalState@Controller@Cct@physx@@QEBAXAEAUPxControllerState@3@@Z 0000000180026270     CctController.obj
 0002:0000327c       $unwind$?onOriginShift@Controller@Cct@physx@@QEAAXAEBVPxVec3@3@@Z 000000018002627c     CctController.obj
 0002:00003288       $unwind$?setUpDirectionInternal@Controller@Cct@physx@@IEAAXAEBVPxVec3@3@@Z 0000000180026288     CctController.obj
 0002:00003294       $unwind$?getKineShape@Controller@Cct@physx@@IEBAPEAVPxShape@3@XZ 0000000180026294     CctController.obj
 0002:0000329c       $unwind$?createProxyActor@Controller@Cct@physx@@IEAA_NAEAVPxPhysics@3@AEBVPxGeometry@3@AEBVPxMaterial@3@@Z 000000018002629c     CctController.obj
 0002:000032ac       $unwind$?setPos@Controller@Cct@physx@@IEAA_NAEBUPxExtendedVec3@3@@Z 00000001800262ac     CctController.obj
 0002:000032b4       $unwind$??_GController@Cct@physx@@UEAAPEAXI@Z 00000001800262b4     CctController.obj
 0002:000032c4       $unwind$??_GPxObstacleContext@physx@@UEAAPEAXI@Z 00000001800262c4     CctObstacleContext.obj
 0002:000032cc       $unwind$??0HandleManager@Cct@physx@@QEAA@XZ 00000001800262cc     CctObstacleContext.obj
 0002:000032dc       $unwind$??1HandleManager@Cct@physx@@QEAA@XZ 00000001800262dc     CctObstacleContext.obj
 0002:000032e4       $unwind$?Add@HandleManager@Cct@physx@@QEAAIPEAX@Z 00000001800262e4     CctObstacleContext.obj
 0002:000032f0       $chain$4$?Add@HandleManager@Cct@physx@@QEAAIPEAX@Z 00000001800262f0     CctObstacleContext.obj
 0002:00003314       $chain$5$?Add@HandleManager@Cct@physx@@QEAAIPEAX@Z 0000000180026314     CctObstacleContext.obj
 0002:00003324       $unwind$?Remove@HandleManager@Cct@physx@@QEAAXI@Z 0000000180026324     CctObstacleContext.obj
 0002:0000332c       $chain$1$?Remove@HandleManager@Cct@physx@@QEAAXI@Z 000000018002632c     CctObstacleContext.obj
 0002:00003344       $chain$2$?Remove@HandleManager@Cct@physx@@QEAAXI@Z 0000000180026344     CctObstacleContext.obj
 0002:00003354       $unwind$?SetupLists@HandleManager@Cct@physx@@AEAA_NPEAPEAXPEAG11@Z 0000000180026354     CctObstacleContext.obj
 0002:0000336c       $unwind$??0ObstacleContext@Cct@physx@@QEAA@AEAVCharacterControllerManager@12@@Z 000000018002636c     CctObstacleContext.obj
 0002:00003378       $unwind$??1ObstacleContext@Cct@physx@@UEAA@XZ 0000000180026378     CctObstacleContext.obj
 0002:00003384       $unwind$?addObstacle@ObstacleContext@Cct@physx@@UEAAIAEBVPxObstacle@3@@Z 0000000180026384     CctObstacleContext.obj
 0002:000033a4       $chain$0$?addObstacle@ObstacleContext@Cct@physx@@UEAAIAEBVPxObstacle@3@@Z 00000001800263a4     CctObstacleContext.obj
 0002:000033b8       $chain$1$?addObstacle@ObstacleContext@Cct@physx@@UEAAIAEBVPxObstacle@3@@Z 00000001800263b8     CctObstacleContext.obj
 0002:000033c8       $unwind$?removeObstacle@ObstacleContext@Cct@physx@@UEAA_NI@Z 00000001800263c8     CctObstacleContext.obj
 0002:000033e4       $unwind$?updateObstacle@ObstacleContext@Cct@physx@@UEAA_NIAEBVPxObstacle@3@@Z 00000001800263e4     CctObstacleContext.obj
 0002:000033ec       $unwind$?raycastSingle@ObstacleContext@Cct@physx@@QEBAPEBVPxObstacle@3@AEAUPxRaycastHit@3@AEBVPxVec3@3@1MAEAI@Z 00000001800263ec     CctObstacleContext.obj
 0002:00003410       $unwind$?raycastSingle@ObstacleContext@Cct@physx@@QEBAPEBVPxObstacle@3@AEAUPxRaycastHit@3@AEBIAEBVPxVec3@3@2M@Z 0000000180026410     CctObstacleContext.obj
 0002:00003424       $unwind$?growAndPushBack@?$Array@UInternalBoxObstacle@ObstacleContext@Cct@physx@@V?$ReflectionAllocator@UInternalBoxObstacle@ObstacleContext@Cct@physx@@@shdfnd@4@@shdfnd@physx@@IEAAAEAUInternalBoxObstacle@ObstacleContext@Cct@3@AEBU4563@@Z 0000000180026424     CctObstacleContext.obj
 0002:00003438       $chain$0$?growAndPushBack@?$Array@UInternalBoxObstacle@ObstacleContext@Cct@physx@@V?$ReflectionAllocator@UInternalBoxObstacle@ObstacleContext@Cct@physx@@@shdfnd@4@@shdfnd@physx@@IEAAAEAUInternalBoxObstacle@ObstacleContext@Cct@3@AEBU4563@@Z 0000000180026438     CctObstacleContext.obj
 0002:0000344c       $chain$1$?growAndPushBack@?$Array@UInternalBoxObstacle@ObstacleContext@Cct@physx@@V?$ReflectionAllocator@UInternalBoxObstacle@ObstacleContext@Cct@physx@@@shdfnd@4@@shdfnd@physx@@IEAAAEAUInternalBoxObstacle@ObstacleContext@Cct@3@AEBU4563@@Z 000000018002644c     CctObstacleContext.obj
 0002:0000345c       $unwind$?growAndPushBack@?$Array@UInternalCapsuleObstacle@ObstacleContext@Cct@physx@@V?$ReflectionAllocator@UInternalCapsuleObstacle@ObstacleContext@Cct@physx@@@shdfnd@4@@shdfnd@physx@@IEAAAEAUInternalCapsuleObstacle@ObstacleContext@Cct@3@AEBU4563@@Z 000000018002645c     CctObstacleContext.obj
 0002:00003470       $chain$0$?growAndPushBack@?$Array@UInternalCapsuleObstacle@ObstacleContext@Cct@physx@@V?$ReflectionAllocator@UInternalCapsuleObstacle@ObstacleContext@Cct@physx@@@shdfnd@4@@shdfnd@physx@@IEAAAEAUInternalCapsuleObstacle@ObstacleContext@Cct@3@AEBU4563@@Z 0000000180026470     CctObstacleContext.obj
 0002:00003484       $chain$1$?growAndPushBack@?$Array@UInternalCapsuleObstacle@ObstacleContext@Cct@physx@@V?$ReflectionAllocator@UInternalCapsuleObstacle@ObstacleContext@Cct@physx@@@shdfnd@4@@shdfnd@physx@@IEAAAEAUInternalCapsuleObstacle@ObstacleContext@Cct@3@AEBU4563@@Z 0000000180026484     CctObstacleContext.obj
 0002:00003494       $unwind$??_GObstacleContext@Cct@physx@@UEAAPEAXI@Z 0000000180026494     CctObstacleContext.obj
 0002:000034a4       $unwind$??0SweptBox@Cct@physx@@QEAA@XZ 00000001800264a4     CctSweptBox.obj
 0002:000034ac       $unwind$?computeTemporalBox@SweptBox@Cct@physx@@UEBAXAEBVSweepTest@23@AEAUPxExtendedBounds3@3@AEBUPxExtendedVec3@3@AEBVPxVec3@3@@Z 00000001800264ac     CctSweptBox.obj
 0002:000034b4       $unwind$??_GSweptBox@Cct@physx@@UEAAPEAXI@Z 00000001800264b4     CctSweptBox.obj
 0002:000034c0       $unwind$??0SweptCapsule@Cct@physx@@QEAA@XZ 00000001800264c0     CctSweptCapsule.obj
 0002:000034c8       $unwind$?computeTemporalBox@SweptCapsule@Cct@physx@@UEBAXAEBVSweepTest@23@AEAUPxExtendedBounds3@3@AEBUPxExtendedVec3@3@AEBVPxVec3@3@@Z 00000001800264c8     CctSweptCapsule.obj
 0002:000034d0       $unwind$??_GSweptCapsule@Cct@physx@@UEAAPEAXI@Z 00000001800264d0     CctSweptCapsule.obj
 0002:000034dc       $unwind$??_GSweptVolume@Cct@physx@@UEAAPEAXI@Z 00000001800264dc     CctSweptVolume.obj
 0002:000034e4       $unwind$?computeTemporalBox@Cct@physx@@YAXAEAUPxExtendedBounds3@2@MMMMAEBVPxVec3@2@AEBUPxExtendedVec3@2@1@Z 00000001800264e4     CctSweptVolume.obj
 0002:00003518       $unwind$??1PxMeshOverlapUtil@physx@@QEAA@XZ 0000000180026518     PhysX3ExtensionsPROFILE:ExtTriangleMeshExt.obj
 0002:00003520       $unwind$?findOverlap@PxMeshOverlapUtil@physx@@QEAAIAEBVPxGeometry@2@AEBVPxTransform@2@AEBVPxTriangleMeshGeometry@2@1@Z 0000000180026520     PhysX3ExtensionsPROFILE:ExtTriangleMeshExt.obj
 0002:00003534       $chain$0$?findOverlap@PxMeshOverlapUtil@physx@@QEAAIAEBVPxGeometry@2@AEBVPxTransform@2@AEBVPxTriangleMeshGeometry@2@1@Z 0000000180026534     PhysX3ExtensionsPROFILE:ExtTriangleMeshExt.obj
 0002:00003548       $chain$1$?findOverlap@PxMeshOverlapUtil@physx@@QEAAIAEBVPxGeometry@2@AEBVPxTransform@2@AEBVPxTriangleMeshGeometry@2@1@Z 0000000180026548     PhysX3ExtensionsPROFILE:ExtTriangleMeshExt.obj
 0002:00003558       $unwind$?findOverlap@PxMeshOverlapUtil@physx@@QEAAIAEBVPxGeometry@2@AEBVPxTransform@2@AEBVPxHeightFieldGeometry@2@1@Z 0000000180026558     PhysX3ExtensionsPROFILE:ExtTriangleMeshExt.obj
 0002:00003574       $unwind$?PxComputeMeshPenetration@physx@@YA?AVPxVec3@1@IAEBVPxGeometry@1@AEBVPxTransform@1@AEBVPxTriangleMeshGeometry@1@1AEAI@Z 0000000180026574     PhysX3ExtensionsPROFILE:ExtTriangleMeshExt.obj
 0002:0000357c       $unwind$?PxComputeHeightFieldPenetration@physx@@YA?AVPxVec3@1@IAEBVPxGeometry@1@AEBVPxTransform@1@AEBVPxHeightFieldGeometry@1@1AEAI@Z 000000018002657c     PhysX3ExtensionsPROFILE:ExtTriangleMeshExt.obj
 0002:00003584       $unwind$??$computeMeshPenetrationT@VPxTriangleMeshGeometry@physx@@@?A0x05e637a1@@YA_NAEAVPxVec3@physx@@AEAMAEBVPxGeometry@2@AEBVPxTransform@2@AEBVPxTriangleMeshGeometry@2@3IPEAI@Z 0000000180026584     PhysX3ExtensionsPROFILE:ExtTriangleMeshExt.obj
 0002:00003590       $chain$1$??$computeMeshPenetrationT@VPxTriangleMeshGeometry@physx@@@?A0x05e637a1@@YA_NAEAVPxVec3@physx@@AEAMAEBVPxGeometry@2@AEBVPxTransform@2@AEBVPxTriangleMeshGeometry@2@3IPEAI@Z 0000000180026590     PhysX3ExtensionsPROFILE:ExtTriangleMeshExt.obj
 0002:000035a8       $chain$3$??$computeMeshPenetrationT@VPxTriangleMeshGeometry@physx@@@?A0x05e637a1@@YA_NAEAVPxVec3@physx@@AEAMAEBVPxGeometry@2@AEBVPxTransform@2@AEBVPxTriangleMeshGeometry@2@3IPEAI@Z 00000001800265a8     PhysX3ExtensionsPROFILE:ExtTriangleMeshExt.obj
 0002:000035c0       $chain$5$??$computeMeshPenetrationT@VPxTriangleMeshGeometry@physx@@@?A0x05e637a1@@YA_NAEAVPxVec3@physx@@AEAMAEBVPxGeometry@2@AEBVPxTransform@2@AEBVPxTriangleMeshGeometry@2@3IPEAI@Z 00000001800265c0     PhysX3ExtensionsPROFILE:ExtTriangleMeshExt.obj
 0002:000035d8       $chain$6$??$computeMeshPenetrationT@VPxTriangleMeshGeometry@physx@@@?A0x05e637a1@@YA_NAEAVPxVec3@physx@@AEAMAEBVPxGeometry@2@AEBVPxTransform@2@AEBVPxTriangleMeshGeometry@2@3IPEAI@Z 00000001800265d8     PhysX3ExtensionsPROFILE:ExtTriangleMeshExt.obj
 0002:000035e8       $chain$7$??$computeMeshPenetrationT@VPxTriangleMeshGeometry@physx@@@?A0x05e637a1@@YA_NAEAVPxVec3@physx@@AEAMAEBVPxGeometry@2@AEBVPxTransform@2@AEBVPxTriangleMeshGeometry@2@3IPEAI@Z 00000001800265e8     PhysX3ExtensionsPROFILE:ExtTriangleMeshExt.obj
 0002:000035f8       $chain$8$??$computeMeshPenetrationT@VPxTriangleMeshGeometry@physx@@@?A0x05e637a1@@YA_NAEAVPxVec3@physx@@AEAMAEBVPxGeometry@2@AEBVPxTransform@2@AEBVPxTriangleMeshGeometry@2@3IPEAI@Z 00000001800265f8     PhysX3ExtensionsPROFILE:ExtTriangleMeshExt.obj
 0002:00003608       $unwind$??$computeMeshPenetrationT@VPxHeightFieldGeometry@physx@@@?A0x05e637a1@@YA_NAEAVPxVec3@physx@@AEAMAEBVPxGeometry@2@AEBVPxTransform@2@AEBVPxHeightFieldGeometry@2@3IPEAI@Z 0000000180026608     PhysX3ExtensionsPROFILE:ExtTriangleMeshExt.obj
 0002:00003614       $chain$1$??$computeMeshPenetrationT@VPxHeightFieldGeometry@physx@@@?A0x05e637a1@@YA_NAEAVPxVec3@physx@@AEAMAEBVPxGeometry@2@AEBVPxTransform@2@AEBVPxHeightFieldGeometry@2@3IPEAI@Z 0000000180026614     PhysX3ExtensionsPROFILE:ExtTriangleMeshExt.obj
 0002:0000362c       $chain$3$??$computeMeshPenetrationT@VPxHeightFieldGeometry@physx@@@?A0x05e637a1@@YA_NAEAVPxVec3@physx@@AEAMAEBVPxGeometry@2@AEBVPxTransform@2@AEBVPxHeightFieldGeometry@2@3IPEAI@Z 000000018002662c     PhysX3ExtensionsPROFILE:ExtTriangleMeshExt.obj
 0002:00003644       $chain$5$??$computeMeshPenetrationT@VPxHeightFieldGeometry@physx@@@?A0x05e637a1@@YA_NAEAVPxVec3@physx@@AEAMAEBVPxGeometry@2@AEBVPxTransform@2@AEBVPxHeightFieldGeometry@2@3IPEAI@Z 0000000180026644     PhysX3ExtensionsPROFILE:ExtTriangleMeshExt.obj
 0002:0000365c       $chain$6$??$computeMeshPenetrationT@VPxHeightFieldGeometry@physx@@@?A0x05e637a1@@YA_NAEAVPxVec3@physx@@AEAMAEBVPxGeometry@2@AEBVPxTransform@2@AEBVPxHeightFieldGeometry@2@3IPEAI@Z 000000018002665c     PhysX3ExtensionsPROFILE:ExtTriangleMeshExt.obj
 0002:0000366c       $chain$7$??$computeMeshPenetrationT@VPxHeightFieldGeometry@physx@@@?A0x05e637a1@@YA_NAEAVPxVec3@physx@@AEAMAEBVPxGeometry@2@AEBVPxTransform@2@AEBVPxHeightFieldGeometry@2@3IPEAI@Z 000000018002666c     PhysX3ExtensionsPROFILE:ExtTriangleMeshExt.obj
 0002:0000367c       $chain$8$??$computeMeshPenetrationT@VPxHeightFieldGeometry@physx@@@?A0x05e637a1@@YA_NAEAVPxVec3@physx@@AEAMAEBVPxGeometry@2@AEBVPxTransform@2@AEBVPxHeightFieldGeometry@2@3IPEAI@Z 000000018002667c     PhysX3ExtensionsPROFILE:ExtTriangleMeshExt.obj
 0002:0000368c       $unwind$?transformFast@PxBounds3@physx@@SA?AV12@AEBVPxTransform@2@AEBV12@@Z 000000018002668c     PhysX3ExtensionsPROFILE:ExtRigidBodyExt.obj
 0002:000036bc       $unwind$??_G?$PxHitCallback@UPxSweepHit@physx@@@physx@@UEAAPEAXI@Z 00000001800266bc     PhysX3ExtensionsPROFILE:ExtRigidBodyExt.obj
 0002:000036c4       $unwind$??_G?$PxHitBuffer@UPxSweepHit@physx@@@physx@@UEAAPEAXI@Z 00000001800266c4     PhysX3ExtensionsPROFILE:ExtRigidBodyExt.obj
 0002:000036cc       $unwind$??0PxMassProperties@physx@@QEAA@AEBVPxGeometry@1@@Z 00000001800266cc     PhysX3ExtensionsPROFILE:ExtRigidBodyExt.obj
 0002:000036e4       $chain$8$??0PxMassProperties@physx@@QEAA@AEBVPxGeometry@1@@Z 00000001800266e4     PhysX3ExtensionsPROFILE:ExtRigidBodyExt.obj
 0002:00003718       $chain$9$??0PxMassProperties@physx@@QEAA@AEBVPxGeometry@1@@Z 0000000180026718     PhysX3ExtensionsPROFILE:ExtRigidBodyExt.obj
 0002:00003728       $unwind$?scaleInertia@PxMassProperties@physx@@SA?AVPxMat33@2@AEBV32@AEBVPxQuat@2@AEBVPxVec3@2@@Z 0000000180026728     PhysX3ExtensionsPROFILE:ExtRigidBodyExt.obj
 0002:00003758       $unwind$?sum@PxMassProperties@physx@@SA?AV12@PEBV12@PEBVPxTransform@2@I@Z 0000000180026758     PhysX3ExtensionsPROFILE:ExtRigidBodyExt.obj
 0002:00003788       $unwind$?updateMassAndInertia@PxRigidBodyExt@physx@@SA_NAEAVPxRigidBody@2@PEBMIPEBVPxVec3@2@_N@Z 0000000180026788     PhysX3ExtensionsPROFILE:ExtRigidBodyExt.obj
 0002:00003790       $unwind$?updateMassAndInertia@PxRigidBodyExt@physx@@SA_NAEAVPxRigidBody@2@MPEBVPxVec3@2@_N@Z 0000000180026790     PhysX3ExtensionsPROFILE:ExtRigidBodyExt.obj
 0002:00003798       $unwind$?setMassAndUpdateInertia@PxRigidBodyExt@physx@@SA_NAEAVPxRigidBody@2@PEBMIPEBVPxVec3@2@_N@Z 0000000180026798     PhysX3ExtensionsPROFILE:ExtRigidBodyExt.obj
 0002:000037a0       $unwind$?setMassAndUpdateInertia@PxRigidBodyExt@physx@@SA_NAEAVPxRigidBody@2@MPEBVPxVec3@2@_N@Z 00000001800267a0     PhysX3ExtensionsPROFILE:ExtRigidBodyExt.obj
 0002:000037a8       $unwind$?computeMassPropertiesFromShapes@PxRigidBodyExt@physx@@SA?AVPxMassProperties@2@PEBQEBVPxShape@2@I@Z 00000001800267a8     PhysX3ExtensionsPROFILE:ExtRigidBodyExt.obj
 0002:000037b8       $chain$1$?computeMassPropertiesFromShapes@PxRigidBodyExt@physx@@SA?AVPxMassProperties@2@PEBQEBVPxShape@2@I@Z 00000001800267b8     PhysX3ExtensionsPROFILE:ExtRigidBodyExt.obj
 0002:000037d0       $chain$2$?computeMassPropertiesFromShapes@PxRigidBodyExt@physx@@SA?AVPxMassProperties@2@PEBQEBVPxShape@2@I@Z 00000001800267d0     PhysX3ExtensionsPROFILE:ExtRigidBodyExt.obj
 0002:000037e4       $chain$3$?computeMassPropertiesFromShapes@PxRigidBodyExt@physx@@SA?AVPxMassProperties@2@PEBQEBVPxShape@2@I@Z 00000001800267e4     PhysX3ExtensionsPROFILE:ExtRigidBodyExt.obj
 0002:000037f4       $chain$4$?computeMassPropertiesFromShapes@PxRigidBodyExt@physx@@SA?AVPxMassProperties@2@PEBQEBVPxShape@2@I@Z 00000001800267f4     PhysX3ExtensionsPROFILE:ExtRigidBodyExt.obj
 0002:00003804       $unwind$?addForceAtLocalPos@PxRigidBodyExt@physx@@SAXAEAVPxRigidBody@2@AEBVPxVec3@2@1W4Enum@PxForceMode@2@_N@Z 0000000180026804     PhysX3ExtensionsPROFILE:ExtRigidBodyExt.obj
 0002:00003838       $unwind$?addLocalForceAtPos@PxRigidBodyExt@physx@@SAXAEAVPxRigidBody@2@AEBVPxVec3@2@1W4Enum@PxForceMode@2@_N@Z 0000000180026838     PhysX3ExtensionsPROFILE:ExtRigidBodyExt.obj
 0002:0000386c       $unwind$?addLocalForceAtLocalPos@PxRigidBodyExt@physx@@SAXAEAVPxRigidBody@2@AEBVPxVec3@2@1W4Enum@PxForceMode@2@_N@Z 000000018002686c     PhysX3ExtensionsPROFILE:ExtRigidBodyExt.obj
 0002:000038a0       $unwind$?getVelocityAtPos@PxRigidBodyExt@physx@@SA?AVPxVec3@2@AEBVPxRigidBody@2@AEBV32@@Z 00000001800268a0     PhysX3ExtensionsPROFILE:ExtRigidBodyExt.obj
 0002:000038d0       $unwind$?getLocalVelocityAtLocalPos@PxRigidBodyExt@physx@@SA?AVPxVec3@2@AEBVPxRigidBody@2@AEBV32@@Z 00000001800268d0     PhysX3ExtensionsPROFILE:ExtRigidBodyExt.obj
 0002:0000390c       $unwind$?getVelocityAtOffset@PxRigidBodyExt@physx@@SA?AVPxVec3@2@AEBVPxRigidBody@2@AEBV32@@Z 000000018002690c     PhysX3ExtensionsPROFILE:ExtRigidBodyExt.obj
 0002:0000393c       $unwind$?linearSweepSingle@PxRigidBodyExt@physx@@SA_NAEAVPxRigidBody@2@AEAVPxScene@2@AEBVPxVec3@2@MV?$PxFlags@W4Enum@PxHitFlag@physx@@G@2@AEAUPxSweepHit@2@AEAIAEBUPxQueryFilterData@2@PEAVPxQueryFilterCallback@2@PEBUPxQueryCache@2@M@Z 000000018002693c     PhysX3ExtensionsPROFILE:ExtRigidBodyExt.obj
 0002:0000395c       $chain$8$?linearSweepSingle@PxRigidBodyExt@physx@@SA_NAEAVPxRigidBody@2@AEAVPxScene@2@AEBVPxVec3@2@MV?$PxFlags@W4Enum@PxHitFlag@physx@@G@2@AEAUPxSweepHit@2@AEAIAEBUPxQueryFilterData@2@PEAVPxQueryFilterCallback@2@PEBUPxQueryCache@2@M@Z 000000018002695c     PhysX3ExtensionsPROFILE:ExtRigidBodyExt.obj
 0002:00003990       $chain$9$?linearSweepSingle@PxRigidBodyExt@physx@@SA_NAEAVPxRigidBody@2@AEAVPxScene@2@AEBVPxVec3@2@MV?$PxFlags@W4Enum@PxHitFlag@physx@@G@2@AEAUPxSweepHit@2@AEAIAEBUPxQueryFilterData@2@PEAVPxQueryFilterCallback@2@PEBUPxQueryCache@2@M@Z 0000000180026990     PhysX3ExtensionsPROFILE:ExtRigidBodyExt.obj
 0002:000039a0       $unwind$?linearSweepMultiple@PxRigidBodyExt@physx@@SAIAEAVPxRigidBody@2@AEAVPxScene@2@AEBVPxVec3@2@MV?$PxFlags@W4Enum@PxHitFlag@physx@@G@2@PEAUPxSweepHit@2@PEAIIAEAU72@AEAHAEA_NAEBUPxQueryFilterData@2@PEAVPxQueryFilterCallback@2@PEBUPxQueryCache@2@M@Z 00000001800269a0     PhysX3ExtensionsPROFILE:ExtRigidBodyExt.obj
 0002:000039b8       $chain$10$?linearSweepMultiple@PxRigidBodyExt@physx@@SAIAEAVPxRigidBody@2@AEAVPxScene@2@AEBVPxVec3@2@MV?$PxFlags@W4Enum@PxHitFlag@physx@@G@2@PEAUPxSweepHit@2@PEAIIAEAU72@AEAHAEA_NAEBUPxQueryFilterData@2@PEAVPxQueryFilterCallback@2@PEBUPxQueryCache@2@M@Z 00000001800269b8     PhysX3ExtensionsPROFILE:ExtRigidBodyExt.obj
 0002:000039f4       $chain$11$?linearSweepMultiple@PxRigidBodyExt@physx@@SAIAEAVPxRigidBody@2@AEAVPxScene@2@AEBVPxVec3@2@MV?$PxFlags@W4Enum@PxHitFlag@physx@@G@2@PEAUPxSweepHit@2@PEAIIAEAU72@AEAHAEA_NAEBUPxQueryFilterData@2@PEAVPxQueryFilterCallback@2@PEBUPxQueryCache@2@M@Z 00000001800269f4     PhysX3ExtensionsPROFILE:ExtRigidBodyExt.obj
 0002:00003a04       $unwind$?computeVelocityDeltaFromImpulse@PxRigidBodyExt@physx@@SAXAEBVPxRigidBody@2@AEBVPxVec3@2@1AEAV42@2@Z 0000000180026a04     PhysX3ExtensionsPROFILE:ExtRigidBodyExt.obj
 0002:00003a3c       $unwind$?computeVelocityDeltaFromImpulse@PxRigidBodyExt@physx@@SAXAEBVPxRigidBody@2@AEBVPxTransform@2@AEBVPxVec3@2@2MMAEAV52@3@Z 0000000180026a3c     PhysX3ExtensionsPROFILE:ExtRigidBodyExt.obj
 0002:00003a74       $unwind$?computeLinearAngularImpulse@PxRigidBodyExt@physx@@SAXAEBVPxRigidBody@2@AEBVPxTransform@2@AEBVPxVec3@2@2MMAEAV52@3@Z 0000000180026a74     PhysX3ExtensionsPROFILE:ExtRigidBodyExt.obj
 0002:00003ab0       $unwind$?translate@InertiaTensorComputer@Ext@physx@@QEAAXAEBVPxVec3@3@@Z 0000000180026ab0     PhysX3ExtensionsPROFILE:ExtRigidBodyExt.obj
 0002:00003ab8       $chain$5$?translate@InertiaTensorComputer@Ext@physx@@QEAAXAEBVPxVec3@3@@Z 0000000180026ab8     PhysX3ExtensionsPROFILE:ExtRigidBodyExt.obj
 0002:00003ae0       $chain$9$?translate@InertiaTensorComputer@Ext@physx@@QEAAXAEBVPxVec3@3@@Z 0000000180026ae0     PhysX3ExtensionsPROFILE:ExtRigidBodyExt.obj
 0002:00003b00       $chain$10$?translate@InertiaTensorComputer@Ext@physx@@QEAAXAEBVPxVec3@3@@Z 0000000180026b00     PhysX3ExtensionsPROFILE:ExtRigidBodyExt.obj
 0002:00003b10       $chain$11$?translate@InertiaTensorComputer@Ext@physx@@QEAAXAEBVPxVec3@3@@Z 0000000180026b10     PhysX3ExtensionsPROFILE:ExtRigidBodyExt.obj
 0002:00003b20       $unwind$?setCapsule@InertiaTensorComputer@Ext@physx@@QEAAXHMM@Z 0000000180026b20     PhysX3ExtensionsPROFILE:ExtRigidBodyExt.obj
 0002:00003b30       $unwind$?rotate@InertiaTensorComputer@Ext@physx@@QEAAXAEBVPxMat33@3@@Z 0000000180026b30     PhysX3ExtensionsPROFILE:ExtRigidBodyExt.obj
 0002:00003b60       $unwind$?transform@InertiaTensorComputer@Ext@physx@@QEAAXAEBVPxTransform@3@@Z 0000000180026b60     PhysX3ExtensionsPROFILE:ExtRigidBodyExt.obj
 0002:00003b90       $unwind$?computeMassAndDiagInertia@@YA_NAEAVInertiaTensorComputer@Ext@physx@@AEAVPxVec3@3@AEAVPxQuat@3@AEAM1_NAEBVPxRigidBody@3@PEBD@Z 0000000180026b90     PhysX3ExtensionsPROFILE:ExtRigidBodyExt.obj
 0002:00003bb4       $chain$0$?computeMassAndDiagInertia@@YA_NAEAVInertiaTensorComputer@Ext@physx@@AEAVPxVec3@3@AEAVPxQuat@3@AEAM1_NAEBVPxRigidBody@3@PEBD@Z 0000000180026bb4     PhysX3ExtensionsPROFILE:ExtRigidBodyExt.obj
 0002:00003bc8       $chain$7$?computeMassAndDiagInertia@@YA_NAEAVInertiaTensorComputer@Ext@physx@@AEAVPxVec3@3@AEAVPxQuat@3@AEAM1_NAEBVPxRigidBody@3@PEBD@Z 0000000180026bc8     PhysX3ExtensionsPROFILE:ExtRigidBodyExt.obj
 0002:00003bf4       $chain$8$?computeMassAndDiagInertia@@YA_NAEAVInertiaTensorComputer@Ext@physx@@AEAVPxVec3@3@AEAVPxQuat@3@AEAM1_NAEBVPxRigidBody@3@PEBD@Z 0000000180026bf4     PhysX3ExtensionsPROFILE:ExtRigidBodyExt.obj
 0002:00003c04       $chain$9$?computeMassAndDiagInertia@@YA_NAEAVInertiaTensorComputer@Ext@physx@@AEAVPxVec3@3@AEAVPxQuat@3@AEAM1_NAEBVPxRigidBody@3@PEBD@Z 0000000180026c04     PhysX3ExtensionsPROFILE:ExtRigidBodyExt.obj
 0002:00003c14       $unwind$?computeMassAndInertia@@YA_N_NAEAVPxRigidBody@physx@@PEBM2I0AEAVInertiaTensorComputer@Ext@2@@Z 0000000180026c14     PhysX3ExtensionsPROFILE:ExtRigidBodyExt.obj
 0002:00003c24       $chain$14$?computeMassAndInertia@@YA_N_NAEAVPxRigidBody@physx@@PEBM2I0AEAVInertiaTensorComputer@Ext@2@@Z 0000000180026c24     PhysX3ExtensionsPROFILE:ExtRigidBodyExt.obj
 0002:00003c70       $chain$15$?computeMassAndInertia@@YA_N_NAEAVPxRigidBody@physx@@PEBM2I0AEAVInertiaTensorComputer@Ext@2@@Z 0000000180026c70     PhysX3ExtensionsPROFILE:ExtRigidBodyExt.obj
 0002:00003c80       $unwind$?resize@?$Array@PEAVPxShape@physx@@V?$InlineAllocator@$0IA@V?$ReflectionAllocator@PEAVPxShape@physx@@@shdfnd@physx@@@shdfnd@2@@shdfnd@physx@@QEAAXIAEBQEAVPxShape@3@@Z 0000000180026c80     PhysX3ExtensionsPROFILE:ExtRigidBodyExt.obj
 0002:00003c94       $unwind$?allocate@?$Array@PEAVPxShape@physx@@V?$InlineAllocator@$0IA@V?$ReflectionAllocator@PEAVPxShape@physx@@@shdfnd@physx@@@shdfnd@2@@shdfnd@physx@@IEAAPEAPEAVPxShape@3@I@Z 0000000180026c94     PhysX3ExtensionsPROFILE:ExtRigidBodyExt.obj
 0002:00003c9c       $chain$1$?allocate@?$Array@PEAVPxShape@physx@@V?$InlineAllocator@$0IA@V?$ReflectionAllocator@PEAVPxShape@physx@@@shdfnd@physx@@@shdfnd@2@@shdfnd@physx@@IEAAPEAPEAVPxShape@3@I@Z 0000000180026c9c     PhysX3ExtensionsPROFILE:ExtRigidBodyExt.obj
 0002:00003cb4       $chain$3$?allocate@?$Array@PEAVPxShape@physx@@V?$InlineAllocator@$0IA@V?$ReflectionAllocator@PEAVPxShape@physx@@@shdfnd@physx@@@shdfnd@2@@shdfnd@physx@@IEAAPEAPEAVPxShape@3@I@Z 0000000180026cb4     PhysX3ExtensionsPROFILE:ExtRigidBodyExt.obj
 0002:00003cc8       $chain$4$?allocate@?$Array@PEAVPxShape@physx@@V?$InlineAllocator@$0IA@V?$ReflectionAllocator@PEAVPxShape@physx@@@shdfnd@physx@@@shdfnd@2@@shdfnd@physx@@IEAAPEAPEAVPxShape@3@I@Z 0000000180026cc8     PhysX3ExtensionsPROFILE:ExtRigidBodyExt.obj
 0002:00003cd8       $unwind$?recreate@?$Array@PEAVPxShape@physx@@V?$InlineAllocator@$0IA@V?$ReflectionAllocator@PEAVPxShape@physx@@@shdfnd@physx@@@shdfnd@2@@shdfnd@physx@@IEAAXI@Z 0000000180026cd8     PhysX3ExtensionsPROFILE:ExtRigidBodyExt.obj
 0002:00003cec       $unwind$?updateMassAndInertia@@YA_N_NAEAVPxRigidBody@physx@@PEBMIPEBVPxVec3@2@0@Z 0000000180026cec     PhysX3ExtensionsPROFILE:ExtRigidBodyExt.obj
 0002:00003d04       $unwind$?setMassAndUpdateInertia@@YA_N_NAEAVPxRigidBody@physx@@PEBMIPEBVPxVec3@2@0@Z 0000000180026d04     PhysX3ExtensionsPROFILE:ExtRigidBodyExt.obj
 0002:00003d34       $unwind$?allocate@?$Array@VPxMassProperties@physx@@V?$InlineAllocator@$0DEA@V?$ReflectionAllocator@VPxMassProperties@physx@@@shdfnd@physx@@@shdfnd@2@@shdfnd@physx@@IEAAPEAVPxMassProperties@3@I@Z 0000000180026d34     PhysX3ExtensionsPROFILE:ExtRigidBodyExt.obj
 0002:00003d3c       $chain$1$?allocate@?$Array@VPxMassProperties@physx@@V?$InlineAllocator@$0DEA@V?$ReflectionAllocator@VPxMassProperties@physx@@@shdfnd@physx@@@shdfnd@2@@shdfnd@physx@@IEAAPEAVPxMassProperties@3@I@Z 0000000180026d3c     PhysX3ExtensionsPROFILE:ExtRigidBodyExt.obj
 0002:00003d54       $chain$3$?allocate@?$Array@VPxMassProperties@physx@@V?$InlineAllocator@$0DEA@V?$ReflectionAllocator@VPxMassProperties@physx@@@shdfnd@physx@@@shdfnd@2@@shdfnd@physx@@IEAAPEAVPxMassProperties@3@I@Z 0000000180026d54     PhysX3ExtensionsPROFILE:ExtRigidBodyExt.obj
 0002:00003d68       $chain$4$?allocate@?$Array@VPxMassProperties@physx@@V?$InlineAllocator@$0DEA@V?$ReflectionAllocator@VPxMassProperties@physx@@@shdfnd@physx@@@shdfnd@2@@shdfnd@physx@@IEAAPEAVPxMassProperties@3@I@Z 0000000180026d68     PhysX3ExtensionsPROFILE:ExtRigidBodyExt.obj
 0002:00003d78       $unwind$?growAndPushBack@?$Array@VPxMassProperties@physx@@V?$InlineAllocator@$0DEA@V?$ReflectionAllocator@VPxMassProperties@physx@@@shdfnd@physx@@@shdfnd@2@@shdfnd@physx@@IEAAAEAVPxMassProperties@3@AEBV43@@Z 0000000180026d78     PhysX3ExtensionsPROFILE:ExtRigidBodyExt.obj
 0002:00003d8c       $unwind$?recreate@?$Array@VPxMassProperties@physx@@V?$InlineAllocator@$0DEA@V?$ReflectionAllocator@VPxMassProperties@physx@@@shdfnd@physx@@@shdfnd@2@@shdfnd@physx@@IEAAXI@Z 0000000180026d8c     PhysX3ExtensionsPROFILE:ExtRigidBodyExt.obj
 0002:00003da0       $unwind$?allocate@?$Array@VPxTransform@physx@@V?$InlineAllocator@$0BMA@V?$ReflectionAllocator@VPxTransform@physx@@@shdfnd@physx@@@shdfnd@2@@shdfnd@physx@@IEAAPEAVPxTransform@3@I@Z 0000000180026da0     PhysX3ExtensionsPROFILE:ExtRigidBodyExt.obj
 0002:00003da8       $chain$1$?allocate@?$Array@VPxTransform@physx@@V?$InlineAllocator@$0BMA@V?$ReflectionAllocator@VPxTransform@physx@@@shdfnd@physx@@@shdfnd@2@@shdfnd@physx@@IEAAPEAVPxTransform@3@I@Z 0000000180026da8     PhysX3ExtensionsPROFILE:ExtRigidBodyExt.obj
 0002:00003dc0       $chain$3$?allocate@?$Array@VPxTransform@physx@@V?$InlineAllocator@$0BMA@V?$ReflectionAllocator@VPxTransform@physx@@@shdfnd@physx@@@shdfnd@2@@shdfnd@physx@@IEAAPEAVPxTransform@3@I@Z 0000000180026dc0     PhysX3ExtensionsPROFILE:ExtRigidBodyExt.obj
 0002:00003dd4       $chain$4$?allocate@?$Array@VPxTransform@physx@@V?$InlineAllocator@$0BMA@V?$ReflectionAllocator@VPxTransform@physx@@@shdfnd@physx@@@shdfnd@2@@shdfnd@physx@@IEAAPEAVPxTransform@3@I@Z 0000000180026dd4     PhysX3ExtensionsPROFILE:ExtRigidBodyExt.obj
 0002:00003de4       $unwind$?growAndPushBack@?$Array@VPxTransform@physx@@V?$InlineAllocator@$0BMA@V?$ReflectionAllocator@VPxTransform@physx@@@shdfnd@physx@@@shdfnd@2@@shdfnd@physx@@IEAAAEAVPxTransform@3@AEBV43@@Z 0000000180026de4     PhysX3ExtensionsPROFILE:ExtRigidBodyExt.obj
 0002:00003df8       $unwind$?recreate@?$Array@VPxTransform@physx@@V?$InlineAllocator@$0BMA@V?$ReflectionAllocator@VPxTransform@physx@@@shdfnd@physx@@@shdfnd@2@@shdfnd@physx@@IEAAXI@Z 0000000180026df8     PhysX3ExtensionsPROFILE:ExtRigidBodyExt.obj
 0002:00003e0c       $unwind$?addForceAtPosInternal@@YAXAEAVPxRigidBody@physx@@AEBVPxVec3@2@1W4Enum@PxForceMode@2@_N@Z 0000000180026e0c     PhysX3ExtensionsPROFILE:ExtRigidBodyExt.obj
 0002:00003e24       $chain$8$?addForceAtPosInternal@@YAXAEAVPxRigidBody@physx@@AEBVPxVec3@2@1W4Enum@PxForceMode@2@_N@Z 0000000180026e24     PhysX3ExtensionsPROFILE:ExtRigidBodyExt.obj
 0002:00003e58       $chain$9$?addForceAtPosInternal@@YAXAEAVPxRigidBody@physx@@AEBVPxVec3@2@1W4Enum@PxForceMode@2@_N@Z 0000000180026e58     PhysX3ExtensionsPROFILE:ExtRigidBodyExt.obj
 0002:00003e68       $unwind$?getVelocityAtPosInternal@@YA?AVPxVec3@physx@@AEBVPxRigidBody@2@AEBV12@@Z 0000000180026e68     PhysX3ExtensionsPROFILE:ExtRigidBodyExt.obj
 0002:00003e84       $unwind$??_Gtype_info@@UEAAPEAXI@Z 0000000180026e84     MSVCRT:std_type_info_static.obj
 0002:00003e90       $xdatasym                  0000000180026e90     MSVCRT:chkstk.obj
 0002:00003e98       $unwind$?dllmain_crt_process_attach@@YAHQEAUHINSTANCE__@@QEAX@Z 0000000180026e98     MSVCRT:dll_dllmain.obj
 0002:00003ed4       $unwind$?fin$0@?0??dllmain_crt_process_attach@@YAHQEAUHINSTANCE__@@QEAX@Z@4HA 0000000180026ed4     MSVCRT:dll_dllmain.obj
 0002:00003edc       $unwind$?dllmain_crt_process_detach@@YAH_N@Z 0000000180026edc     MSVCRT:dll_dllmain.obj
 0002:00003f14       $unwind$?fin$0@?0??dllmain_crt_process_detach@@YAH_N@Z@4HA 0000000180026f14     MSVCRT:dll_dllmain.obj
 0002:00003f1c       $unwind$?dllmain_crt_dispatch@@YAHQEAUHINSTANCE__@@KQEAX@Z 0000000180026f1c     MSVCRT:dll_dllmain.obj
 0002:00003f24       $unwind$?dllmain_dispatch@@YAHQEAUHINSTANCE__@@KQEAX@Z 0000000180026f24     MSVCRT:dll_dllmain.obj
 0002:00003f4c       $unwind$?filt$0@?0??dllmain_dispatch@@YAHQEAUHINSTANCE__@@KQEAX@Z@4HA 0000000180026f4c     MSVCRT:dll_dllmain.obj
 0002:00003f54       $unwind$_DllMainCRTStartup 0000000180026f54     MSVCRT:dll_dllmain.obj
 0002:00003f64       $unwind$__security_init_cookie 0000000180026f64     MSVCRT:gs_support.obj
 0002:00003f70       $unwind$__get_entropy      0000000180026f70     MSVCRT:gs_support.obj
 0002:00003f78       $unwind$DllMain            0000000180026f78     MSVCRT:dll_dllmain_stub.obj
 0002:00003f80       $unwind$__scrt_initialize_default_local_stdio_options 0000000180026f80     MSVCRT:default_local_stdio_options.obj
 0002:00003f88       $unwind$atexit             0000000180026f88     MSVCRT:utility.obj
 0002:00003f90       $unwind$_onexit            0000000180026f90     MSVCRT:utility.obj
 0002:00003f98       $unwind$__scrt_is_nonwritable_in_current_image 0000000180026f98     MSVCRT:utility.obj
 0002:00003fb8       $unwind$__scrt_is_nonwritable_in_current_image$filt$0 0000000180026fb8     MSVCRT:utility.obj
 0002:00003fc0       $unwind$__scrt_acquire_startup_lock 0000000180026fc0     MSVCRT:utility.obj
 0002:00003fc8       $unwind$__scrt_release_startup_lock 0000000180026fc8     MSVCRT:utility.obj
 0002:00003fd0       $unwind$__scrt_initialize_crt 0000000180026fd0     MSVCRT:utility.obj
 0002:00003fd8       $unwind$__scrt_uninitialize_crt 0000000180026fd8     MSVCRT:utility.obj
 0002:00003fe0       $unwind$__scrt_initialize_onexit_tables 0000000180026fe0     MSVCRT:utility.obj
 0002:00003fe8       $unwind$__scrt_dllmain_exception_filter 0000000180026fe8     MSVCRT:utility.obj
 0002:00003ffc       $unwind$__scrt_dllmain_before_initialize_c 0000000180026ffc     MSVCRT:utility.obj
 0002:00004004       $unwind$__scrt_dllmain_after_initialize_c 0000000180027004     MSVCRT:utility.obj
 0002:0000400c       $unwind$__scrt_dllmain_uninitialize_c 000000018002700c     MSVCRT:utility.obj
 0002:00004014       $unwind$__scrt_dllmain_uninitialize_critical 0000000180027014     MSVCRT:utility.obj
 0002:0000401c       $unwind$__scrt_dllmain_crt_thread_attach 000000018002701c     MSVCRT:utility.obj
 0002:00004024       $unwind$__scrt_dllmain_crt_thread_detach 0000000180027024     MSVCRT:utility.obj
 0002:0000402c       $unwind$?configure_argv@__scrt_narrow_argv_policy@@SAHXZ 000000018002702c     MSVCRT:utility.obj
 0002:00004034       $unwind$__scrt_get_show_window_mode 0000000180027034     MSVCRT:utility_desktop.obj
 0002:0000403c       $unwind$__scrt_is_managed_app 000000018002703c     MSVCRT:utility_desktop.obj
 0002:00004044       $unwind$__scrt_fastfail    0000000180027044     MSVCRT:utility_desktop.obj
 0002:00004054       $unwind$__scrt_unhandled_exception_filter 0000000180027054     MSVCRT:utility_desktop.obj
 0002:0000405c       $unwind$_RTC_Initialize    000000018002705c     MSVCRT:initsect.obj
 0002:00004068       $unwind$_RTC_Terminate     0000000180027068     MSVCRT:initsect.obj
 0002:00004074       $unwind$__isa_available_init 0000000180027074     MSVCRT:cpu_disp.obj
 0002:00004088       $xdatasym                  0000000180027088     MSVCRT:guard_dispatch.obj
 0002:00004090       .edata                     0000000180027090     PhysX3CharacterKinematicPROFILE_x64.exp
 0002:000040b8       rgpv                       00000001800270b8     PhysX3CharacterKinematicPROFILE_x64.exp
 0002:0000412c       rgszName                   000000018002712c     PhysX3CharacterKinematicPROFILE_x64.exp
 0002:000041a0       rgwOrd                     00000001800271a0     PhysX3CharacterKinematicPROFILE_x64.exp
 0002:000041da       szName                     00000001800271da     PhysX3CharacterKinematicPROFILE_x64.exp
 0002:00004202       $N00001                    0000000180027202     PhysX3CharacterKinematicPROFILE_x64.exp
 0002:00004229       $N00002                    0000000180027229     PhysX3CharacterKinematicPROFILE_x64.exp
 0002:0000424f       $N00003                    000000018002724f     PhysX3CharacterKinematicPROFILE_x64.exp
 0002:0000427c       $N00004                    000000018002727c     PhysX3CharacterKinematicPROFILE_x64.exp
 0002:000042a2       $N00005                    00000001800272a2     PhysX3CharacterKinematicPROFILE_x64.exp
 0002:000042c1       $N00006                    00000001800272c1     PhysX3CharacterKinematicPROFILE_x64.exp
 0002:000042e7       $N00007                    00000001800272e7     PhysX3CharacterKinematicPROFILE_x64.exp
 0002:00004306       $N00008                    0000000180027306     PhysX3CharacterKinematicPROFILE_x64.exp
 0002:0000433a       $N00009                    000000018002733a     PhysX3CharacterKinematicPROFILE_x64.exp
 0002:0000436c       $N00010                    000000018002736c     PhysX3CharacterKinematicPROFILE_x64.exp
 0002:0000439d       $N00011                    000000018002739d     PhysX3CharacterKinematicPROFILE_x64.exp
 0002:000043cf       $N00012                    00000001800273cf     PhysX3CharacterKinematicPROFILE_x64.exp
 0002:00004402       $N00013                    0000000180027402     PhysX3CharacterKinematicPROFILE_x64.exp
 0002:0000442e       $N00014                    000000018002742e     PhysX3CharacterKinematicPROFILE_x64.exp
 0002:00004451       $N00015                    0000000180027451     PhysX3CharacterKinematicPROFILE_x64.exp
 0002:0000446d       $N00016                    000000018002746d     PhysX3CharacterKinematicPROFILE_x64.exp
 0002:00004491       $N00017                    0000000180027491     PhysX3CharacterKinematicPROFILE_x64.exp
 0002:000044d9       $N00018                    00000001800274d9     PhysX3CharacterKinematicPROFILE_x64.exp
 0002:00004529       $N00019                    0000000180027529     PhysX3CharacterKinematicPROFILE_x64.exp
 0002:00004571       $N00020                    0000000180027571     PhysX3CharacterKinematicPROFILE_x64.exp
 0002:000045b7       $N00021                    00000001800275b7     PhysX3CharacterKinematicPROFILE_x64.exp
 0002:00004607       $N00022                    0000000180027607     PhysX3CharacterKinematicPROFILE_x64.exp
 0002:000046b6       $N00023                    00000001800276b6     PhysX3CharacterKinematicPROFILE_x64.exp
 0002:00004714       $N00024                    0000000180027714     PhysX3CharacterKinematicPROFILE_x64.exp
 0002:00004750       $N00025                    0000000180027750     PhysX3CharacterKinematicPROFILE_x64.exp
 0002:000047ca       $N00026                    00000001800277ca     PhysX3CharacterKinematicPROFILE_x64.exp
 0002:00004827       $N00027                    0000000180027827     PhysX3CharacterKinematicPROFILE_x64.exp
 0002:0000486c       $N00028                    000000018002786c     PhysX3CharacterKinematicPROFILE_x64.exp
 0002:000048a9       $N00029                    00000001800278a9     PhysX3CharacterKinematicPROFILE_x64.exp
 0002:00004e58       .idata$6                   0000000180027e58     PxFoundationPROFILE_x64:PxFoundationPROFILE_x64.dll
 0002:0000561e       .idata$6                   000000018002861e     PhysX3CommonPROFILE_x64:PhysX3CommonPROFILE_x64.dll
 0002:000056aa       .idata$6                   00000001800286aa     vcruntime:VCRUNTIME140.dll
 0002:000057c2       .idata$6                   00000001800287c2     ucrt:api-ms-win-crt-math-l1-1-0.dll
 0002:000057e2       .idata$6                   00000001800287e2     ucrt:api-ms-win-crt-runtime-l1-1-0.dll
 0002:00005804       .idata$6                   0000000180028804     ucrt:api-ms-win-crt-heap-l1-1-0.dll
 0002:00005988       .idata$6                   0000000180028988     kernel32:KERNEL32.dll
 0003:00000000       ?gSweepMap@@3PAY05P6A_NPEBVSweepTest@Cct@physx@@PEBVSweptVolume@23@PEBUTouchedGeom@23@AEBUPxExtendedVec3@3@AEBVPxVec3@3@AEAUSweptContact@23@@ZA 0000000180029000     CctCharacterController.obj
 0003:00000500       ?maxV3Error@_VecMathTests@aos@shdfnd@physx@@3T__m128@@B 0000000180029500     CctCharacterControllerCallbacks.obj
 0003:00000510       ?minFError@_VecMathTests@aos@shdfnd@physx@@3T__m128@@B 0000000180029510     CctCharacterControllerCallbacks.obj
 0003:00000520       ?maxV4Error@_VecMathTests@aos@shdfnd@physx@@3T__m128@@B 0000000180029520     CctCharacterControllerCallbacks.obj
 0003:00000530       ?minV4Error@_VecMathTests@aos@shdfnd@physx@@3T__m128@@B 0000000180029530     CctCharacterControllerCallbacks.obj
 0003:00000540       ?minV3Error@_VecMathTests@aos@shdfnd@physx@@3T__m128@@B 0000000180029540     CctCharacterControllerCallbacks.obj
 0003:00000550       ?maxFError@_VecMathTests@aos@shdfnd@physx@@3T__m128@@B 0000000180029550     CctCharacterControllerCallbacks.obj
 0003:00000570       ?__proc_attached@@3HA      0000000180029570     MSVCRT:dll_dllmain.obj
 0003:00000598       ?is_initialized_as_dll@@3_NA 0000000180029598     MSVCRT:utility.obj
 0003:00000599       ?module_local_atexit_table_initialized@@3_NA 0000000180029599     MSVCRT:utility.obj
 0003:000005a0       ?module_local_atexit_table@@3U_onexit_table_t@@A 00000001800295a0     MSVCRT:utility.obj
 0003:000005b8       ?module_local_at_quick_exit_table@@3U_onexit_table_t@@A 00000001800295b8     MSVCRT:utility.obj
 0004:00000000       $pdata$??_H@YAXPEAX_K1P6APEAX0@Z@Z 000000018002a000     CctBoxController.obj
 0004:0000000c       $pdata$??_I@YAXPEAX_K1P6AX0@Z@Z 000000018002a00c     CctBoxController.obj
 0004:00000018       $pdata$??_GPxController@physx@@MEAAPEAXI@Z 000000018002a018     CctBoxController.obj
 0004:00000024       $pdata$??_GPxControllerManager@physx@@MEAAPEAXI@Z 000000018002a024     CctBoxController.obj
 0004:00000030       $pdata$??_EPxControllerManager@physx@@MEAAPEAXI@Z 000000018002a030     CctBoxController.obj
 0004:0000003c       $pdata$0$??_EPxControllerManager@physx@@MEAAPEAXI@Z 000000018002a03c     CctBoxController.obj
 0004:00000048       $pdata$1$??_EPxControllerManager@physx@@MEAAPEAXI@Z 000000018002a048     CctBoxController.obj
 0004:00000054       $pdata$??_GPxFoundation@physx@@MEAAPEAXI@Z 000000018002a054     CctBoxController.obj
 0004:00000060       $pdata$??_EPxFoundation@physx@@MEAAPEAXI@Z 000000018002a060     CctBoxController.obj
 0004:0000006c       $pdata$0$??_EPxFoundation@physx@@MEAAPEAXI@Z 000000018002a06c     CctBoxController.obj
 0004:00000078       $pdata$1$??_EPxFoundation@physx@@MEAAPEAXI@Z 000000018002a078     CctBoxController.obj
 0004:00000084       $pdata$??_GPxBoxController@physx@@MEAAPEAXI@Z 000000018002a084     CctBoxController.obj
 0004:00000090       $pdata$??0BoxController@Cct@physx@@QEAA@AEBVPxControllerDesc@2@AEAVPxPhysics@2@PEAVPxScene@2@@Z 000000018002a090     CctBoxController.obj
 0004:0000009c       $pdata$??1BoxController@Cct@physx@@UEAA@XZ 000000018002a09c     CctBoxController.obj
 0004:000000a8       $pdata$?getWorldBox@BoxController@Cct@physx@@UEBA_NAEAUPxExtendedBounds3@3@@Z 000000018002a0a8     CctBoxController.obj
 0004:000000b4       $pdata$?setFootPosition@BoxController@Cct@physx@@UEAA_NAEBUPxExtendedVec3@3@@Z 000000018002a0b4     CctBoxController.obj
 0004:000000c0       $pdata$?invalidateCache@BoxController@Cct@physx@@UEAAXXZ 000000018002a0c0     CctBoxController.obj
 0004:000000cc       $pdata$?resize@BoxController@Cct@physx@@UEAAXM@Z 000000018002a0cc     CctBoxController.obj
 0004:000000d8       $pdata$?updateKinematicProxy@BoxController@Cct@physx@@QEAA_NXZ 000000018002a0d8     CctBoxController.obj
 0004:000000e4       $pdata$0$?updateKinematicProxy@BoxController@Cct@physx@@QEAA_NXZ 000000018002a0e4     CctBoxController.obj
 0004:000000f0       $pdata$1$?updateKinematicProxy@BoxController@Cct@physx@@QEAA_NXZ 000000018002a0f0     CctBoxController.obj
 0004:000000fc       $pdata$?getOBB@BoxController@Cct@physx@@QEBAXAEAVPxExtendedBox@3@@Z 000000018002a0fc     CctBoxController.obj
 0004:00000108       $pdata$??_GBoxController@Cct@physx@@UEAAPEAXI@Z 000000018002a108     CctBoxController.obj
 0004:00000114       $pdata$??_GPxCapsuleController@physx@@MEAAPEAXI@Z 000000018002a114     CctCapsuleController.obj
 0004:00000120       $pdata$??0CapsuleController@Cct@physx@@QEAA@AEBVPxControllerDesc@2@AEAVPxPhysics@2@PEAVPxScene@2@@Z 000000018002a120     CctCapsuleController.obj
 0004:0000012c       $pdata$??1CapsuleController@Cct@physx@@UEAA@XZ 000000018002a12c     CctCapsuleController.obj
 0004:00000138       $pdata$?setFootPosition@CapsuleController@Cct@physx@@UEAA_NAEBUPxExtendedVec3@3@@Z 000000018002a138     CctCapsuleController.obj
 0004:00000144       $pdata$?invalidateCache@CapsuleController@Cct@physx@@UEAAXXZ 000000018002a144     CctCapsuleController.obj
 0004:00000150       $pdata$?resize@CapsuleController@Cct@physx@@UEAAXM@Z 000000018002a150     CctCapsuleController.obj
 0004:0000015c       $pdata$?setRadius@CapsuleController@Cct@physx@@UEAA_NM@Z 000000018002a15c     CctCapsuleController.obj
 0004:00000168       $pdata$0$?setRadius@CapsuleController@Cct@physx@@UEAA_NM@Z 000000018002a168     CctCapsuleController.obj
 0004:00000174       $pdata$1$?setRadius@CapsuleController@Cct@physx@@UEAA_NM@Z 000000018002a174     CctCapsuleController.obj
 0004:00000180       $pdata$?setHeight@CapsuleController@Cct@physx@@UEAA_NM@Z 000000018002a180     CctCapsuleController.obj
 0004:0000018c       $pdata$0$?setHeight@CapsuleController@Cct@physx@@UEAA_NM@Z 000000018002a18c     CctCapsuleController.obj
 0004:00000198       $pdata$1$?setHeight@CapsuleController@Cct@physx@@UEAA_NM@Z 000000018002a198     CctCapsuleController.obj
 0004:000001a4       $pdata$?getCapsule@CapsuleController@Cct@physx@@QEBAXAEAUPxExtendedCapsule@3@@Z 000000018002a1a4     CctCapsuleController.obj
 0004:000001b0       $pdata$??_GCapsuleController@Cct@physx@@UEAAPEAXI@Z 000000018002a1b0     CctCapsuleController.obj
 0004:000001bc       $pdata$??DPxQuat@physx@@QEBA?AV01@AEBV01@@Z 000000018002a1bc     CctCharacterController.obj
 0004:000001c8       $pdata$??_G?$PxHitCallback@UPxRaycastHit@physx@@@physx@@UEAAPEAXI@Z 000000018002a1c8     CctCharacterController.obj
 0004:000001d4       $pdata$??_G?$PxHitBuffer@UPxRaycastHit@physx@@@physx@@UEAAPEAXI@Z 000000018002a1d4     CctCharacterController.obj
 0004:000001e0       $pdata$??_GPxQueryFilterCallback@physx@@UEAAPEAXI@Z 000000018002a1e0     CctCharacterController.obj
 0004:000001ec       $pdata$?getShapeGlobalPose@physx@@YA?AVPxTransform@1@AEBVPxShape@1@AEBVPxRigidActor@1@@Z 000000018002a1ec     CctCharacterController.obj
 0004:000001f8       $pdata$?growAndPushBack@?$Array@PEBXV?$ReflectionAllocator@PEBX@shdfnd@physx@@@shdfnd@physx@@IEAAAEAPEBXAEBQEBX@Z 000000018002a1f8     CctCharacterController.obj
 0004:00000204       $pdata$0$?growAndPushBack@?$Array@PEBXV?$ReflectionAllocator@PEBX@shdfnd@physx@@@shdfnd@physx@@IEAAAEAPEBXAEBQEBX@Z 000000018002a204     CctCharacterController.obj
 0004:00000210       $pdata$1$?growAndPushBack@?$Array@PEBXV?$ReflectionAllocator@PEBX@shdfnd@physx@@@shdfnd@physx@@IEAAAEAPEBXAEBQEBX@Z 000000018002a210     CctCharacterController.obj
 0004:0000021c       $pdata$2$?growAndPushBack@?$Array@PEBXV?$ReflectionAllocator@PEBX@shdfnd@physx@@@shdfnd@physx@@IEAAAEAPEBXAEBQEBX@Z 000000018002a21c     CctCharacterController.obj
 0004:00000228       $pdata$3$?growAndPushBack@?$Array@PEBXV?$ReflectionAllocator@PEBX@shdfnd@physx@@@shdfnd@physx@@IEAAAEAPEBXAEBQEBX@Z 000000018002a228     CctCharacterController.obj
 0004:00000234       $pdata$?growAndPushBack@?$Array@VPxExtendedBox@physx@@V?$ReflectionAllocator@VPxExtendedBox@physx@@@shdfnd@2@@shdfnd@physx@@IEAAAEAVPxExtendedBox@3@AEBV43@@Z 000000018002a234     CctCharacterController.obj
 0004:00000240       $pdata$0$?growAndPushBack@?$Array@VPxExtendedBox@physx@@V?$ReflectionAllocator@VPxExtendedBox@physx@@@shdfnd@2@@shdfnd@physx@@IEAAAEAVPxExtendedBox@3@AEBV43@@Z 000000018002a240     CctCharacterController.obj
 0004:0000024c       $pdata$1$?growAndPushBack@?$Array@VPxExtendedBox@physx@@V?$ReflectionAllocator@VPxExtendedBox@physx@@@shdfnd@2@@shdfnd@physx@@IEAAAEAVPxExtendedBox@3@AEBV43@@Z 000000018002a24c     CctCharacterController.obj
 0004:00000258       $pdata$?growAndPushBack@?$Array@UPxExtendedCapsule@physx@@V?$ReflectionAllocator@UPxExtendedCapsule@physx@@@shdfnd@2@@shdfnd@physx@@IEAAAEAUPxExtendedCapsule@3@AEBU43@@Z 000000018002a258     CctCharacterController.obj
 0004:00000264       $pdata$0$?growAndPushBack@?$Array@UPxExtendedCapsule@physx@@V?$ReflectionAllocator@UPxExtendedCapsule@physx@@@shdfnd@2@@shdfnd@physx@@IEAAAEAUPxExtendedCapsule@3@AEBU43@@Z 000000018002a264     CctCharacterController.obj
 0004:00000270       $pdata$1$?growAndPushBack@?$Array@UPxExtendedCapsule@physx@@V?$ReflectionAllocator@UPxExtendedCapsule@physx@@@shdfnd@2@@shdfnd@physx@@IEAAAEAUPxExtendedCapsule@3@AEBU43@@Z 000000018002a270     CctCharacterController.obj
 0004:0000027c       $pdata$??1SweepTest@Cct@physx@@QEAA@XZ 000000018002a27c     CctCharacterController.obj
 0004:00000288       $pdata$?moveCharacter@SweepTest@Cct@physx@@QEAA?AV?$PxFlags@W4Enum@PxControllerCollisionFlag@physx@@E@3@PEBUInternalCBData_FindTouchedGeom@23@PEAUInternalCBData_OnHit@23@AEAVSweptVolume@23@AEBVPxVec3@3@AEBUUserObstacles@23@MAEBVPxControllerFilters@3@_N6AEAPEBVPxRigidActor@3@AEAPEBVPxShape@3@_K@Z 000000018002a288     CctCharacterController.obj
 0004:00000294       $pdata$2$?moveCharacter@SweepTest@Cct@physx@@QEAA?AV?$PxFlags@W4Enum@PxControllerCollisionFlag@physx@@E@3@PEBUInternalCBData_FindTouchedGeom@23@PEAUInternalCBData_OnHit@23@AEAVSweptVolume@23@AEBVPxVec3@3@AEBUUserObstacles@23@MAEBVPxControllerFilters@3@_N6AEAPEBVPxRigidActor@3@AEAPEBVPxShape@3@_K@Z 000000018002a294     CctCharacterController.obj
 0004:000002a0       $pdata$5$?moveCharacter@SweepTest@Cct@physx@@QEAA?AV?$PxFlags@W4Enum@PxControllerCollisionFlag@physx@@E@3@PEBUInternalCBData_FindTouchedGeom@23@PEAUInternalCBData_OnHit@23@AEAVSweptVolume@23@AEBVPxVec3@3@AEBUUserObstacles@23@MAEBVPxControllerFilters@3@_N6AEAPEBVPxRigidActor@3@AEAPEBVPxShape@3@_K@Z 000000018002a2a0     CctCharacterController.obj
 0004:000002ac       $pdata$6$?moveCharacter@SweepTest@Cct@physx@@QEAA?AV?$PxFlags@W4Enum@PxControllerCollisionFlag@physx@@E@3@PEBUInternalCBData_FindTouchedGeom@23@PEAUInternalCBData_OnHit@23@AEAVSweptVolume@23@AEBVPxVec3@3@AEBUUserObstacles@23@MAEBVPxControllerFilters@3@_N6AEAPEBVPxRigidActor@3@AEAPEBVPxShape@3@_K@Z 000000018002a2ac     CctCharacterController.obj
 0004:000002b8       $pdata$7$?moveCharacter@SweepTest@Cct@physx@@QEAA?AV?$PxFlags@W4Enum@PxControllerCollisionFlag@physx@@E@3@PEBUInternalCBData_FindTouchedGeom@23@PEAUInternalCBData_OnHit@23@AEAVSweptVolume@23@AEBVPxVec3@3@AEBUUserObstacles@23@MAEBVPxControllerFilters@3@_N6AEAPEBVPxRigidActor@3@AEAPEBVPxShape@3@_K@Z 000000018002a2b8     CctCharacterController.obj
 0004:000002c4       $pdata$8$?moveCharacter@SweepTest@Cct@physx@@QEAA?AV?$PxFlags@W4Enum@PxControllerCollisionFlag@physx@@E@3@PEBUInternalCBData_FindTouchedGeom@23@PEAUInternalCBData_OnHit@23@AEAVSweptVolume@23@AEBVPxVec3@3@AEBUUserObstacles@23@MAEBVPxControllerFilters@3@_N6AEAPEBVPxRigidActor@3@AEAPEBVPxShape@3@_K@Z 000000018002a2c4     CctCharacterController.obj
 0004:000002d0       $pdata$?doSweepTest@SweepTest@Cct@physx@@QEAA_NPEBUInternalCBData_FindTouchedGeom@23@PEAUInternalCBData_OnHit@23@AEBUUserObstacles@23@AEAVSweptVolume@23@AEBVPxVec3@3@4IPEAIMAEBVPxControllerFilters@3@W4SweepPass@23@AEAPEBVPxRigidActor@3@AEAPEBVPxShape@3@_K@Z 000000018002a2d0     CctCharacterController.obj
 0004:000002dc       $pdata$9$?doSweepTest@SweepTest@Cct@physx@@QEAA_NPEBUInternalCBData_FindTouchedGeom@23@PEAUInternalCBData_OnHit@23@AEBUUserObstacles@23@AEAVSweptVolume@23@AEBVPxVec3@3@4IPEAIMAEBVPxControllerFilters@3@W4SweepPass@23@AEAPEBVPxRigidActor@3@AEAPEBVPxShape@3@_K@Z 000000018002a2dc     CctCharacterController.obj
 0004:000002e8       $pdata$11$?doSweepTest@SweepTest@Cct@physx@@QEAA_NPEBUInternalCBData_FindTouchedGeom@23@PEAUInternalCBData_OnHit@23@AEBUUserObstacles@23@AEAVSweptVolume@23@AEBVPxVec3@3@4IPEAIMAEBVPxControllerFilters@3@W4SweepPass@23@AEAPEBVPxRigidActor@3@AEAPEBVPxShape@3@_K@Z 000000018002a2e8     CctCharacterController.obj
 0004:000002f4       $pdata$12$?doSweepTest@SweepTest@Cct@physx@@QEAA_NPEBUInternalCBData_FindTouchedGeom@23@PEAUInternalCBData_OnHit@23@AEBUUserObstacles@23@AEAVSweptVolume@23@AEBVPxVec3@3@4IPEAIMAEBVPxControllerFilters@3@W4SweepPass@23@AEAPEBVPxRigidActor@3@AEAPEBVPxShape@3@_K@Z 000000018002a2f4     CctCharacterController.obj
 0004:00000300       $pdata$13$?doSweepTest@SweepTest@Cct@physx@@QEAA_NPEBUInternalCBData_FindTouchedGeom@23@PEAUInternalCBData_OnHit@23@AEBUUserObstacles@23@AEAVSweptVolume@23@AEBVPxVec3@3@4IPEAIMAEBVPxControllerFilters@3@W4SweepPass@23@AEAPEBVPxRigidActor@3@AEAPEBVPxShape@3@_K@Z 000000018002a300     CctCharacterController.obj
 0004:0000030c       $pdata$?findTouchedObstacles@SweepTest@Cct@physx@@QEAAXAEBUUserObstacles@23@AEBUPxExtendedBounds3@3@@Z 000000018002a30c     CctCharacterController.obj
 0004:00000318       $pdata$2$?findTouchedObstacles@SweepTest@Cct@physx@@QEAAXAEBUUserObstacles@23@AEBUPxExtendedBounds3@3@@Z 000000018002a318     CctCharacterController.obj
 0004:00000324       $pdata$3$?findTouchedObstacles@SweepTest@Cct@physx@@QEAAXAEBUUserObstacles@23@AEBUPxExtendedBounds3@3@@Z 000000018002a324     CctCharacterController.obj
 0004:00000330       $pdata$4$?findTouchedObstacles@SweepTest@Cct@physx@@QEAAXAEBUUserObstacles@23@AEBUPxExtendedBounds3@3@@Z 000000018002a330     CctCharacterController.obj
 0004:0000033c       $pdata$5$?findTouchedObstacles@SweepTest@Cct@physx@@QEAAXAEBUUserObstacles@23@AEBUPxExtendedBounds3@3@@Z 000000018002a33c     CctCharacterController.obj
 0004:00000348       $pdata$?voidTestCache@SweepTest@Cct@physx@@QEAAXXZ 000000018002a348     CctCharacterController.obj
 0004:00000354       $pdata$?onRelease@SweepTest@Cct@physx@@QEAAXAEBVPxBase@3@@Z 000000018002a354     CctCharacterController.obj
 0004:00000360       $pdata$?updateCachedShapesRegistration@SweepTest@Cct@physx@@QEAAXI_N@Z 000000018002a360     CctCharacterController.obj
 0004:0000036c       $pdata$1$?updateCachedShapesRegistration@SweepTest@Cct@physx@@QEAAXI_N@Z 000000018002a36c     CctCharacterController.obj
 0004:00000378       $pdata$2$?updateCachedShapesRegistration@SweepTest@Cct@physx@@QEAAXI_N@Z 000000018002a378     CctCharacterController.obj
 0004:00000384       $pdata$3$?updateCachedShapesRegistration@SweepTest@Cct@physx@@QEAAXI_N@Z 000000018002a384     CctCharacterController.obj
 0004:00000390       $pdata$4$?updateCachedShapesRegistration@SweepTest@Cct@physx@@QEAAXI_N@Z 000000018002a390     CctCharacterController.obj
 0004:0000039c       $pdata$?onObstacleUpdated@SweepTest@Cct@physx@@QEAAXIPEBVPxObstacleContext@3@AEBVPxVec3@3@1M@Z 000000018002a39c     CctCharacterController.obj
 0004:000003a8       $pdata$?onObstacleAdded@SweepTest@Cct@physx@@QEAAXIPEBVPxObstacleContext@3@AEBVPxVec3@3@1M@Z 000000018002a3a8     CctCharacterController.obj
 0004:000003b4       $pdata$0$?onObstacleAdded@SweepTest@Cct@physx@@QEAAXIPEBVPxObstacleContext@3@AEBVPxVec3@3@1M@Z 000000018002a3b4     CctCharacterController.obj
 0004:000003c0       $pdata$3$?onObstacleAdded@SweepTest@Cct@physx@@QEAAXIPEBVPxObstacleContext@3@AEBVPxVec3@3@1M@Z 000000018002a3c0     CctCharacterController.obj
 0004:000003cc       $pdata$4$?onObstacleAdded@SweepTest@Cct@physx@@QEAAXIPEBVPxObstacleContext@3@AEBVPxVec3@3@1M@Z 000000018002a3cc     CctCharacterController.obj
 0004:000003d8       $pdata$5$?onObstacleAdded@SweepTest@Cct@physx@@QEAAXIPEBVPxObstacleContext@3@AEBVPxVec3@3@1M@Z 000000018002a3d8     CctCharacterController.obj
 0004:000003e4       $pdata$?updateTouchedGeoms@SweepTest@Cct@physx@@AEAAXPEBUInternalCBData_FindTouchedGeom@23@AEBUUserObstacles@23@AEBUPxExtendedBounds3@3@AEBVPxControllerFilters@3@AEBVPxVec3@3@@Z 000000018002a3e4     CctCharacterController.obj
 0004:000003f0       $pdata$2$?updateTouchedGeoms@SweepTest@Cct@physx@@AEAAXPEBUInternalCBData_FindTouchedGeom@23@AEBUUserObstacles@23@AEBUPxExtendedBounds3@3@AEBVPxControllerFilters@3@AEBVPxVec3@3@@Z 000000018002a3f0     CctCharacterController.obj
 0004:000003fc       $pdata$5$?updateTouchedGeoms@SweepTest@Cct@physx@@AEAAXPEBUInternalCBData_FindTouchedGeom@23@AEBUUserObstacles@23@AEBUPxExtendedBounds3@3@AEBVPxControllerFilters@3@AEBVPxVec3@3@@Z 000000018002a3fc     CctCharacterController.obj
 0004:00000408       $pdata$9$?updateTouchedGeoms@SweepTest@Cct@physx@@AEAAXPEBUInternalCBData_FindTouchedGeom@23@AEBUUserObstacles@23@AEBUPxExtendedBounds3@3@AEBVPxControllerFilters@3@AEBVPxVec3@3@@Z 000000018002a408     CctCharacterController.obj
 0004:00000414       $pdata$10$?updateTouchedGeoms@SweepTest@Cct@physx@@AEAAXPEBUInternalCBData_FindTouchedGeom@23@AEBUUserObstacles@23@AEBUPxExtendedBounds3@3@AEBVPxControllerFilters@3@AEBVPxVec3@3@@Z 000000018002a414     CctCharacterController.obj
 0004:00000420       $pdata$11$?updateTouchedGeoms@SweepTest@Cct@physx@@AEAAXPEBUInternalCBData_FindTouchedGeom@23@AEBUUserObstacles@23@AEBUPxExtendedBounds3@3@AEBVPxControllerFilters@3@AEBVPxVec3@3@@Z 000000018002a420     CctCharacterController.obj
 0004:0000042c       $pdata$12$?updateTouchedGeoms@SweepTest@Cct@physx@@AEAAXPEBUInternalCBData_FindTouchedGeom@23@AEBUUserObstacles@23@AEBUPxExtendedBounds3@3@AEBVPxControllerFilters@3@AEBVPxVec3@3@@Z 000000018002a42c     CctCharacterController.obj
 0004:00000438       $pdata$13$?updateTouchedGeoms@SweepTest@Cct@physx@@AEAAXPEBUInternalCBData_FindTouchedGeom@23@AEBUUserObstacles@23@AEBUPxExtendedBounds3@3@AEBVPxControllerFilters@3@AEBVPxVec3@3@@Z 000000018002a438     CctCharacterController.obj
 0004:00000444       $pdata$14$?updateTouchedGeoms@SweepTest@Cct@physx@@AEAAXPEBUInternalCBData_FindTouchedGeom@23@AEBUUserObstacles@23@AEBUPxExtendedBounds3@3@AEBVPxControllerFilters@3@AEBVPxVec3@3@@Z 000000018002a444     CctCharacterController.obj
 0004:00000450       $pdata$?findTouchedObject@Controller@Cct@physx@@IEAAXAEBVPxControllerFilters@3@PEBVPxObstacleContext@3@AEBVPxVec3@3@@Z 000000018002a450     CctCharacterController.obj
 0004:0000045c       $pdata$2$?findTouchedObject@Controller@Cct@physx@@IEAAXAEBVPxControllerFilters@3@PEBVPxObstacleContext@3@AEBVPxVec3@3@@Z 000000018002a45c     CctCharacterController.obj
 0004:00000468       $pdata$10$?findTouchedObject@Controller@Cct@physx@@IEAAXAEBVPxControllerFilters@3@PEBVPxObstacleContext@3@AEBVPxVec3@3@@Z 000000018002a468     CctCharacterController.obj
 0004:00000474       $pdata$11$?findTouchedObject@Controller@Cct@physx@@IEAAXAEBVPxControllerFilters@3@PEBVPxObstacleContext@3@AEBVPxVec3@3@@Z 000000018002a474     CctCharacterController.obj
 0004:00000480       $pdata$12$?findTouchedObject@Controller@Cct@physx@@IEAAXAEBVPxControllerFilters@3@PEBVPxObstacleContext@3@AEBVPxVec3@3@@Z 000000018002a480     CctCharacterController.obj
 0004:0000048c       $pdata$?rideOnTouchedObject@Controller@Cct@physx@@IEAA_NAEAVSweptVolume@23@AEBVPxVec3@3@AEAV53@PEBVPxObstacleContext@3@@Z 000000018002a48c     CctCharacterController.obj
 0004:00000498       $pdata$0$?rideOnTouchedObject@Controller@Cct@physx@@IEAA_NAEAVSweptVolume@23@AEBVPxVec3@3@AEAV53@PEBVPxObstacleContext@3@@Z 000000018002a498     CctCharacterController.obj
 0004:000004a4       $pdata$1$?rideOnTouchedObject@Controller@Cct@physx@@IEAA_NAEAVSweptVolume@23@AEBVPxVec3@3@AEAV53@PEBVPxObstacleContext@3@@Z 000000018002a4a4     CctCharacterController.obj
 0004:000004b0       $pdata$?move@Controller@Cct@physx@@IEAA?AV?$PxFlags@W4Enum@PxControllerCollisionFlag@physx@@E@3@AEAVSweptVolume@23@AEBVPxVec3@3@MMAEBVPxControllerFilters@3@PEBVPxObstacleContext@3@_N@Z 000000018002a4b0     CctCharacterController.obj
 0004:000004bc       $pdata$1$?move@Controller@Cct@physx@@IEAA?AV?$PxFlags@W4Enum@PxControllerCollisionFlag@physx@@E@3@AEAVSweptVolume@23@AEBVPxVec3@3@MMAEBVPxControllerFilters@3@PEBVPxObstacleContext@3@_N@Z 000000018002a4bc     CctCharacterController.obj
 0004:000004c8       $pdata$8$?move@Controller@Cct@physx@@IEAA?AV?$PxFlags@W4Enum@PxControllerCollisionFlag@physx@@E@3@AEAVSweptVolume@23@AEBVPxVec3@3@MMAEBVPxControllerFilters@3@PEBVPxObstacleContext@3@_N@Z 000000018002a4c8     CctCharacterController.obj
 0004:000004d4       $pdata$9$?move@Controller@Cct@physx@@IEAA?AV?$PxFlags@W4Enum@PxControllerCollisionFlag@physx@@E@3@AEAVSweptVolume@23@AEBVPxVec3@3@MMAEBVPxControllerFilters@3@PEBVPxObstacleContext@3@_N@Z 000000018002a4d4     CctCharacterController.obj
 0004:000004e0       $pdata$14$?move@Controller@Cct@physx@@IEAA?AV?$PxFlags@W4Enum@PxControllerCollisionFlag@physx@@E@3@AEAVSweptVolume@23@AEBVPxVec3@3@MMAEBVPxControllerFilters@3@PEBVPxObstacleContext@3@_N@Z 000000018002a4e0     CctCharacterController.obj
 0004:000004ec       $pdata$15$?move@Controller@Cct@physx@@IEAA?AV?$PxFlags@W4Enum@PxControllerCollisionFlag@physx@@E@3@AEAVSweptVolume@23@AEBVPxVec3@3@MMAEBVPxControllerFilters@3@PEBVPxObstacleContext@3@_N@Z 000000018002a4ec     CctCharacterController.obj
 0004:000004f8       $pdata$16$?move@Controller@Cct@physx@@IEAA?AV?$PxFlags@W4Enum@PxControllerCollisionFlag@physx@@E@3@AEAVSweptVolume@23@AEBVPxVec3@3@MMAEBVPxControllerFilters@3@PEBVPxObstacleContext@3@_N@Z 000000018002a4f8     CctCharacterController.obj
 0004:00000504       $pdata$17$?move@Controller@Cct@physx@@IEAA?AV?$PxFlags@W4Enum@PxControllerCollisionFlag@physx@@E@3@AEAVSweptVolume@23@AEBVPxVec3@3@MMAEBVPxControllerFilters@3@PEBVPxObstacleContext@3@_N@Z 000000018002a504     CctCharacterController.obj
 0004:00000510       $pdata$18$?move@Controller@Cct@physx@@IEAA?AV?$PxFlags@W4Enum@PxControllerCollisionFlag@physx@@E@3@AEAVSweptVolume@23@AEBVPxVec3@3@MMAEBVPxControllerFilters@3@PEBVPxObstacleContext@3@_N@Z 000000018002a510     CctCharacterController.obj
 0004:0000051c       $pdata$19$?move@Controller@Cct@physx@@IEAA?AV?$PxFlags@W4Enum@PxControllerCollisionFlag@physx@@E@3@AEAVSweptVolume@23@AEBVPxVec3@3@MMAEBVPxControllerFilters@3@PEBVPxObstacleContext@3@_N@Z 000000018002a51c     CctCharacterController.obj
 0004:00000528       $pdata$?filterTouchedShape@Controller@Cct@physx@@IEAA_NAEBVPxControllerFilters@3@@Z 000000018002a528     CctCharacterController.obj
 0004:00000534       $pdata$?SweepBoxUserBox@@YA_NPEBVSweepTest@Cct@physx@@PEBVSweptVolume@23@PEBUTouchedGeom@23@AEBUPxExtendedVec3@3@AEBVPxVec3@3@AEAUSweptContact@23@@Z 000000018002a534     CctCharacterController.obj
 0004:00000540       $pdata$?SweepBoxUserCapsule@@YA_NPEBVSweepTest@Cct@physx@@PEBVSweptVolume@23@PEBUTouchedGeom@23@AEBUPxExtendedVec3@3@AEBVPxVec3@3@AEAUSweptContact@23@@Z 000000018002a540     CctCharacterController.obj
 0004:0000054c       $pdata$?SweepBoxMesh@@YA_NPEBVSweepTest@Cct@physx@@PEBVSweptVolume@23@PEBUTouchedGeom@23@AEBUPxExtendedVec3@3@AEBVPxVec3@3@AEAUSweptContact@23@@Z 000000018002a54c     CctCharacterController.obj
 0004:00000558       $pdata$?SweepCapsuleMesh@@YA_NPEBVSweepTest@Cct@physx@@PEBVSweptVolume@23@PEBUTouchedGeom@23@AEBUPxExtendedVec3@3@AEBVPxVec3@3@AEAUSweptContact@23@@Z 000000018002a558     CctCharacterController.obj
 0004:00000564       $pdata$?SweepBoxBox@@YA_NPEBVSweepTest@Cct@physx@@PEBVSweptVolume@23@PEBUTouchedGeom@23@AEBUPxExtendedVec3@3@AEBVPxVec3@3@AEAUSweptContact@23@@Z 000000018002a564     CctCharacterController.obj
 0004:00000570       $pdata$?SweepBoxSphere@@YA_NPEBVSweepTest@Cct@physx@@PEBVSweptVolume@23@PEBUTouchedGeom@23@AEBUPxExtendedVec3@3@AEBVPxVec3@3@AEAUSweptContact@23@@Z 000000018002a570     CctCharacterController.obj
 0004:0000057c       $pdata$?SweepBoxCapsule@@YA_NPEBVSweepTest@Cct@physx@@PEBVSweptVolume@23@PEBUTouchedGeom@23@AEBUPxExtendedVec3@3@AEBVPxVec3@3@AEAUSweptContact@23@@Z 000000018002a57c     CctCharacterController.obj
 0004:00000588       $pdata$?SweepCapsuleBox@@YA_NPEBVSweepTest@Cct@physx@@PEBVSweptVolume@23@PEBUTouchedGeom@23@AEBUPxExtendedVec3@3@AEBVPxVec3@3@AEAUSweptContact@23@@Z 000000018002a588     CctCharacterController.obj
 0004:00000594       $pdata$?SweepCapsuleSphere@@YA_NPEBVSweepTest@Cct@physx@@PEBVSweptVolume@23@PEBUTouchedGeom@23@AEBUPxExtendedVec3@3@AEBVPxVec3@3@AEAUSweptContact@23@@Z 000000018002a594     CctCharacterController.obj
 0004:000005a0       $pdata$?SweepCapsuleCapsule@@YA_NPEBVSweepTest@Cct@physx@@PEBVSweptVolume@23@PEBUTouchedGeom@23@AEBUPxExtendedVec3@3@AEBVPxVec3@3@AEAUSweptContact@23@@Z 000000018002a5a0     CctCharacterController.obj
 0004:000005ac       $pdata$?SweepCapsuleUserCapsule@@YA_NPEBVSweepTest@Cct@physx@@PEBVSweptVolume@23@PEBUTouchedGeom@23@AEBUPxExtendedVec3@3@AEBVPxVec3@3@AEAUSweptContact@23@@Z 000000018002a5ac     CctCharacterController.obj
 0004:000005b8       $pdata$?SweepCapsuleUserBox@@YA_NPEBVSweepTest@Cct@physx@@PEBVSweptVolume@23@PEBUTouchedGeom@23@AEBUPxExtendedVec3@3@AEBVPxVec3@3@AEAUSweptContact@23@@Z 000000018002a5b8     CctCharacterController.obj
 0004:000005c4       $pdata$?move@BoxController@Cct@physx@@UEAA?AV?$PxFlags@W4Enum@PxControllerCollisionFlag@physx@@E@3@AEBVPxVec3@3@MMAEBVPxControllerFilters@3@PEBVPxObstacleContext@3@@Z 000000018002a5c4     CctCharacterController.obj
 0004:000005d0       $pdata$1$?move@BoxController@Cct@physx@@UEAA?AV?$PxFlags@W4Enum@PxControllerCollisionFlag@physx@@E@3@AEBVPxVec3@3@MMAEBVPxControllerFilters@3@PEBVPxObstacleContext@3@@Z 000000018002a5d0     CctCharacterController.obj
 0004:000005dc       $pdata$2$?move@BoxController@Cct@physx@@UEAA?AV?$PxFlags@W4Enum@PxControllerCollisionFlag@physx@@E@3@AEBVPxVec3@3@MMAEBVPxControllerFilters@3@PEBVPxObstacleContext@3@@Z 000000018002a5dc     CctCharacterController.obj
 0004:000005e8       $pdata$?move@CapsuleController@Cct@physx@@UEAA?AV?$PxFlags@W4Enum@PxControllerCollisionFlag@physx@@E@3@AEBVPxVec3@3@MMAEBVPxControllerFilters@3@PEBVPxObstacleContext@3@@Z 000000018002a5e8     CctCharacterController.obj
 0004:000005f4       $pdata$1$?move@CapsuleController@Cct@physx@@UEAA?AV?$PxFlags@W4Enum@PxControllerCollisionFlag@physx@@E@3@AEBVPxVec3@3@MMAEBVPxControllerFilters@3@PEBVPxObstacleContext@3@@Z 000000018002a5f4     CctCharacterController.obj
 0004:00000600       $pdata$2$?move@CapsuleController@Cct@physx@@UEAA?AV?$PxFlags@W4Enum@PxControllerCollisionFlag@physx@@E@3@AEBVPxVec3@3@MMAEBVPxControllerFilters@3@PEBVPxObstacleContext@3@@Z 000000018002a600     CctCharacterController.obj
 0004:0000060c       $pdata$?recreate@?$Array@IV?$ReflectionAllocator@I@shdfnd@physx@@@shdfnd@physx@@IEAAXI@Z 000000018002a60c     CctCharacterController.obj
 0004:00000618       $pdata$0$?recreate@?$Array@IV?$ReflectionAllocator@I@shdfnd@physx@@@shdfnd@physx@@IEAAXI@Z 000000018002a618     CctCharacterController.obj
 0004:00000624       $pdata$1$?recreate@?$Array@IV?$ReflectionAllocator@I@shdfnd@physx@@@shdfnd@physx@@IEAAXI@Z 000000018002a624     CctCharacterController.obj
 0004:00000630       $pdata$?worldToLocal@@YA?AVPxVec3@physx@@AEBVPxObstacle@2@AEBUPxExtendedVec3@2@@Z 000000018002a630     CctCharacterController.obj
 0004:0000063c       $pdata$?collisionResponse@@YAXAEAUPxExtendedVec3@physx@@AEBU12@AEBVPxVec3@2@2MM_N@Z 000000018002a63c     CctCharacterController.obj
 0004:00000648       $pdata$2$?collisionResponse@@YAXAEAUPxExtendedVec3@physx@@AEBU12@AEBVPxVec3@2@2MM_N@Z 000000018002a648     CctCharacterController.obj
 0004:00000654       $pdata$3$?collisionResponse@@YAXAEAUPxExtendedVec3@physx@@AEBU12@AEBVPxVec3@2@2MM_N@Z 000000018002a654     CctCharacterController.obj
 0004:00000660       $pdata$4$?collisionResponse@@YAXAEAUPxExtendedVec3@physx@@AEBU12@AEBVPxVec3@2@2MM_N@Z 000000018002a660     CctCharacterController.obj
 0004:0000066c       $pdata$5$?collisionResponse@@YAXAEAUPxExtendedVec3@physx@@AEBU12@AEBVPxVec3@2@2MM_N@Z 000000018002a66c     CctCharacterController.obj
 0004:00000678       $pdata$?sweepVolumeVsMesh@@YA_NPEBVSweepTest@Cct@physx@@PEBUTouchedMesh@23@AEAUSweptContact@23@AEBVPxVec3@3@AEBVPxGeometry@3@AEBVPxTransform@3@IPEBVPxTriangle@3@I@Z 000000018002a678     CctCharacterController.obj
 0004:00000684       $pdata$?computeMTD@@YA?AVPxVec3@physx@@PEBVSweepTest@Cct@2@AEBVSweptVolume@42@AEBV?$Array@IV?$ReflectionAllocator@I@shdfnd@physx@@@shdfnd@2@AEBUPxExtendedVec3@2@M@Z 000000018002a684     CctCharacterController.obj
 0004:00000690       $pdata$??$reserveContainerMemory@I@Cm@physx@@YAPEAIAEAV?$Array@IV?$ReflectionAllocator@I@shdfnd@physx@@@shdfnd@1@I@Z 000000018002a690     CctCharacterController.obj
 0004:0000069c       $pdata$?preFilter@ControllerFilter@@UEAA?AW4Enum@PxQueryHitType@physx@@AEBUPxFilterData@4@PEBVPxShape@4@PEBVPxRigidActor@4@AEAV?$PxFlags@W4Enum@PxHitFlag@physx@@G@4@@Z 000000018002a69c     CctCharacterController.obj
 0004:000006a8       $pdata$??_GControllerFilter@@UEAAPEAXI@Z 000000018002a6a8     CctCharacterController.obj
 0004:000006b4       $pdata$??_G?$PxHitCallback@UPxOverlapHit@physx@@@physx@@UEAAPEAXI@Z 000000018002a6b4     CctCharacterControllerCallbacks.obj
 0004:000006c0       $pdata$??_G?$PxHitBuffer@UPxOverlapHit@physx@@@physx@@UEAAPEAXI@Z 000000018002a6c0     CctCharacterControllerCallbacks.obj
 0004:000006cc       $pdata$?recreate@?$Array@VPxTriangle@physx@@V?$ReflectionAllocator@VPxTriangle@physx@@@shdfnd@2@@shdfnd@physx@@IEAAXI@Z 000000018002a6cc     CctCharacterControllerCallbacks.obj
 0004:000006d8       $pdata$0$?recreate@?$Array@VPxTriangle@physx@@V?$ReflectionAllocator@VPxTriangle@physx@@@shdfnd@2@@shdfnd@physx@@IEAAXI@Z 000000018002a6d8     CctCharacterControllerCallbacks.obj
 0004:000006e4       $pdata$1$?recreate@?$Array@VPxTriangle@physx@@V?$ReflectionAllocator@VPxTriangle@physx@@@shdfnd@2@@shdfnd@physx@@IEAAXI@Z 000000018002a6e4     CctCharacterControllerCallbacks.obj
 0004:000006f0       $pdata$2$?recreate@?$Array@VPxTriangle@physx@@V?$ReflectionAllocator@VPxTriangle@physx@@@shdfnd@2@@shdfnd@physx@@IEAAXI@Z 000000018002a6f0     CctCharacterControllerCallbacks.obj
 0004:000006fc       $pdata$3$?recreate@?$Array@VPxTriangle@physx@@V?$ReflectionAllocator@VPxTriangle@physx@@@shdfnd@2@@shdfnd@physx@@IEAAXI@Z 000000018002a6fc     CctCharacterControllerCallbacks.obj
 0004:00000708       $pdata$?allocate@?$Array@IV?$ReflectionAllocator@I@shdfnd@physx@@@shdfnd@physx@@IEAAPEAII@Z 000000018002a708     CctCharacterControllerCallbacks.obj
 0004:00000714       $pdata$1$?allocate@?$Array@IV?$ReflectionAllocator@I@shdfnd@physx@@@shdfnd@physx@@IEAAPEAII@Z 000000018002a714     CctCharacterControllerCallbacks.obj
 0004:00000720       $pdata$3$?allocate@?$Array@IV?$ReflectionAllocator@I@shdfnd@physx@@@shdfnd@physx@@IEAAPEAII@Z 000000018002a720     CctCharacterControllerCallbacks.obj
 0004:0000072c       $pdata$4$?allocate@?$Array@IV?$ReflectionAllocator@I@shdfnd@physx@@@shdfnd@physx@@IEAAPEAII@Z 000000018002a72c     CctCharacterControllerCallbacks.obj
 0004:00000738       $pdata$?growAndPushBack@?$Array@IV?$ReflectionAllocator@I@shdfnd@physx@@@shdfnd@physx@@IEAAAEAIAEBI@Z 000000018002a738     CctCharacterControllerCallbacks.obj
 0004:00000744       $pdata$?findTouchedGeometry@Cct@physx@@YAXPEBUInternalCBData_FindTouchedGeom@12@AEBUPxExtendedBounds3@2@AEAVTriArray@12@AEAV?$Array@IV?$ReflectionAllocator@I@shdfnd@physx@@@shdfnd@2@3AEBVCCTFilter@12@AEBUCCTParams@12@AEAG@Z 000000018002a744     CctCharacterControllerCallbacks.obj
 0004:00000750       $pdata$12$?findTouchedGeometry@Cct@physx@@YAXPEBUInternalCBData_FindTouchedGeom@12@AEBUPxExtendedBounds3@2@AEAVTriArray@12@AEAV?$Array@IV?$ReflectionAllocator@I@shdfnd@physx@@@shdfnd@2@3AEBVCCTFilter@12@AEBUCCTParams@12@AEAG@Z 000000018002a750     CctCharacterControllerCallbacks.obj
 0004:0000075c       $pdata$15$?findTouchedGeometry@Cct@physx@@YAXPEBUInternalCBData_FindTouchedGeom@12@AEBUPxExtendedBounds3@2@AEAVTriArray@12@AEAV?$Array@IV?$ReflectionAllocator@I@shdfnd@physx@@@shdfnd@2@3AEBVCCTFilter@12@AEBUCCTParams@12@AEAG@Z 000000018002a75c     CctCharacterControllerCallbacks.obj
 0004:00000768       $pdata$16$?findTouchedGeometry@Cct@physx@@YAXPEBUInternalCBData_FindTouchedGeom@12@AEBUPxExtendedBounds3@2@AEAVTriArray@12@AEAV?$Array@IV?$ReflectionAllocator@I@shdfnd@physx@@@shdfnd@2@3AEBVCCTFilter@12@AEBUCCTParams@12@AEAG@Z 000000018002a768     CctCharacterControllerCallbacks.obj
 0004:00000774       $pdata$17$?findTouchedGeometry@Cct@physx@@YAXPEBUInternalCBData_FindTouchedGeom@12@AEBUPxExtendedBounds3@2@AEAVTriArray@12@AEAV?$Array@IV?$ReflectionAllocator@I@shdfnd@physx@@@shdfnd@2@3AEBVCCTFilter@12@AEBUCCTParams@12@AEAG@Z 000000018002a774     CctCharacterControllerCallbacks.obj
 0004:00000780       $pdata$?shapeHitCallback@Cct@physx@@YAIPEBUInternalCBData_OnHit@12@AEBUSweptContact@12@AEBVPxVec3@2@M@Z 000000018002a780     CctCharacterControllerCallbacks.obj
 0004:0000078c       $pdata$?userHitCallback@Cct@physx@@YAIPEBUInternalCBData_OnHit@12@AEBUSweptContact@12@AEBVPxVec3@2@M@Z 000000018002a78c     CctCharacterControllerCallbacks.obj
 0004:00000798       $pdata$?tessellateTriangleRecursive@@YAXPEAUTessParams@@AEBVPxVec3@physx@@11@Z 000000018002a798     CctCharacterControllerCallbacks.obj
 0004:000007a4       $pdata$8$?tessellateTriangleRecursive@@YAXPEAUTessParams@@AEBVPxVec3@physx@@11@Z 000000018002a7a4     CctCharacterControllerCallbacks.obj
 0004:000007b0       $pdata$9$?tessellateTriangleRecursive@@YAXPEAUTessParams@@AEBVPxVec3@physx@@11@Z 000000018002a7b0     CctCharacterControllerCallbacks.obj
 0004:000007bc       $pdata$10$?tessellateTriangleRecursive@@YAXPEAUTessParams@@AEBVPxVec3@physx@@11@Z 000000018002a7bc     CctCharacterControllerCallbacks.obj
 0004:000007c8       $pdata$11$?tessellateTriangleRecursive@@YAXPEAUTessParams@@AEBVPxVec3@physx@@11@Z 000000018002a7c8     CctCharacterControllerCallbacks.obj
 0004:000007d4       $pdata$?outputPlaneToStream@@YAXPEAVPxShape@physx@@PEBVPxRigidActor@2@AEBVPxTransform@2@AEAV?$Array@IV?$ReflectionAllocator@I@shdfnd@physx@@@shdfnd@2@AEAVTriArray@Cct@2@3AEBUPxExtendedVec3@2@AEBVPxBounds3@2@AEBUCCTParams@82@PEAVRenderBuffer@Cm@2@@Z 000000018002a7d4     CctCharacterControllerCallbacks.obj
 0004:000007e0       $pdata$?outputCapsuleToStream@@YAXPEAVPxShape@physx@@PEBVPxRigidActor@2@AEBVPxTransform@2@AEAV?$Array@IV?$ReflectionAllocator@I@shdfnd@physx@@@shdfnd@2@AEBUPxExtendedVec3@2@@Z 000000018002a7e0     CctCharacterControllerCallbacks.obj
 0004:000007ec       $pdata$?outputBoxToStream@@YAXPEAVPxShape@physx@@PEBVPxRigidActor@2@AEBVPxTransform@2@AEAV?$Array@IV?$ReflectionAllocator@I@shdfnd@physx@@@shdfnd@2@AEAVTriArray@Cct@2@3AEBUPxExtendedVec3@2@AEBVPxBounds3@2@AEBUCCTParams@82@AEAG@Z 000000018002a7ec     CctCharacterControllerCallbacks.obj
 0004:000007f8       $pdata$?createInvisibleWalls@@YAIAEBUCCTParams@Cct@physx@@AEBVPxTriangle@3@AEAVTriArray@23@AEAV?$Array@IV?$ReflectionAllocator@I@shdfnd@physx@@@shdfnd@3@@Z 000000018002a7f8     CctCharacterControllerCallbacks.obj
 0004:00000804       $pdata$8$?createInvisibleWalls@@YAIAEBUCCTParams@Cct@physx@@AEBVPxTriangle@3@AEAVTriArray@23@AEAV?$Array@IV?$ReflectionAllocator@I@shdfnd@physx@@@shdfnd@3@@Z 000000018002a804     CctCharacterControllerCallbacks.obj
 0004:00000810       $pdata$9$?createInvisibleWalls@@YAIAEBUCCTParams@Cct@physx@@AEBVPxTriangle@3@AEAVTriArray@23@AEAV?$Array@IV?$ReflectionAllocator@I@shdfnd@physx@@@shdfnd@3@@Z 000000018002a810     CctCharacterControllerCallbacks.obj
 0004:0000081c       $pdata$10$?createInvisibleWalls@@YAIAEBUCCTParams@Cct@physx@@AEBVPxTriangle@3@AEAVTriArray@23@AEAV?$Array@IV?$ReflectionAllocator@I@shdfnd@physx@@@shdfnd@3@@Z 000000018002a81c     CctCharacterControllerCallbacks.obj
 0004:00000828       $pdata$11$?createInvisibleWalls@@YAIAEBUCCTParams@Cct@physx@@AEBVPxTriangle@3@AEAVTriArray@23@AEAV?$Array@IV?$ReflectionAllocator@I@shdfnd@physx@@@shdfnd@3@@Z 000000018002a828     CctCharacterControllerCallbacks.obj
 0004:00000834       $pdata$?outputMeshToStream@@YAXPEAVPxShape@physx@@PEBVPxRigidActor@2@AEBVPxTransform@2@AEAV?$Array@IV?$ReflectionAllocator@I@shdfnd@physx@@@shdfnd@2@AEAVTriArray@Cct@2@3AEBUPxExtendedVec3@2@AEBVPxBounds3@2@AEBUCCTParams@82@PEAVRenderBuffer@Cm@2@AEAG@Z 000000018002a834     CctCharacterControllerCallbacks.obj
 0004:00000840       $pdata$4$?outputMeshToStream@@YAXPEAVPxShape@physx@@PEBVPxRigidActor@2@AEBVPxTransform@2@AEAV?$Array@IV?$ReflectionAllocator@I@shdfnd@physx@@@shdfnd@2@AEAVTriArray@Cct@2@3AEBUPxExtendedVec3@2@AEBVPxBounds3@2@AEBUCCTParams@82@PEAVRenderBuffer@Cm@2@AEAG@Z 000000018002a840     CctCharacterControllerCallbacks.obj
 0004:0000084c       $pdata$?outputHeightFieldToStream@@YAXPEAVPxShape@physx@@PEBVPxRigidActor@2@AEBVPxTransform@2@AEAV?$Array@IV?$ReflectionAllocator@I@shdfnd@physx@@@shdfnd@2@AEAVTriArray@Cct@2@3AEBUPxExtendedVec3@2@AEBVPxBounds3@2@AEBUCCTParams@82@PEAVRenderBuffer@Cm@2@AEAG@Z 000000018002a84c     CctCharacterControllerCallbacks.obj
 0004:00000858       $pdata$5$?outputHeightFieldToStream@@YAXPEAVPxShape@physx@@PEBVPxRigidActor@2@AEBVPxTransform@2@AEAV?$Array@IV?$ReflectionAllocator@I@shdfnd@physx@@@shdfnd@2@AEAVTriArray@Cct@2@3AEBUPxExtendedVec3@2@AEBVPxBounds3@2@AEBUCCTParams@82@PEAVRenderBuffer@Cm@2@AEAG@Z 000000018002a858     CctCharacterControllerCallbacks.obj
 0004:00000864       $pdata$?outputConvexToStream@@YAXPEAVPxShape@physx@@PEBVPxRigidActor@2@AEBVPxTransform@2@AEAV?$Array@IV?$ReflectionAllocator@I@shdfnd@physx@@@shdfnd@2@AEAVTriArray@Cct@2@3AEBUPxExtendedVec3@2@AEBVPxBounds3@2@AEBUCCTParams@82@PEAVRenderBuffer@Cm@2@AEAG@Z 000000018002a864     CctCharacterControllerCallbacks.obj
 0004:00000870       $pdata$??_GPxRenderBuffer@physx@@UEAAPEAXI@Z 000000018002a870     CctCharacterControllerManager.obj
 0004:0000087c       $pdata$PxCreateControllerManager 000000018002a87c     CctCharacterControllerManager.obj
 0004:00000888       $pdata$??0CharacterControllerManager@Cct@physx@@QEAA@AEAVPxScene@2@_N@Z 000000018002a888     CctCharacterControllerManager.obj
 0004:00000894       $pdata$??1CharacterControllerManager@Cct@physx@@UEAA@XZ 000000018002a894     CctCharacterControllerManager.obj
 0004:000008a0       $pdata$?release@CharacterControllerManager@Cct@physx@@UEAAXXZ 000000018002a8a0     CctCharacterControllerManager.obj
 0004:000008ac       $pdata$3$?release@CharacterControllerManager@Cct@physx@@UEAAXXZ 000000018002a8ac     CctCharacterControllerManager.obj
 0004:000008b8       $pdata$4$?release@CharacterControllerManager@Cct@physx@@UEAAXXZ 000000018002a8b8     CctCharacterControllerManager.obj
 0004:000008c4       $pdata$?getController@CharacterControllerManager@Cct@physx@@UEAAPEAVPxController@3@I@Z 000000018002a8c4     CctCharacterControllerManager.obj
 0004:000008d0       $pdata$?createController@CharacterControllerManager@Cct@physx@@UEAAPEAVPxController@3@AEBVPxControllerDesc@3@@Z 000000018002a8d0     CctCharacterControllerManager.obj
 0004:000008dc       $pdata$?purgeControllers@CharacterControllerManager@Cct@physx@@UEAAXXZ 000000018002a8dc     CctCharacterControllerManager.obj
 0004:000008e8       $pdata$3$?purgeControllers@CharacterControllerManager@Cct@physx@@UEAAXXZ 000000018002a8e8     CctCharacterControllerManager.obj
 0004:000008f4       $pdata$4$?purgeControllers@CharacterControllerManager@Cct@physx@@UEAAXXZ 000000018002a8f4     CctCharacterControllerManager.obj
 0004:00000900       $pdata$?getRenderBuffer@CharacterControllerManager@Cct@physx@@UEAAAEAVPxRenderBuffer@3@XZ 000000018002a900     CctCharacterControllerManager.obj
 0004:0000090c       $pdata$0$?getRenderBuffer@CharacterControllerManager@Cct@physx@@UEAAAEAVPxRenderBuffer@3@XZ 000000018002a90c     CctCharacterControllerManager.obj
 0004:00000918       $pdata$1$?getRenderBuffer@CharacterControllerManager@Cct@physx@@UEAAAEAVPxRenderBuffer@3@XZ 000000018002a918     CctCharacterControllerManager.obj
 0004:00000924       $pdata$?setDebugRenderingFlags@CharacterControllerManager@Cct@physx@@UEAAXV?$PxFlags@W4Enum@PxControllerDebugRenderFlag@physx@@I@3@@Z 000000018002a924     CctCharacterControllerManager.obj
 0004:00000930       $pdata$?getObstacleContext@CharacterControllerManager@Cct@physx@@UEAAPEAVPxObstacleContext@3@I@Z 000000018002a930     CctCharacterControllerManager.obj
 0004:0000093c       $pdata$?createObstacleContext@CharacterControllerManager@Cct@physx@@UEAAPEAVPxObstacleContext@3@XZ 000000018002a93c     CctCharacterControllerManager.obj
 0004:00000948       $pdata$?computeInteractions@CharacterControllerManager@Cct@physx@@UEAAXMPEAVPxControllerFilterCallback@3@@Z 000000018002a948     CctCharacterControllerManager.obj
 0004:00000954       $pdata$5$?computeInteractions@CharacterControllerManager@Cct@physx@@UEAAXMPEAVPxControllerFilterCallback@3@@Z 000000018002a954     CctCharacterControllerManager.obj
 0004:00000960       $pdata$7$?computeInteractions@CharacterControllerManager@Cct@physx@@UEAAXMPEAVPxControllerFilterCallback@3@@Z 000000018002a960     CctCharacterControllerManager.obj
 0004:0000096c       $pdata$8$?computeInteractions@CharacterControllerManager@Cct@physx@@UEAAXMPEAVPxControllerFilterCallback@3@@Z 000000018002a96c     CctCharacterControllerManager.obj
 0004:00000978       $pdata$9$?computeInteractions@CharacterControllerManager@Cct@physx@@UEAAXMPEAVPxControllerFilterCallback@3@@Z 000000018002a978     CctCharacterControllerManager.obj
 0004:00000984       $pdata$10$?computeInteractions@CharacterControllerManager@Cct@physx@@UEAAXMPEAVPxControllerFilterCallback@3@@Z 000000018002a984     CctCharacterControllerManager.obj
 0004:00000990       $pdata$?shiftOrigin@CharacterControllerManager@Cct@physx@@UEAAXAEBVPxVec3@3@@Z 000000018002a990     CctCharacterControllerManager.obj
 0004:0000099c       $pdata$?onRelease@CharacterControllerManager@Cct@physx@@UEAAXPEBVPxBase@3@PEAXW4Enum@PxDeletionEventFlag@3@@Z 000000018002a99c     CctCharacterControllerManager.obj
 0004:000009a8       $pdata$1$?onRelease@CharacterControllerManager@Cct@physx@@UEAAXPEBVPxBase@3@PEAXW4Enum@PxDeletionEventFlag@3@@Z 000000018002a9a8     CctCharacterControllerManager.obj
 0004:000009b4       $pdata$2$?onRelease@CharacterControllerManager@Cct@physx@@UEAAXPEBVPxBase@3@PEAXW4Enum@PxDeletionEventFlag@3@@Z 000000018002a9b4     CctCharacterControllerManager.obj
 0004:000009c0       $pdata$?registerObservedObject@CharacterControllerManager@Cct@physx@@QEAAXPEBVPxBase@3@@Z 000000018002a9c0     CctCharacterControllerManager.obj
 0004:000009cc       $pdata$?unregisterObservedObject@CharacterControllerManager@Cct@physx@@QEAAXPEBVPxBase@3@@Z 000000018002a9cc     CctCharacterControllerManager.obj
 0004:000009d8       $pdata$?onObstacleRemoved@CharacterControllerManager@Cct@physx@@QEBAXI@Z 000000018002a9d8     CctCharacterControllerManager.obj
 0004:000009e4       $pdata$?onObstacleUpdated@CharacterControllerManager@Cct@physx@@QEBAXIPEBVPxObstacleContext@3@@Z 000000018002a9e4     CctCharacterControllerManager.obj
 0004:000009f0       $pdata$2$?onObstacleUpdated@CharacterControllerManager@Cct@physx@@QEBAXIPEBVPxObstacleContext@3@@Z 000000018002a9f0     CctCharacterControllerManager.obj
 0004:000009fc       $pdata$3$?onObstacleUpdated@CharacterControllerManager@Cct@physx@@QEBAXIPEBVPxObstacleContext@3@@Z 000000018002a9fc     CctCharacterControllerManager.obj
 0004:00000a08       $pdata$?onObstacleAdded@CharacterControllerManager@Cct@physx@@QEBAXIPEBVPxObstacleContext@3@@Z 000000018002aa08     CctCharacterControllerManager.obj
 0004:00000a14       $pdata$2$?onObstacleAdded@CharacterControllerManager@Cct@physx@@QEBAXIPEBVPxObstacleContext@3@@Z 000000018002aa14     CctCharacterControllerManager.obj
 0004:00000a20       $pdata$3$?onObstacleAdded@CharacterControllerManager@Cct@physx@@QEBAXIPEBVPxObstacleContext@3@@Z 000000018002aa20     CctCharacterControllerManager.obj
 0004:00000a2c       $pdata$?releaseController@CharacterControllerManager@Cct@physx@@QEAAXAEAVPxController@3@@Z 000000018002aa2c     CctCharacterControllerManager.obj
 0004:00000a38       $pdata$0$?releaseController@CharacterControllerManager@Cct@physx@@QEAAXAEAVPxController@3@@Z 000000018002aa38     CctCharacterControllerManager.obj
 0004:00000a44       $pdata$1$?releaseController@CharacterControllerManager@Cct@physx@@QEAAXAEAVPxController@3@@Z 000000018002aa44     CctCharacterControllerManager.obj
 0004:00000a50       $pdata$2$?releaseController@CharacterControllerManager@Cct@physx@@QEAAXAEAVPxController@3@@Z 000000018002aa50     CctCharacterControllerManager.obj
 0004:00000a5c       $pdata$3$?releaseController@CharacterControllerManager@Cct@physx@@QEAAXAEAVPxController@3@@Z 000000018002aa5c     CctCharacterControllerManager.obj
 0004:00000a68       $pdata$4$?releaseController@CharacterControllerManager@Cct@physx@@QEAAXAEAVPxController@3@@Z 000000018002aa68     CctCharacterControllerManager.obj
 0004:00000a74       $pdata$5$?releaseController@CharacterControllerManager@Cct@physx@@QEAAXAEAVPxController@3@@Z 000000018002aa74     CctCharacterControllerManager.obj
 0004:00000a80       $pdata$?resetObstaclesBuffers@CharacterControllerManager@Cct@physx@@QEAAXXZ 000000018002aa80     CctCharacterControllerManager.obj
 0004:00000a8c       $pdata$??_GPxDeletionListener@physx@@MEAAPEAXI@Z 000000018002aa8c     CctCharacterControllerManager.obj
 0004:00000a98       $pdata$?append@RenderBuffer@Cm@physx@@UEAAXAEBVPxRenderBuffer@3@@Z 000000018002aa98     CctCharacterControllerManager.obj
 0004:00000aa4       $pdata$?allocate@?$Array@UPxDebugPoint@physx@@V?$ReflectionAllocator@UPxDebugPoint@physx@@@shdfnd@2@@shdfnd@physx@@IEAAPEAUPxDebugPoint@3@I@Z 000000018002aaa4     CctCharacterControllerManager.obj
 0004:00000ab0       $pdata$1$?allocate@?$Array@UPxDebugPoint@physx@@V?$ReflectionAllocator@UPxDebugPoint@physx@@@shdfnd@2@@shdfnd@physx@@IEAAPEAUPxDebugPoint@3@I@Z 000000018002aab0     CctCharacterControllerManager.obj
 0004:00000abc       $pdata$3$?allocate@?$Array@UPxDebugPoint@physx@@V?$ReflectionAllocator@UPxDebugPoint@physx@@@shdfnd@2@@shdfnd@physx@@IEAAPEAUPxDebugPoint@3@I@Z 000000018002aabc     CctCharacterControllerManager.obj
 0004:00000ac8       $pdata$4$?allocate@?$Array@UPxDebugPoint@physx@@V?$ReflectionAllocator@UPxDebugPoint@physx@@@shdfnd@2@@shdfnd@physx@@IEAAPEAUPxDebugPoint@3@I@Z 000000018002aac8     CctCharacterControllerManager.obj
 0004:00000ad4       $pdata$?growAndPushBack@?$Array@UPxDebugPoint@physx@@V?$ReflectionAllocator@UPxDebugPoint@physx@@@shdfnd@2@@shdfnd@physx@@IEAAAEAUPxDebugPoint@3@AEBU43@@Z 000000018002aad4     CctCharacterControllerManager.obj
 0004:00000ae0       $pdata$?recreate@?$Array@UPxDebugPoint@physx@@V?$ReflectionAllocator@UPxDebugPoint@physx@@@shdfnd@2@@shdfnd@physx@@IEAAXI@Z 000000018002aae0     CctCharacterControllerManager.obj
 0004:00000aec       $pdata$?allocate@?$Array@UPxDebugLine@physx@@V?$ReflectionAllocator@UPxDebugLine@physx@@@shdfnd@2@@shdfnd@physx@@IEAAPEAUPxDebugLine@3@I@Z 000000018002aaec     CctCharacterControllerManager.obj
 0004:00000af8       $pdata$1$?allocate@?$Array@UPxDebugLine@physx@@V?$ReflectionAllocator@UPxDebugLine@physx@@@shdfnd@2@@shdfnd@physx@@IEAAPEAUPxDebugLine@3@I@Z 000000018002aaf8     CctCharacterControllerManager.obj
 0004:00000b04       $pdata$3$?allocate@?$Array@UPxDebugLine@physx@@V?$ReflectionAllocator@UPxDebugLine@physx@@@shdfnd@2@@shdfnd@physx@@IEAAPEAUPxDebugLine@3@I@Z 000000018002ab04     CctCharacterControllerManager.obj
 0004:00000b10       $pdata$4$?allocate@?$Array@UPxDebugLine@physx@@V?$ReflectionAllocator@UPxDebugLine@physx@@@shdfnd@2@@shdfnd@physx@@IEAAPEAUPxDebugLine@3@I@Z 000000018002ab10     CctCharacterControllerManager.obj
 0004:00000b1c       $pdata$?growAndPushBack@?$Array@UPxDebugLine@physx@@V?$ReflectionAllocator@UPxDebugLine@physx@@@shdfnd@2@@shdfnd@physx@@IEAAAEAUPxDebugLine@3@AEBU43@@Z 000000018002ab1c     CctCharacterControllerManager.obj
 0004:00000b28       $pdata$?recreate@?$Array@UPxDebugLine@physx@@V?$ReflectionAllocator@UPxDebugLine@physx@@@shdfnd@2@@shdfnd@physx@@IEAAXI@Z 000000018002ab28     CctCharacterControllerManager.obj
 0004:00000b34       $pdata$?allocate@?$Array@UPxDebugTriangle@physx@@V?$ReflectionAllocator@UPxDebugTriangle@physx@@@shdfnd@2@@shdfnd@physx@@IEAAPEAUPxDebugTriangle@3@I@Z 000000018002ab34     CctCharacterControllerManager.obj
 0004:00000b40       $pdata$1$?allocate@?$Array@UPxDebugTriangle@physx@@V?$ReflectionAllocator@UPxDebugTriangle@physx@@@shdfnd@2@@shdfnd@physx@@IEAAPEAUPxDebugTriangle@3@I@Z 000000018002ab40     CctCharacterControllerManager.obj
 0004:00000b4c       $pdata$3$?allocate@?$Array@UPxDebugTriangle@physx@@V?$ReflectionAllocator@UPxDebugTriangle@physx@@@shdfnd@2@@shdfnd@physx@@IEAAPEAUPxDebugTriangle@3@I@Z 000000018002ab4c     CctCharacterControllerManager.obj
 0004:00000b58       $pdata$4$?allocate@?$Array@UPxDebugTriangle@physx@@V?$ReflectionAllocator@UPxDebugTriangle@physx@@@shdfnd@2@@shdfnd@physx@@IEAAPEAUPxDebugTriangle@3@I@Z 000000018002ab58     CctCharacterControllerManager.obj
 0004:00000b64       $pdata$?growAndPushBack@?$Array@UPxDebugTriangle@physx@@V?$ReflectionAllocator@UPxDebugTriangle@physx@@@shdfnd@2@@shdfnd@physx@@IEAAAEAUPxDebugTriangle@3@AEBU43@@Z 000000018002ab64     CctCharacterControllerManager.obj
 0004:00000b70       $pdata$?recreate@?$Array@UPxDebugTriangle@physx@@V?$ReflectionAllocator@UPxDebugTriangle@physx@@@shdfnd@2@@shdfnd@physx@@IEAAXI@Z 000000018002ab70     CctCharacterControllerManager.obj
 0004:00000b7c       $pdata$?allocate@?$Array@UPxDebugText@physx@@V?$ReflectionAllocator@UPxDebugText@physx@@@shdfnd@2@@shdfnd@physx@@IEAAPEAUPxDebugText@3@I@Z 000000018002ab7c     CctCharacterControllerManager.obj
 0004:00000b88       $pdata$1$?allocate@?$Array@UPxDebugText@physx@@V?$ReflectionAllocator@UPxDebugText@physx@@@shdfnd@2@@shdfnd@physx@@IEAAPEAUPxDebugText@3@I@Z 000000018002ab88     CctCharacterControllerManager.obj
 0004:00000b94       $pdata$3$?allocate@?$Array@UPxDebugText@physx@@V?$ReflectionAllocator@UPxDebugText@physx@@@shdfnd@2@@shdfnd@physx@@IEAAPEAUPxDebugText@3@I@Z 000000018002ab94     CctCharacterControllerManager.obj
 0004:00000ba0       $pdata$4$?allocate@?$Array@UPxDebugText@physx@@V?$ReflectionAllocator@UPxDebugText@physx@@@shdfnd@2@@shdfnd@physx@@IEAAPEAUPxDebugText@3@I@Z 000000018002aba0     CctCharacterControllerManager.obj
 0004:00000bac       $pdata$?growAndPushBack@?$Array@UPxDebugText@physx@@V?$ReflectionAllocator@UPxDebugText@physx@@@shdfnd@2@@shdfnd@physx@@IEAAAEAUPxDebugText@3@AEBU43@@Z 000000018002abac     CctCharacterControllerManager.obj
 0004:00000bb8       $pdata$?recreate@?$Array@UPxDebugText@physx@@V?$ReflectionAllocator@UPxDebugText@physx@@@shdfnd@2@@shdfnd@physx@@IEAAXI@Z 000000018002abb8     CctCharacterControllerManager.obj
 0004:00000bc4       $pdata$??_GRenderBuffer@Cm@physx@@UEAAPEAXI@Z 000000018002abc4     CctCharacterControllerManager.obj
 0004:00000bd0       $pdata$?resize@?$Array@PEBXV?$ReflectionAllocator@PEBX@shdfnd@physx@@@shdfnd@physx@@QEAAXIAEBQEBX@Z 000000018002abd0     CctCharacterControllerManager.obj
 0004:00000bdc       $pdata$?recreate@?$Array@PEBXV?$ReflectionAllocator@PEBX@shdfnd@physx@@@shdfnd@physx@@IEAAXI@Z 000000018002abdc     CctCharacterControllerManager.obj
 0004:00000be8       $pdata$0$?recreate@?$Array@PEBXV?$ReflectionAllocator@PEBX@shdfnd@physx@@@shdfnd@physx@@IEAAXI@Z 000000018002abe8     CctCharacterControllerManager.obj
 0004:00000bf4       $pdata$1$?recreate@?$Array@PEBXV?$ReflectionAllocator@PEBX@shdfnd@physx@@@shdfnd@physx@@IEAAXI@Z 000000018002abf4     CctCharacterControllerManager.obj
 0004:00000c00       $pdata$?resize@?$Array@VPxExtendedBox@physx@@V?$ReflectionAllocator@VPxExtendedBox@physx@@@shdfnd@2@@shdfnd@physx@@QEAAXIAEBVPxExtendedBox@3@@Z 000000018002ac00     CctCharacterControllerManager.obj
 0004:00000c0c       $pdata$?recreate@?$Array@VPxExtendedBox@physx@@V?$ReflectionAllocator@VPxExtendedBox@physx@@@shdfnd@2@@shdfnd@physx@@IEAAXI@Z 000000018002ac0c     CctCharacterControllerManager.obj
 0004:00000c18       $pdata$0$?recreate@?$Array@VPxExtendedBox@physx@@V?$ReflectionAllocator@VPxExtendedBox@physx@@@shdfnd@2@@shdfnd@physx@@IEAAXI@Z 000000018002ac18     CctCharacterControllerManager.obj
 0004:00000c24       $pdata$1$?recreate@?$Array@VPxExtendedBox@physx@@V?$ReflectionAllocator@VPxExtendedBox@physx@@@shdfnd@2@@shdfnd@physx@@IEAAXI@Z 000000018002ac24     CctCharacterControllerManager.obj
 0004:00000c30       $pdata$2$?recreate@?$Array@VPxExtendedBox@physx@@V?$ReflectionAllocator@VPxExtendedBox@physx@@@shdfnd@2@@shdfnd@physx@@IEAAXI@Z 000000018002ac30     CctCharacterControllerManager.obj
 0004:00000c3c       $pdata$3$?recreate@?$Array@VPxExtendedBox@physx@@V?$ReflectionAllocator@VPxExtendedBox@physx@@@shdfnd@2@@shdfnd@physx@@IEAAXI@Z 000000018002ac3c     CctCharacterControllerManager.obj
 0004:00000c48       $pdata$?resize@?$Array@UPxExtendedCapsule@physx@@V?$ReflectionAllocator@UPxExtendedCapsule@physx@@@shdfnd@2@@shdfnd@physx@@QEAAXIAEBUPxExtendedCapsule@3@@Z 000000018002ac48     CctCharacterControllerManager.obj
 0004:00000c54       $pdata$?recreate@?$Array@UPxExtendedCapsule@physx@@V?$ReflectionAllocator@UPxExtendedCapsule@physx@@@shdfnd@2@@shdfnd@physx@@IEAAXI@Z 000000018002ac54     CctCharacterControllerManager.obj
 0004:00000c60       $pdata$?growAndPushBack@?$Array@PEAVController@Cct@physx@@V?$ReflectionAllocator@PEAVController@Cct@physx@@@shdfnd@3@@shdfnd@physx@@IEAAAEAPEAVController@Cct@3@AEBQEAV453@@Z 000000018002ac60     CctCharacterControllerManager.obj
 0004:00000c6c       $pdata$0$?growAndPushBack@?$Array@PEAVController@Cct@physx@@V?$ReflectionAllocator@PEAVController@Cct@physx@@@shdfnd@3@@shdfnd@physx@@IEAAAEAPEAVController@Cct@3@AEBQEAV453@@Z 000000018002ac6c     CctCharacterControllerManager.obj
 0004:00000c78       $pdata$1$?growAndPushBack@?$Array@PEAVController@Cct@physx@@V?$ReflectionAllocator@PEAVController@Cct@physx@@@shdfnd@3@@shdfnd@physx@@IEAAAEAPEAVController@Cct@3@AEBQEAV453@@Z 000000018002ac78     CctCharacterControllerManager.obj
 0004:00000c84       $pdata$2$?growAndPushBack@?$Array@PEAVController@Cct@physx@@V?$ReflectionAllocator@PEAVController@Cct@physx@@@shdfnd@3@@shdfnd@physx@@IEAAAEAPEAVController@Cct@3@AEBQEAV453@@Z 000000018002ac84     CctCharacterControllerManager.obj
 0004:00000c90       $pdata$3$?growAndPushBack@?$Array@PEAVController@Cct@physx@@V?$ReflectionAllocator@PEAVController@Cct@physx@@@shdfnd@3@@shdfnd@physx@@IEAAAEAPEAVController@Cct@3@AEBQEAV453@@Z 000000018002ac90     CctCharacterControllerManager.obj
 0004:00000c9c       $pdata$?create@?$HashBase@PEAVPxShape@physx@@PEAV12@U?$Hash@PEAVPxShape@physx@@@shdfnd@2@UGetKey@?$HashSetBase@PEAVPxShape@physx@@U?$Hash@PEAVPxShape@physx@@@shdfnd@2@VNonTrackingAllocator@42@$0A@@internal@42@VNonTrackingAllocator@42@$0A@@internal@shdfnd@physx@@QEAAPEAPEAVPxShape@4@AEBQEAV54@AEA_N@Z 000000018002ac9c     CctCharacterControllerManager.obj
 0004:00000ca8       $pdata$?reserveInternal@?$HashBase@PEAVPxShape@physx@@PEAV12@U?$Hash@PEAVPxShape@physx@@@shdfnd@2@UGetKey@?$HashSetBase@PEAVPxShape@physx@@U?$Hash@PEAVPxShape@physx@@@shdfnd@2@VNonTrackingAllocator@42@$0A@@internal@42@VNonTrackingAllocator@42@$0A@@internal@shdfnd@physx@@AEAAXI@Z 000000018002aca8     CctCharacterControllerManager.obj
 0004:00000cb4       $pdata$?growAndPushBack@?$Array@PEAVObstacleContext@Cct@physx@@V?$ReflectionAllocator@PEAVObstacleContext@Cct@physx@@@shdfnd@3@@shdfnd@physx@@IEAAAEAPEAVObstacleContext@Cct@3@AEBQEAV453@@Z 000000018002acb4     CctCharacterControllerManager.obj
 0004:00000cc0       $pdata$0$?growAndPushBack@?$Array@PEAVObstacleContext@Cct@physx@@V?$ReflectionAllocator@PEAVObstacleContext@Cct@physx@@@shdfnd@3@@shdfnd@physx@@IEAAAEAPEAVObstacleContext@Cct@3@AEBQEAV453@@Z 000000018002acc0     CctCharacterControllerManager.obj
 0004:00000ccc       $pdata$1$?growAndPushBack@?$Array@PEAVObstacleContext@Cct@physx@@V?$ReflectionAllocator@PEAVObstacleContext@Cct@physx@@@shdfnd@3@@shdfnd@physx@@IEAAAEAPEAVObstacleContext@Cct@3@AEBQEAV453@@Z 000000018002accc     CctCharacterControllerManager.obj
 0004:00000cd8       $pdata$2$?growAndPushBack@?$Array@PEAVObstacleContext@Cct@physx@@V?$ReflectionAllocator@PEAVObstacleContext@Cct@physx@@@shdfnd@3@@shdfnd@physx@@IEAAAEAPEAVObstacleContext@Cct@3@AEBQEAV453@@Z 000000018002acd8     CctCharacterControllerManager.obj
 0004:00000ce4       $pdata$3$?growAndPushBack@?$Array@PEAVObstacleContext@Cct@physx@@V?$ReflectionAllocator@PEAVObstacleContext@Cct@physx@@@shdfnd@3@@shdfnd@physx@@IEAAAEAPEAVObstacleContext@Cct@3@AEBQEAV453@@Z 000000018002ace4     CctCharacterControllerManager.obj
 0004:00000cf0       $pdata$?create@?$HashBase@V?$Pair@QEBVPxBase@physx@@UObservedRefCounter@Cct@2@@shdfnd@physx@@PEBVPxBase@3@U?$Hash@PEBVPxBase@physx@@@23@UGetKey@?$HashMapBase@PEBVPxBase@physx@@UObservedRefCounter@Cct@2@U?$Hash@PEBVPxBase@physx@@@shdfnd@2@VNonTrackingAllocator@62@@internal@23@VNonTrackingAllocator@23@$00@internal@shdfnd@physx@@QEAAPEAV?$Pair@QEBVPxBase@physx@@UObservedRefCounter@Cct@2@@34@AEBQEBVPxBase@4@AEA_N@Z 000000018002acf0     CctCharacterControllerManager.obj
 0004:00000cfc       $pdata$?reserveInternal@?$HashBase@V?$Pair@QEBVPxBase@physx@@UObservedRefCounter@Cct@2@@shdfnd@physx@@PEBVPxBase@3@U?$Hash@PEBVPxBase@physx@@@23@UGetKey@?$HashMapBase@PEBVPxBase@physx@@UObservedRefCounter@Cct@2@U?$Hash@PEBVPxBase@physx@@@shdfnd@2@VNonTrackingAllocator@62@@internal@23@VNonTrackingAllocator@23@$00@internal@shdfnd@physx@@AEAAXI@Z 000000018002acfc     CctCharacterControllerManager.obj
 0004:00000d08       $pdata$??_GCharacterControllerManager@Cct@physx@@UEAAPEAXI@Z 000000018002ad08     CctCharacterControllerManager.obj
 0004:00000d14       $pdata$??$resetOrClear@V?$Array@PEBXV?$ReflectionAllocator@PEBX@shdfnd@physx@@@shdfnd@physx@@@@YAXAEAV?$Array@PEBXV?$ReflectionAllocator@PEBX@shdfnd@physx@@@shdfnd@physx@@@Z 000000018002ad14     CctCharacterControllerManager.obj
 0004:00000d20       $pdata$??$resetOrClear@V?$Array@VPxExtendedBox@physx@@V?$ReflectionAllocator@VPxExtendedBox@physx@@@shdfnd@2@@shdfnd@physx@@@@YAXAEAV?$Array@VPxExtendedBox@physx@@V?$ReflectionAllocator@VPxExtendedBox@physx@@@shdfnd@2@@shdfnd@physx@@@Z 000000018002ad20     CctCharacterControllerManager.obj
 0004:00000d2c       $pdata$??$resetOrClear@V?$Array@UPxExtendedCapsule@physx@@V?$ReflectionAllocator@UPxExtendedCapsule@physx@@@shdfnd@2@@shdfnd@physx@@@@YAXAEAV?$Array@UPxExtendedCapsule@physx@@V?$ReflectionAllocator@UPxExtendedCapsule@physx@@@shdfnd@2@@shdfnd@physx@@@Z 000000018002ad2c     CctCharacterControllerManager.obj
 0004:00000d38       $pdata$?computeMTD@@YA_NAEAVPxVec3@physx@@AEAMAEBV12@2AEBVPxMat33@2@223@Z 000000018002ad38     CctCharacterControllerManager.obj
 0004:00000d44       $pdata$?InteractionCharacterCharacter@@YAXPEAVController@Cct@physx@@0M@Z 000000018002ad44     CctCharacterControllerManager.obj
 0004:00000d50       $pdata$??0Controller@Cct@physx@@QEAA@AEBVPxControllerDesc@2@PEAVPxScene@2@@Z 000000018002ad50     CctController.obj
 0004:00000d5c       $pdata$??1Controller@Cct@physx@@UEAA@XZ 000000018002ad5c     CctController.obj
 0004:00000d68       $pdata$?releaseInternal@Controller@Cct@physx@@QEAAXXZ 000000018002ad68     CctController.obj
 0004:00000d74       $pdata$?getInternalState@Controller@Cct@physx@@QEBAXAEAUPxControllerState@3@@Z 000000018002ad74     CctController.obj
 0004:00000d80       $pdata$?onOriginShift@Controller@Cct@physx@@QEAAXAEBVPxVec3@3@@Z 000000018002ad80     CctController.obj
 0004:00000d8c       $pdata$?setUpDirectionInternal@Controller@Cct@physx@@IEAAXAEBVPxVec3@3@@Z 000000018002ad8c     CctController.obj
 0004:00000d98       $pdata$?getKineShape@Controller@Cct@physx@@IEBAPEAVPxShape@3@XZ 000000018002ad98     CctController.obj
 0004:00000da4       $pdata$?createProxyActor@Controller@Cct@physx@@IEAA_NAEAVPxPhysics@3@AEBVPxGeometry@3@AEBVPxMaterial@3@@Z 000000018002ada4     CctController.obj
 0004:00000db0       $pdata$?setPos@Controller@Cct@physx@@IEAA_NAEBUPxExtendedVec3@3@@Z 000000018002adb0     CctController.obj
 0004:00000dbc       $pdata$??_GController@Cct@physx@@UEAAPEAXI@Z 000000018002adbc     CctController.obj
 0004:00000dc8       $pdata$??_GPxObstacleContext@physx@@UEAAPEAXI@Z 000000018002adc8     CctObstacleContext.obj
 0004:00000dd4       $pdata$??0HandleManager@Cct@physx@@QEAA@XZ 000000018002add4     CctObstacleContext.obj
 0004:00000de0       $pdata$??1HandleManager@Cct@physx@@QEAA@XZ 000000018002ade0     CctObstacleContext.obj
 0004:00000dec       $pdata$?Add@HandleManager@Cct@physx@@QEAAIPEAX@Z 000000018002adec     CctObstacleContext.obj
 0004:00000df8       $pdata$4$?Add@HandleManager@Cct@physx@@QEAAIPEAX@Z 000000018002adf8     CctObstacleContext.obj
 0004:00000e04       $pdata$5$?Add@HandleManager@Cct@physx@@QEAAIPEAX@Z 000000018002ae04     CctObstacleContext.obj
 0004:00000e10       $pdata$?Remove@HandleManager@Cct@physx@@QEAAXI@Z 000000018002ae10     CctObstacleContext.obj
 0004:00000e1c       $pdata$1$?Remove@HandleManager@Cct@physx@@QEAAXI@Z 000000018002ae1c     CctObstacleContext.obj
 0004:00000e28       $pdata$2$?Remove@HandleManager@Cct@physx@@QEAAXI@Z 000000018002ae28     CctObstacleContext.obj
 0004:00000e34       $pdata$?SetupLists@HandleManager@Cct@physx@@AEAA_NPEAPEAXPEAG11@Z 000000018002ae34     CctObstacleContext.obj
 0004:00000e40       $pdata$??0ObstacleContext@Cct@physx@@QEAA@AEAVCharacterControllerManager@12@@Z 000000018002ae40     CctObstacleContext.obj
 0004:00000e4c       $pdata$??1ObstacleContext@Cct@physx@@UEAA@XZ 000000018002ae4c     CctObstacleContext.obj
 0004:00000e58       $pdata$?addObstacle@ObstacleContext@Cct@physx@@UEAAIAEBVPxObstacle@3@@Z 000000018002ae58     CctObstacleContext.obj
 0004:00000e64       $pdata$0$?addObstacle@ObstacleContext@Cct@physx@@UEAAIAEBVPxObstacle@3@@Z 000000018002ae64     CctObstacleContext.obj
 0004:00000e70       $pdata$1$?addObstacle@ObstacleContext@Cct@physx@@UEAAIAEBVPxObstacle@3@@Z 000000018002ae70     CctObstacleContext.obj
 0004:00000e7c       $pdata$?removeObstacle@ObstacleContext@Cct@physx@@UEAA_NI@Z 000000018002ae7c     CctObstacleContext.obj
 0004:00000e88       $pdata$?updateObstacle@ObstacleContext@Cct@physx@@UEAA_NIAEBVPxObstacle@3@@Z 000000018002ae88     CctObstacleContext.obj
 0004:00000e94       $pdata$?raycastSingle@ObstacleContext@Cct@physx@@QEBAPEBVPxObstacle@3@AEAUPxRaycastHit@3@AEBVPxVec3@3@1MAEAI@Z 000000018002ae94     CctObstacleContext.obj
 0004:00000ea0       $pdata$?raycastSingle@ObstacleContext@Cct@physx@@QEBAPEBVPxObstacle@3@AEAUPxRaycastHit@3@AEBIAEBVPxVec3@3@2M@Z 000000018002aea0     CctObstacleContext.obj
 0004:00000eac       $pdata$?growAndPushBack@?$Array@UInternalBoxObstacle@ObstacleContext@Cct@physx@@V?$ReflectionAllocator@UInternalBoxObstacle@ObstacleContext@Cct@physx@@@shdfnd@4@@shdfnd@physx@@IEAAAEAUInternalBoxObstacle@ObstacleContext@Cct@3@AEBU4563@@Z 000000018002aeac     CctObstacleContext.obj
 0004:00000eb8       $pdata$0$?growAndPushBack@?$Array@UInternalBoxObstacle@ObstacleContext@Cct@physx@@V?$ReflectionAllocator@UInternalBoxObstacle@ObstacleContext@Cct@physx@@@shdfnd@4@@shdfnd@physx@@IEAAAEAUInternalBoxObstacle@ObstacleContext@Cct@3@AEBU4563@@Z 000000018002aeb8     CctObstacleContext.obj
 0004:00000ec4       $pdata$1$?growAndPushBack@?$Array@UInternalBoxObstacle@ObstacleContext@Cct@physx@@V?$ReflectionAllocator@UInternalBoxObstacle@ObstacleContext@Cct@physx@@@shdfnd@4@@shdfnd@physx@@IEAAAEAUInternalBoxObstacle@ObstacleContext@Cct@3@AEBU4563@@Z 000000018002aec4     CctObstacleContext.obj
 0004:00000ed0       $pdata$?growAndPushBack@?$Array@UInternalCapsuleObstacle@ObstacleContext@Cct@physx@@V?$ReflectionAllocator@UInternalCapsuleObstacle@ObstacleContext@Cct@physx@@@shdfnd@4@@shdfnd@physx@@IEAAAEAUInternalCapsuleObstacle@ObstacleContext@Cct@3@AEBU4563@@Z 000000018002aed0     CctObstacleContext.obj
 0004:00000edc       $pdata$0$?growAndPushBack@?$Array@UInternalCapsuleObstacle@ObstacleContext@Cct@physx@@V?$ReflectionAllocator@UInternalCapsuleObstacle@ObstacleContext@Cct@physx@@@shdfnd@4@@shdfnd@physx@@IEAAAEAUInternalCapsuleObstacle@ObstacleContext@Cct@3@AEBU4563@@Z 000000018002aedc     CctObstacleContext.obj
 0004:00000ee8       $pdata$1$?growAndPushBack@?$Array@UInternalCapsuleObstacle@ObstacleContext@Cct@physx@@V?$ReflectionAllocator@UInternalCapsuleObstacle@ObstacleContext@Cct@physx@@@shdfnd@4@@shdfnd@physx@@IEAAAEAUInternalCapsuleObstacle@ObstacleContext@Cct@3@AEBU4563@@Z 000000018002aee8     CctObstacleContext.obj
 0004:00000ef4       $pdata$??_GObstacleContext@Cct@physx@@UEAAPEAXI@Z 000000018002aef4     CctObstacleContext.obj
 0004:00000f00       $pdata$??0SweptBox@Cct@physx@@QEAA@XZ 000000018002af00     CctSweptBox.obj
 0004:00000f0c       $pdata$?computeTemporalBox@SweptBox@Cct@physx@@UEBAXAEBVSweepTest@23@AEAUPxExtendedBounds3@3@AEBUPxExtendedVec3@3@AEBVPxVec3@3@@Z 000000018002af0c     CctSweptBox.obj
 0004:00000f18       $pdata$??_GSweptBox@Cct@physx@@UEAAPEAXI@Z 000000018002af18     CctSweptBox.obj
 0004:00000f24       $pdata$??0SweptCapsule@Cct@physx@@QEAA@XZ 000000018002af24     CctSweptCapsule.obj
 0004:00000f30       $pdata$?computeTemporalBox@SweptCapsule@Cct@physx@@UEBAXAEBVSweepTest@23@AEAUPxExtendedBounds3@3@AEBUPxExtendedVec3@3@AEBVPxVec3@3@@Z 000000018002af30     CctSweptCapsule.obj
 0004:00000f3c       $pdata$??_GSweptCapsule@Cct@physx@@UEAAPEAXI@Z 000000018002af3c     CctSweptCapsule.obj
 0004:00000f48       $pdata$??_GSweptVolume@Cct@physx@@UEAAPEAXI@Z 000000018002af48     CctSweptVolume.obj
 0004:00000f54       $pdata$?computeTemporalBox@Cct@physx@@YAXAEAUPxExtendedBounds3@2@MMMMAEBVPxVec3@2@AEBUPxExtendedVec3@2@1@Z 000000018002af54     CctSweptVolume.obj
 0004:00000f60       $pdata$??1PxMeshOverlapUtil@physx@@QEAA@XZ 000000018002af60     PhysX3ExtensionsPROFILE:ExtTriangleMeshExt.obj
 0004:00000f6c       $pdata$?findOverlap@PxMeshOverlapUtil@physx@@QEAAIAEBVPxGeometry@2@AEBVPxTransform@2@AEBVPxTriangleMeshGeometry@2@1@Z 000000018002af6c     PhysX3ExtensionsPROFILE:ExtTriangleMeshExt.obj
 0004:00000f78       $pdata$0$?findOverlap@PxMeshOverlapUtil@physx@@QEAAIAEBVPxGeometry@2@AEBVPxTransform@2@AEBVPxTriangleMeshGeometry@2@1@Z 000000018002af78     PhysX3ExtensionsPROFILE:ExtTriangleMeshExt.obj
 0004:00000f84       $pdata$1$?findOverlap@PxMeshOverlapUtil@physx@@QEAAIAEBVPxGeometry@2@AEBVPxTransform@2@AEBVPxTriangleMeshGeometry@2@1@Z 000000018002af84     PhysX3ExtensionsPROFILE:ExtTriangleMeshExt.obj
 0004:00000f90       $pdata$?findOverlap@PxMeshOverlapUtil@physx@@QEAAIAEBVPxGeometry@2@AEBVPxTransform@2@AEBVPxHeightFieldGeometry@2@1@Z 000000018002af90     PhysX3ExtensionsPROFILE:ExtTriangleMeshExt.obj
 0004:00000f9c       $pdata$?PxComputeMeshPenetration@physx@@YA?AVPxVec3@1@IAEBVPxGeometry@1@AEBVPxTransform@1@AEBVPxTriangleMeshGeometry@1@1AEAI@Z 000000018002af9c     PhysX3ExtensionsPROFILE:ExtTriangleMeshExt.obj
 0004:00000fa8       $pdata$?PxComputeHeightFieldPenetration@physx@@YA?AVPxVec3@1@IAEBVPxGeometry@1@AEBVPxTransform@1@AEBVPxHeightFieldGeometry@1@1AEAI@Z 000000018002afa8     PhysX3ExtensionsPROFILE:ExtTriangleMeshExt.obj
 0004:00000fb4       $pdata$??$computeMeshPenetrationT@VPxTriangleMeshGeometry@physx@@@?A0x05e637a1@@YA_NAEAVPxVec3@physx@@AEAMAEBVPxGeometry@2@AEBVPxTransform@2@AEBVPxTriangleMeshGeometry@2@3IPEAI@Z 000000018002afb4     PhysX3ExtensionsPROFILE:ExtTriangleMeshExt.obj
 0004:00000fc0       $pdata$1$??$computeMeshPenetrationT@VPxTriangleMeshGeometry@physx@@@?A0x05e637a1@@YA_NAEAVPxVec3@physx@@AEAMAEBVPxGeometry@2@AEBVPxTransform@2@AEBVPxTriangleMeshGeometry@2@3IPEAI@Z 000000018002afc0     PhysX3ExtensionsPROFILE:ExtTriangleMeshExt.obj
 0004:00000fcc       $pdata$3$??$computeMeshPenetrationT@VPxTriangleMeshGeometry@physx@@@?A0x05e637a1@@YA_NAEAVPxVec3@physx@@AEAMAEBVPxGeometry@2@AEBVPxTransform@2@AEBVPxTriangleMeshGeometry@2@3IPEAI@Z 000000018002afcc     PhysX3ExtensionsPROFILE:ExtTriangleMeshExt.obj
 0004:00000fd8       $pdata$5$??$computeMeshPenetrationT@VPxTriangleMeshGeometry@physx@@@?A0x05e637a1@@YA_NAEAVPxVec3@physx@@AEAMAEBVPxGeometry@2@AEBVPxTransform@2@AEBVPxTriangleMeshGeometry@2@3IPEAI@Z 000000018002afd8     PhysX3ExtensionsPROFILE:ExtTriangleMeshExt.obj
 0004:00000fe4       $pdata$6$??$computeMeshPenetrationT@VPxTriangleMeshGeometry@physx@@@?A0x05e637a1@@YA_NAEAVPxVec3@physx@@AEAMAEBVPxGeometry@2@AEBVPxTransform@2@AEBVPxTriangleMeshGeometry@2@3IPEAI@Z 000000018002afe4     PhysX3ExtensionsPROFILE:ExtTriangleMeshExt.obj
 0004:00000ff0       $pdata$7$??$computeMeshPenetrationT@VPxTriangleMeshGeometry@physx@@@?A0x05e637a1@@YA_NAEAVPxVec3@physx@@AEAMAEBVPxGeometry@2@AEBVPxTransform@2@AEBVPxTriangleMeshGeometry@2@3IPEAI@Z 000000018002aff0     PhysX3ExtensionsPROFILE:ExtTriangleMeshExt.obj
 0004:00000ffc       $pdata$8$??$computeMeshPenetrationT@VPxTriangleMeshGeometry@physx@@@?A0x05e637a1@@YA_NAEAVPxVec3@physx@@AEAMAEBVPxGeometry@2@AEBVPxTransform@2@AEBVPxTriangleMeshGeometry@2@3IPEAI@Z 000000018002affc     PhysX3ExtensionsPROFILE:ExtTriangleMeshExt.obj
 0004:00001008       $pdata$??$computeMeshPenetrationT@VPxHeightFieldGeometry@physx@@@?A0x05e637a1@@YA_NAEAVPxVec3@physx@@AEAMAEBVPxGeometry@2@AEBVPxTransform@2@AEBVPxHeightFieldGeometry@2@3IPEAI@Z 000000018002b008     PhysX3ExtensionsPROFILE:ExtTriangleMeshExt.obj
 0004:00001014       $pdata$1$??$computeMeshPenetrationT@VPxHeightFieldGeometry@physx@@@?A0x05e637a1@@YA_NAEAVPxVec3@physx@@AEAMAEBVPxGeometry@2@AEBVPxTransform@2@AEBVPxHeightFieldGeometry@2@3IPEAI@Z 000000018002b014     PhysX3ExtensionsPROFILE:ExtTriangleMeshExt.obj
 0004:00001020       $pdata$3$??$computeMeshPenetrationT@VPxHeightFieldGeometry@physx@@@?A0x05e637a1@@YA_NAEAVPxVec3@physx@@AEAMAEBVPxGeometry@2@AEBVPxTransform@2@AEBVPxHeightFieldGeometry@2@3IPEAI@Z 000000018002b020     PhysX3ExtensionsPROFILE:ExtTriangleMeshExt.obj
 0004:0000102c       $pdata$5$??$computeMeshPenetrationT@VPxHeightFieldGeometry@physx@@@?A0x05e637a1@@YA_NAEAVPxVec3@physx@@AEAMAEBVPxGeometry@2@AEBVPxTransform@2@AEBVPxHeightFieldGeometry@2@3IPEAI@Z 000000018002b02c     PhysX3ExtensionsPROFILE:ExtTriangleMeshExt.obj
 0004:00001038       $pdata$6$??$computeMeshPenetrationT@VPxHeightFieldGeometry@physx@@@?A0x05e637a1@@YA_NAEAVPxVec3@physx@@AEAMAEBVPxGeometry@2@AEBVPxTransform@2@AEBVPxHeightFieldGeometry@2@3IPEAI@Z 000000018002b038     PhysX3ExtensionsPROFILE:ExtTriangleMeshExt.obj
 0004:00001044       $pdata$7$??$computeMeshPenetrationT@VPxHeightFieldGeometry@physx@@@?A0x05e637a1@@YA_NAEAVPxVec3@physx@@AEAMAEBVPxGeometry@2@AEBVPxTransform@2@AEBVPxHeightFieldGeometry@2@3IPEAI@Z 000000018002b044     PhysX3ExtensionsPROFILE:ExtTriangleMeshExt.obj
 0004:00001050       $pdata$8$??$computeMeshPenetrationT@VPxHeightFieldGeometry@physx@@@?A0x05e637a1@@YA_NAEAVPxVec3@physx@@AEAMAEBVPxGeometry@2@AEBVPxTransform@2@AEBVPxHeightFieldGeometry@2@3IPEAI@Z 000000018002b050     PhysX3ExtensionsPROFILE:ExtTriangleMeshExt.obj
 0004:0000105c       $pdata$?transformFast@PxBounds3@physx@@SA?AV12@AEBVPxTransform@2@AEBV12@@Z 000000018002b05c     PhysX3ExtensionsPROFILE:ExtRigidBodyExt.obj
 0004:00001068       $pdata$??_G?$PxHitCallback@UPxSweepHit@physx@@@physx@@UEAAPEAXI@Z 000000018002b068     PhysX3ExtensionsPROFILE:ExtRigidBodyExt.obj
 0004:00001074       $pdata$??_G?$PxHitBuffer@UPxSweepHit@physx@@@physx@@UEAAPEAXI@Z 000000018002b074     PhysX3ExtensionsPROFILE:ExtRigidBodyExt.obj
 0004:00001080       $pdata$??0PxMassProperties@physx@@QEAA@AEBVPxGeometry@1@@Z 000000018002b080     PhysX3ExtensionsPROFILE:ExtRigidBodyExt.obj
 0004:0000108c       $pdata$8$??0PxMassProperties@physx@@QEAA@AEBVPxGeometry@1@@Z 000000018002b08c     PhysX3ExtensionsPROFILE:ExtRigidBodyExt.obj
 0004:00001098       $pdata$9$??0PxMassProperties@physx@@QEAA@AEBVPxGeometry@1@@Z 000000018002b098     PhysX3ExtensionsPROFILE:ExtRigidBodyExt.obj
 0004:000010a4       $pdata$?scaleInertia@PxMassProperties@physx@@SA?AVPxMat33@2@AEBV32@AEBVPxQuat@2@AEBVPxVec3@2@@Z 000000018002b0a4     PhysX3ExtensionsPROFILE:ExtRigidBodyExt.obj
 0004:000010b0       $pdata$?sum@PxMassProperties@physx@@SA?AV12@PEBV12@PEBVPxTransform@2@I@Z 000000018002b0b0     PhysX3ExtensionsPROFILE:ExtRigidBodyExt.obj
 0004:000010bc       $pdata$?updateMassAndInertia@PxRigidBodyExt@physx@@SA_NAEAVPxRigidBody@2@PEBMIPEBVPxVec3@2@_N@Z 000000018002b0bc     PhysX3ExtensionsPROFILE:ExtRigidBodyExt.obj
 0004:000010c8       $pdata$?updateMassAndInertia@PxRigidBodyExt@physx@@SA_NAEAVPxRigidBody@2@MPEBVPxVec3@2@_N@Z 000000018002b0c8     PhysX3ExtensionsPROFILE:ExtRigidBodyExt.obj
 0004:000010d4       $pdata$?setMassAndUpdateInertia@PxRigidBodyExt@physx@@SA_NAEAVPxRigidBody@2@PEBMIPEBVPxVec3@2@_N@Z 000000018002b0d4     PhysX3ExtensionsPROFILE:ExtRigidBodyExt.obj
 0004:000010e0       $pdata$?setMassAndUpdateInertia@PxRigidBodyExt@physx@@SA_NAEAVPxRigidBody@2@MPEBVPxVec3@2@_N@Z 000000018002b0e0     PhysX3ExtensionsPROFILE:ExtRigidBodyExt.obj
 0004:000010ec       $pdata$?computeMassPropertiesFromShapes@PxRigidBodyExt@physx@@SA?AVPxMassProperties@2@PEBQEBVPxShape@2@I@Z 000000018002b0ec     PhysX3ExtensionsPROFILE:ExtRigidBodyExt.obj
 0004:000010f8       $pdata$1$?computeMassPropertiesFromShapes@PxRigidBodyExt@physx@@SA?AVPxMassProperties@2@PEBQEBVPxShape@2@I@Z 000000018002b0f8     PhysX3ExtensionsPROFILE:ExtRigidBodyExt.obj
 0004:00001104       $pdata$2$?computeMassPropertiesFromShapes@PxRigidBodyExt@physx@@SA?AVPxMassProperties@2@PEBQEBVPxShape@2@I@Z 000000018002b104     PhysX3ExtensionsPROFILE:ExtRigidBodyExt.obj
 0004:00001110       $pdata$3$?computeMassPropertiesFromShapes@PxRigidBodyExt@physx@@SA?AVPxMassProperties@2@PEBQEBVPxShape@2@I@Z 000000018002b110     PhysX3ExtensionsPROFILE:ExtRigidBodyExt.obj
 0004:0000111c       $pdata$4$?computeMassPropertiesFromShapes@PxRigidBodyExt@physx@@SA?AVPxMassProperties@2@PEBQEBVPxShape@2@I@Z 000000018002b11c     PhysX3ExtensionsPROFILE:ExtRigidBodyExt.obj
 0004:00001128       $pdata$?addForceAtLocalPos@PxRigidBodyExt@physx@@SAXAEAVPxRigidBody@2@AEBVPxVec3@2@1W4Enum@PxForceMode@2@_N@Z 000000018002b128     PhysX3ExtensionsPROFILE:ExtRigidBodyExt.obj
 0004:00001134       $pdata$?addLocalForceAtPos@PxRigidBodyExt@physx@@SAXAEAVPxRigidBody@2@AEBVPxVec3@2@1W4Enum@PxForceMode@2@_N@Z 000000018002b134     PhysX3ExtensionsPROFILE:ExtRigidBodyExt.obj
 0004:00001140       $pdata$?addLocalForceAtLocalPos@PxRigidBodyExt@physx@@SAXAEAVPxRigidBody@2@AEBVPxVec3@2@1W4Enum@PxForceMode@2@_N@Z 000000018002b140     PhysX3ExtensionsPROFILE:ExtRigidBodyExt.obj
 0004:0000114c       $pdata$?getVelocityAtPos@PxRigidBodyExt@physx@@SA?AVPxVec3@2@AEBVPxRigidBody@2@AEBV32@@Z 000000018002b14c     PhysX3ExtensionsPROFILE:ExtRigidBodyExt.obj
 0004:00001158       $pdata$?getLocalVelocityAtLocalPos@PxRigidBodyExt@physx@@SA?AVPxVec3@2@AEBVPxRigidBody@2@AEBV32@@Z 000000018002b158     PhysX3ExtensionsPROFILE:ExtRigidBodyExt.obj
 0004:00001164       $pdata$?getVelocityAtOffset@PxRigidBodyExt@physx@@SA?AVPxVec3@2@AEBVPxRigidBody@2@AEBV32@@Z 000000018002b164     PhysX3ExtensionsPROFILE:ExtRigidBodyExt.obj
 0004:00001170       $pdata$?linearSweepSingle@PxRigidBodyExt@physx@@SA_NAEAVPxRigidBody@2@AEAVPxScene@2@AEBVPxVec3@2@MV?$PxFlags@W4Enum@PxHitFlag@physx@@G@2@AEAUPxSweepHit@2@AEAIAEBUPxQueryFilterData@2@PEAVPxQueryFilterCallback@2@PEBUPxQueryCache@2@M@Z 000000018002b170     PhysX3ExtensionsPROFILE:ExtRigidBodyExt.obj
 0004:0000117c       $pdata$8$?linearSweepSingle@PxRigidBodyExt@physx@@SA_NAEAVPxRigidBody@2@AEAVPxScene@2@AEBVPxVec3@2@MV?$PxFlags@W4Enum@PxHitFlag@physx@@G@2@AEAUPxSweepHit@2@AEAIAEBUPxQueryFilterData@2@PEAVPxQueryFilterCallback@2@PEBUPxQueryCache@2@M@Z 000000018002b17c     PhysX3ExtensionsPROFILE:ExtRigidBodyExt.obj
 0004:00001188       $pdata$9$?linearSweepSingle@PxRigidBodyExt@physx@@SA_NAEAVPxRigidBody@2@AEAVPxScene@2@AEBVPxVec3@2@MV?$PxFlags@W4Enum@PxHitFlag@physx@@G@2@AEAUPxSweepHit@2@AEAIAEBUPxQueryFilterData@2@PEAVPxQueryFilterCallback@2@PEBUPxQueryCache@2@M@Z 000000018002b188     PhysX3ExtensionsPROFILE:ExtRigidBodyExt.obj
 0004:00001194       $pdata$?linearSweepMultiple@PxRigidBodyExt@physx@@SAIAEAVPxRigidBody@2@AEAVPxScene@2@AEBVPxVec3@2@MV?$PxFlags@W4Enum@PxHitFlag@physx@@G@2@PEAUPxSweepHit@2@PEAIIAEAU72@AEAHAEA_NAEBUPxQueryFilterData@2@PEAVPxQueryFilterCallback@2@PEBUPxQueryCache@2@M@Z 000000018002b194     PhysX3ExtensionsPROFILE:ExtRigidBodyExt.obj
 0004:000011a0       $pdata$10$?linearSweepMultiple@PxRigidBodyExt@physx@@SAIAEAVPxRigidBody@2@AEAVPxScene@2@AEBVPxVec3@2@MV?$PxFlags@W4Enum@PxHitFlag@physx@@G@2@PEAUPxSweepHit@2@PEAIIAEAU72@AEAHAEA_NAEBUPxQueryFilterData@2@PEAVPxQueryFilterCallback@2@PEBUPxQueryCache@2@M@Z 000000018002b1a0     PhysX3ExtensionsPROFILE:ExtRigidBodyExt.obj
 0004:000011ac       $pdata$11$?linearSweepMultiple@PxRigidBodyExt@physx@@SAIAEAVPxRigidBody@2@AEAVPxScene@2@AEBVPxVec3@2@MV?$PxFlags@W4Enum@PxHitFlag@physx@@G@2@PEAUPxSweepHit@2@PEAIIAEAU72@AEAHAEA_NAEBUPxQueryFilterData@2@PEAVPxQueryFilterCallback@2@PEBUPxQueryCache@2@M@Z 000000018002b1ac     PhysX3ExtensionsPROFILE:ExtRigidBodyExt.obj
 0004:000011b8       $pdata$?computeVelocityDeltaFromImpulse@PxRigidBodyExt@physx@@SAXAEBVPxRigidBody@2@AEBVPxVec3@2@1AEAV42@2@Z 000000018002b1b8     PhysX3ExtensionsPROFILE:ExtRigidBodyExt.obj
 0004:000011c4       $pdata$?computeVelocityDeltaFromImpulse@PxRigidBodyExt@physx@@SAXAEBVPxRigidBody@2@AEBVPxTransform@2@AEBVPxVec3@2@2MMAEAV52@3@Z 000000018002b1c4     PhysX3ExtensionsPROFILE:ExtRigidBodyExt.obj
 0004:000011d0       $pdata$?computeLinearAngularImpulse@PxRigidBodyExt@physx@@SAXAEBVPxRigidBody@2@AEBVPxTransform@2@AEBVPxVec3@2@2MMAEAV52@3@Z 000000018002b1d0     PhysX3ExtensionsPROFILE:ExtRigidBodyExt.obj
 0004:000011dc       $pdata$?translate@InertiaTensorComputer@Ext@physx@@QEAAXAEBVPxVec3@3@@Z 000000018002b1dc     PhysX3ExtensionsPROFILE:ExtRigidBodyExt.obj
 0004:000011e8       $pdata$5$?translate@InertiaTensorComputer@Ext@physx@@QEAAXAEBVPxVec3@3@@Z 000000018002b1e8     PhysX3ExtensionsPROFILE:ExtRigidBodyExt.obj
 0004:000011f4       $pdata$9$?translate@InertiaTensorComputer@Ext@physx@@QEAAXAEBVPxVec3@3@@Z 000000018002b1f4     PhysX3ExtensionsPROFILE:ExtRigidBodyExt.obj
 0004:00001200       $pdata$10$?translate@InertiaTensorComputer@Ext@physx@@QEAAXAEBVPxVec3@3@@Z 000000018002b200     PhysX3ExtensionsPROFILE:ExtRigidBodyExt.obj
 0004:0000120c       $pdata$11$?translate@InertiaTensorComputer@Ext@physx@@QEAAXAEBVPxVec3@3@@Z 000000018002b20c     PhysX3ExtensionsPROFILE:ExtRigidBodyExt.obj
 0004:00001218       $pdata$?setCapsule@InertiaTensorComputer@Ext@physx@@QEAAXHMM@Z 000000018002b218     PhysX3ExtensionsPROFILE:ExtRigidBodyExt.obj
 0004:00001224       $pdata$?rotate@InertiaTensorComputer@Ext@physx@@QEAAXAEBVPxMat33@3@@Z 000000018002b224     PhysX3ExtensionsPROFILE:ExtRigidBodyExt.obj
 0004:00001230       $pdata$?transform@InertiaTensorComputer@Ext@physx@@QEAAXAEBVPxTransform@3@@Z 000000018002b230     PhysX3ExtensionsPROFILE:ExtRigidBodyExt.obj
 0004:0000123c       $pdata$?computeMassAndDiagInertia@@YA_NAEAVInertiaTensorComputer@Ext@physx@@AEAVPxVec3@3@AEAVPxQuat@3@AEAM1_NAEBVPxRigidBody@3@PEBD@Z 000000018002b23c     PhysX3ExtensionsPROFILE:ExtRigidBodyExt.obj
 0004:00001248       $pdata$0$?computeMassAndDiagInertia@@YA_NAEAVInertiaTensorComputer@Ext@physx@@AEAVPxVec3@3@AEAVPxQuat@3@AEAM1_NAEBVPxRigidBody@3@PEBD@Z 000000018002b248     PhysX3ExtensionsPROFILE:ExtRigidBodyExt.obj
 0004:00001254       $pdata$7$?computeMassAndDiagInertia@@YA_NAEAVInertiaTensorComputer@Ext@physx@@AEAVPxVec3@3@AEAVPxQuat@3@AEAM1_NAEBVPxRigidBody@3@PEBD@Z 000000018002b254     PhysX3ExtensionsPROFILE:ExtRigidBodyExt.obj
 0004:00001260       $pdata$8$?computeMassAndDiagInertia@@YA_NAEAVInertiaTensorComputer@Ext@physx@@AEAVPxVec3@3@AEAVPxQuat@3@AEAM1_NAEBVPxRigidBody@3@PEBD@Z 000000018002b260     PhysX3ExtensionsPROFILE:ExtRigidBodyExt.obj
 0004:0000126c       $pdata$9$?computeMassAndDiagInertia@@YA_NAEAVInertiaTensorComputer@Ext@physx@@AEAVPxVec3@3@AEAVPxQuat@3@AEAM1_NAEBVPxRigidBody@3@PEBD@Z 000000018002b26c     PhysX3ExtensionsPROFILE:ExtRigidBodyExt.obj
 0004:00001278       $pdata$?computeMassAndInertia@@YA_N_NAEAVPxRigidBody@physx@@PEBM2I0AEAVInertiaTensorComputer@Ext@2@@Z 000000018002b278     PhysX3ExtensionsPROFILE:ExtRigidBodyExt.obj
 0004:00001284       $pdata$14$?computeMassAndInertia@@YA_N_NAEAVPxRigidBody@physx@@PEBM2I0AEAVInertiaTensorComputer@Ext@2@@Z 000000018002b284     PhysX3ExtensionsPROFILE:ExtRigidBodyExt.obj
 0004:00001290       $pdata$15$?computeMassAndInertia@@YA_N_NAEAVPxRigidBody@physx@@PEBM2I0AEAVInertiaTensorComputer@Ext@2@@Z 000000018002b290     PhysX3ExtensionsPROFILE:ExtRigidBodyExt.obj
 0004:0000129c       $pdata$?resize@?$Array@PEAVPxShape@physx@@V?$InlineAllocator@$0IA@V?$ReflectionAllocator@PEAVPxShape@physx@@@shdfnd@physx@@@shdfnd@2@@shdfnd@physx@@QEAAXIAEBQEAVPxShape@3@@Z 000000018002b29c     PhysX3ExtensionsPROFILE:ExtRigidBodyExt.obj
 0004:000012a8       $pdata$?allocate@?$Array@PEAVPxShape@physx@@V?$InlineAllocator@$0IA@V?$ReflectionAllocator@PEAVPxShape@physx@@@shdfnd@physx@@@shdfnd@2@@shdfnd@physx@@IEAAPEAPEAVPxShape@3@I@Z 000000018002b2a8     PhysX3ExtensionsPROFILE:ExtRigidBodyExt.obj
 0004:000012b4       $pdata$1$?allocate@?$Array@PEAVPxShape@physx@@V?$InlineAllocator@$0IA@V?$ReflectionAllocator@PEAVPxShape@physx@@@shdfnd@physx@@@shdfnd@2@@shdfnd@physx@@IEAAPEAPEAVPxShape@3@I@Z 000000018002b2b4     PhysX3ExtensionsPROFILE:ExtRigidBodyExt.obj
 0004:000012c0       $pdata$3$?allocate@?$Array@PEAVPxShape@physx@@V?$InlineAllocator@$0IA@V?$ReflectionAllocator@PEAVPxShape@physx@@@shdfnd@physx@@@shdfnd@2@@shdfnd@physx@@IEAAPEAPEAVPxShape@3@I@Z 000000018002b2c0     PhysX3ExtensionsPROFILE:ExtRigidBodyExt.obj
 0004:000012cc       $pdata$4$?allocate@?$Array@PEAVPxShape@physx@@V?$InlineAllocator@$0IA@V?$ReflectionAllocator@PEAVPxShape@physx@@@shdfnd@physx@@@shdfnd@2@@shdfnd@physx@@IEAAPEAPEAVPxShape@3@I@Z 000000018002b2cc     PhysX3ExtensionsPROFILE:ExtRigidBodyExt.obj
 0004:000012d8       $pdata$?recreate@?$Array@PEAVPxShape@physx@@V?$InlineAllocator@$0IA@V?$ReflectionAllocator@PEAVPxShape@physx@@@shdfnd@physx@@@shdfnd@2@@shdfnd@physx@@IEAAXI@Z 000000018002b2d8     PhysX3ExtensionsPROFILE:ExtRigidBodyExt.obj
 0004:000012e4       $pdata$?updateMassAndInertia@@YA_N_NAEAVPxRigidBody@physx@@PEBMIPEBVPxVec3@2@0@Z 000000018002b2e4     PhysX3ExtensionsPROFILE:ExtRigidBodyExt.obj
 0004:000012f0       $pdata$?setMassAndUpdateInertia@@YA_N_NAEAVPxRigidBody@physx@@PEBMIPEBVPxVec3@2@0@Z 000000018002b2f0     PhysX3ExtensionsPROFILE:ExtRigidBodyExt.obj
 0004:000012fc       $pdata$?allocate@?$Array@VPxMassProperties@physx@@V?$InlineAllocator@$0DEA@V?$ReflectionAllocator@VPxMassProperties@physx@@@shdfnd@physx@@@shdfnd@2@@shdfnd@physx@@IEAAPEAVPxMassProperties@3@I@Z 000000018002b2fc     PhysX3ExtensionsPROFILE:ExtRigidBodyExt.obj
 0004:00001308       $pdata$1$?allocate@?$Array@VPxMassProperties@physx@@V?$InlineAllocator@$0DEA@V?$ReflectionAllocator@VPxMassProperties@physx@@@shdfnd@physx@@@shdfnd@2@@shdfnd@physx@@IEAAPEAVPxMassProperties@3@I@Z 000000018002b308     PhysX3ExtensionsPROFILE:ExtRigidBodyExt.obj
 0004:00001314       $pdata$3$?allocate@?$Array@VPxMassProperties@physx@@V?$InlineAllocator@$0DEA@V?$ReflectionAllocator@VPxMassProperties@physx@@@shdfnd@physx@@@shdfnd@2@@shdfnd@physx@@IEAAPEAVPxMassProperties@3@I@Z 000000018002b314     PhysX3ExtensionsPROFILE:ExtRigidBodyExt.obj
 0004:00001320       $pdata$4$?allocate@?$Array@VPxMassProperties@physx@@V?$InlineAllocator@$0DEA@V?$ReflectionAllocator@VPxMassProperties@physx@@@shdfnd@physx@@@shdfnd@2@@shdfnd@physx@@IEAAPEAVPxMassProperties@3@I@Z 000000018002b320     PhysX3ExtensionsPROFILE:ExtRigidBodyExt.obj
 0004:0000132c       $pdata$?growAndPushBack@?$Array@VPxMassProperties@physx@@V?$InlineAllocator@$0DEA@V?$ReflectionAllocator@VPxMassProperties@physx@@@shdfnd@physx@@@shdfnd@2@@shdfnd@physx@@IEAAAEAVPxMassProperties@3@AEBV43@@Z 000000018002b32c     PhysX3ExtensionsPROFILE:ExtRigidBodyExt.obj
 0004:00001338       $pdata$?recreate@?$Array@VPxMassProperties@physx@@V?$InlineAllocator@$0DEA@V?$ReflectionAllocator@VPxMassProperties@physx@@@shdfnd@physx@@@shdfnd@2@@shdfnd@physx@@IEAAXI@Z 000000018002b338     PhysX3ExtensionsPROFILE:ExtRigidBodyExt.obj
 0004:00001344       $pdata$?allocate@?$Array@VPxTransform@physx@@V?$InlineAllocator@$0BMA@V?$ReflectionAllocator@VPxTransform@physx@@@shdfnd@physx@@@shdfnd@2@@shdfnd@physx@@IEAAPEAVPxTransform@3@I@Z 000000018002b344     PhysX3ExtensionsPROFILE:ExtRigidBodyExt.obj
 0004:00001350       $pdata$1$?allocate@?$Array@VPxTransform@physx@@V?$InlineAllocator@$0BMA@V?$ReflectionAllocator@VPxTransform@physx@@@shdfnd@physx@@@shdfnd@2@@shdfnd@physx@@IEAAPEAVPxTransform@3@I@Z 000000018002b350     PhysX3ExtensionsPROFILE:ExtRigidBodyExt.obj
 0004:0000135c       $pdata$3$?allocate@?$Array@VPxTransform@physx@@V?$InlineAllocator@$0BMA@V?$ReflectionAllocator@VPxTransform@physx@@@shdfnd@physx@@@shdfnd@2@@shdfnd@physx@@IEAAPEAVPxTransform@3@I@Z 000000018002b35c     PhysX3ExtensionsPROFILE:ExtRigidBodyExt.obj
 0004:00001368       $pdata$4$?allocate@?$Array@VPxTransform@physx@@V?$InlineAllocator@$0BMA@V?$ReflectionAllocator@VPxTransform@physx@@@shdfnd@physx@@@shdfnd@2@@shdfnd@physx@@IEAAPEAVPxTransform@3@I@Z 000000018002b368     PhysX3ExtensionsPROFILE:ExtRigidBodyExt.obj
 0004:00001374       $pdata$?growAndPushBack@?$Array@VPxTransform@physx@@V?$InlineAllocator@$0BMA@V?$ReflectionAllocator@VPxTransform@physx@@@shdfnd@physx@@@shdfnd@2@@shdfnd@physx@@IEAAAEAVPxTransform@3@AEBV43@@Z 000000018002b374     PhysX3ExtensionsPROFILE:ExtRigidBodyExt.obj
 0004:00001380       $pdata$?recreate@?$Array@VPxTransform@physx@@V?$InlineAllocator@$0BMA@V?$ReflectionAllocator@VPxTransform@physx@@@shdfnd@physx@@@shdfnd@2@@shdfnd@physx@@IEAAXI@Z 000000018002b380     PhysX3ExtensionsPROFILE:ExtRigidBodyExt.obj
 0004:0000138c       $pdata$?addForceAtPosInternal@@YAXAEAVPxRigidBody@physx@@AEBVPxVec3@2@1W4Enum@PxForceMode@2@_N@Z 000000018002b38c     PhysX3ExtensionsPROFILE:ExtRigidBodyExt.obj
 0004:00001398       $pdata$8$?addForceAtPosInternal@@YAXAEAVPxRigidBody@physx@@AEBVPxVec3@2@1W4Enum@PxForceMode@2@_N@Z 000000018002b398     PhysX3ExtensionsPROFILE:ExtRigidBodyExt.obj
 0004:000013a4       $pdata$9$?addForceAtPosInternal@@YAXAEAVPxRigidBody@physx@@AEBVPxVec3@2@1W4Enum@PxForceMode@2@_N@Z 000000018002b3a4     PhysX3ExtensionsPROFILE:ExtRigidBodyExt.obj
 0004:000013b0       $pdata$?getVelocityAtPosInternal@@YA?AVPxVec3@physx@@AEBVPxRigidBody@2@AEBV12@@Z 000000018002b3b0     PhysX3ExtensionsPROFILE:ExtRigidBodyExt.obj
 0004:000013bc       $pdata$??_Gtype_info@@UEAAPEAXI@Z 000000018002b3bc     MSVCRT:std_type_info_static.obj
 0004:000013d4       $pdata$?dllmain_crt_process_attach@@YAHQEAUHINSTANCE__@@QEAX@Z 000000018002b3d4     MSVCRT:dll_dllmain.obj
 0004:000013e0       $pdata$?fin$0@?0??dllmain_crt_process_attach@@YAHQEAUHINSTANCE__@@QEAX@Z@4HA 000000018002b3e0     MSVCRT:dll_dllmain.obj
 0004:000013ec       $pdata$?dllmain_crt_process_detach@@YAH_N@Z 000000018002b3ec     MSVCRT:dll_dllmain.obj
 0004:000013f8       $pdata$?fin$0@?0??dllmain_crt_process_detach@@YAH_N@Z@4HA 000000018002b3f8     MSVCRT:dll_dllmain.obj
 0004:00001404       $pdata$?dllmain_crt_dispatch@@YAHQEAUHINSTANCE__@@KQEAX@Z 000000018002b404     MSVCRT:dll_dllmain.obj
 0004:00001410       $pdata$?dllmain_dispatch@@YAHQEAUHINSTANCE__@@KQEAX@Z 000000018002b410     MSVCRT:dll_dllmain.obj
 0004:0000141c       $pdata$?filt$0@?0??dllmain_dispatch@@YAHQEAUHINSTANCE__@@KQEAX@Z@4HA 000000018002b41c     MSVCRT:dll_dllmain.obj
 0004:00001428       $pdata$_DllMainCRTStartup  000000018002b428     MSVCRT:dll_dllmain.obj
 0004:00001434       $pdata$__security_init_cookie 000000018002b434     MSVCRT:gs_support.obj
 0004:00001440       $pdata$__get_entropy       000000018002b440     MSVCRT:gs_support.obj
 0004:0000144c       $pdata$DllMain             000000018002b44c     MSVCRT:dll_dllmain_stub.obj
 0004:00001458       $pdata$__scrt_initialize_default_local_stdio_options 000000018002b458     MSVCRT:default_local_stdio_options.obj
 0004:00001464       $pdata$atexit              000000018002b464     MSVCRT:utility.obj
 0004:00001470       $pdata$_onexit             000000018002b470     MSVCRT:utility.obj
 0004:0000147c       $pdata$__scrt_is_nonwritable_in_current_image 000000018002b47c     MSVCRT:utility.obj
 0004:00001488       $pdata$__scrt_is_nonwritable_in_current_image$filt$0 000000018002b488     MSVCRT:utility.obj
 0004:00001494       $pdata$__scrt_acquire_startup_lock 000000018002b494     MSVCRT:utility.obj
 0004:000014a0       $pdata$__scrt_release_startup_lock 000000018002b4a0     MSVCRT:utility.obj
 0004:000014ac       $pdata$__scrt_initialize_crt 000000018002b4ac     MSVCRT:utility.obj
 0004:000014b8       $pdata$__scrt_uninitialize_crt 000000018002b4b8     MSVCRT:utility.obj
 0004:000014c4       $pdata$__scrt_initialize_onexit_tables 000000018002b4c4     MSVCRT:utility.obj
 0004:000014d0       $pdata$__scrt_dllmain_exception_filter 000000018002b4d0     MSVCRT:utility.obj
 0004:000014dc       $pdata$__scrt_dllmain_before_initialize_c 000000018002b4dc     MSVCRT:utility.obj
 0004:000014e8       $pdata$__scrt_dllmain_after_initialize_c 000000018002b4e8     MSVCRT:utility.obj
 0004:000014f4       $pdata$__scrt_dllmain_uninitialize_c 000000018002b4f4     MSVCRT:utility.obj
 0004:00001500       $pdata$__scrt_dllmain_uninitialize_critical 000000018002b500     MSVCRT:utility.obj
 0004:0000150c       $pdata$__scrt_dllmain_crt_thread_attach 000000018002b50c     MSVCRT:utility.obj
 0004:00001518       $pdata$__scrt_dllmain_crt_thread_detach 000000018002b518     MSVCRT:utility.obj
 0004:00001524       $pdata$?configure_argv@__scrt_narrow_argv_policy@@SAHXZ 000000018002b524     MSVCRT:utility.obj
 0004:00001530       $pdata$__scrt_get_show_window_mode 000000018002b530     MSVCRT:utility_desktop.obj
 0004:0000153c       $pdata$__scrt_is_managed_app 000000018002b53c     MSVCRT:utility_desktop.obj
 0004:00001548       $pdata$__scrt_fastfail     000000018002b548     MSVCRT:utility_desktop.obj
 0004:00001554       $pdata$__scrt_unhandled_exception_filter 000000018002b554     MSVCRT:utility_desktop.obj
 0004:00001560       $pdata$_RTC_Initialize     000000018002b560     MSVCRT:initsect.obj
 0004:0000156c       $pdata$_RTC_Terminate      000000018002b56c     MSVCRT:initsect.obj
 0004:00001578       $pdata$__isa_available_init 000000018002b578     MSVCRT:cpu_disp.obj
 0005:000000a0       $R000000                   000000018002c0a0     PhysX3CharacterKinematic.res
 0005:00000420       $R000380                   000000018002c420     PhysX3CharacterKinematic.res
